EXPORTS
    FT_Activate_Size @1
    FT_Add_Default_Modules @2
    FT_Add_Module @3
    FT_Alloc @4
    FT_Angle_Diff @5
    FT_Atan2 @6
    FT_Attach_File @7
    FT_Attach_Stream @8
    FT_Bitmap_Convert @9
    FT_Bitmap_Copy @10
    FT_Bitmap_Done @11
    FT_Bitmap_Embolden @12
    FT_Bitmap_New @13
    FT_CMap_Done @14
    FT_CMap_New @15
    FT_CeilFix @16
    FT_Cos @17
    FT_DivFix @18
    FT_Done_Face @19
    FT_Done_FreeType @20
    FT_Done_Glyph @21
    FT_Done_GlyphSlot @22
    FT_Done_Library @23
    FT_Done_Memory @24
    FT_Done_Size @25
    FT_Face_GetCharVariantIndex @26
    FT_Face_GetCharVariantIsDefault @27
    FT_Face_GetCharsOfVariant @28
    FT_Face_GetVariantSelectors @29
    FT_Face_GetVariantsOfChar @30
    FT_FloorFix @31
    FT_Free @32
    FT_Get_Advance @33
    FT_Get_Advances @34
    FT_Get_CMap_Format @35
    FT_Get_CMap_Language_ID @36
    FT_Get_Char_Index @37
    FT_Get_Charmap_Index @38
    FT_Get_First_Char @39
    FT_Get_Glyph @40
    FT_Get_Glyph_Name @41
    FT_Get_Kerning @42
    FT_Get_Module @43
    FT_Get_Module_Interface @44
    FT_Get_Name_Index @45
    FT_Get_Next_Char @46
    FT_Get_Postscript_Name @47
    FT_Get_Renderer @48
    FT_Get_Sfnt_Name @49
    FT_Get_Sfnt_Name_Count @50
    FT_Get_Sfnt_Table @51
    FT_Get_SubGlyph_Info @52
    FT_Get_Track_Kerning @53
    FT_Get_TrueType_Engine_Type @54
    FT_GlyphLoader_Add @55
    FT_GlyphLoader_CheckPoints @56
    FT_GlyphLoader_CheckSubGlyphs @57
    FT_GlyphLoader_CopyPoints @58
    FT_GlyphLoader_CreateExtra @59
    FT_GlyphLoader_Done @60
    FT_GlyphLoader_New @61
    FT_GlyphLoader_Prepare @62
    FT_GlyphLoader_Reset @63
    FT_GlyphLoader_Rewind @64
    FT_GlyphSlot_Own_Bitmap @65
    FT_Glyph_Copy @66
    FT_Glyph_Get_CBox @67
    FT_Glyph_To_Bitmap @68
    FT_Glyph_Transform @69
    FT_Init_FreeType @70
    FT_Library_Version @71
    FT_List_Add @72
    FT_List_Finalize @73
    FT_List_Find @74
    FT_List_Insert @75
    FT_List_Iterate @76
    FT_List_Remove @77
    FT_List_Up @78
    FT_Load_Char @79
    FT_Load_Glyph @80
    FT_Load_Sfnt_Table @81
    FT_Lookup_Renderer @82
    FT_Match_Size @83
    FT_Matrix_Invert @84
    FT_Matrix_Multiply @85
    FT_Matrix_Multiply_Scaled @86
    FT_MulDiv @87
    FT_MulDiv_No_Round @88
    FT_MulFix @89
    FT_New_Face @90
    FT_New_GlyphSlot @91
    FT_New_Library @92
    FT_New_Memory @93
    FT_New_Memory_Face @94
    FT_New_Size @95
    FT_Open_Face @96
    FT_Outline_Check @97
    FT_Outline_Copy @98
    FT_Outline_Decompose @99
    FT_Outline_Done @100
    FT_Outline_Done_Internal @101
    FT_Outline_Embolden @102
    FT_Outline_Get_Bitmap @103
    FT_Outline_Get_CBox @104
    FT_Outline_Get_Orientation @105
    FT_Outline_New @106
    FT_Outline_New_Internal @107
    FT_Outline_Render @108
    FT_Outline_Reverse @109
    FT_Outline_Transform @110
    FT_Outline_Translate @111
    FT_QAlloc @112
    FT_QRealloc @113
    FT_Raccess_Get_DataOffsets @114
    FT_Raccess_Get_HeaderInfo @115
    FT_Raccess_Guess @116
    FT_Realloc @117
    FT_Reference_Face @118
    FT_Reference_Library @119
    FT_Remove_Module @120
    FT_Render_Glyph @121
    FT_Render_Glyph_Internal @122
    FT_Request_Metrics @123
    FT_Request_Size @124
    FT_RoundFix @125
    FT_Select_Charmap @126
    FT_Select_Metrics @127
    FT_Select_Size @128
    FT_Set_Char_Size @129
    FT_Set_Charmap @130
    FT_Set_Debug_Hook @131
    FT_Set_Pixel_Sizes @132
    FT_Set_Renderer @133
    FT_Set_Transform @134
    FT_Sfnt_Table_Info @135
    FT_Sin @136
    FT_Sqrt32 @137
    FT_SqrtFixed @138
    FT_Stream_Close @139
    FT_Stream_EnterFrame @140
    FT_Stream_ExitFrame @141
    FT_Stream_ExtractFrame @142
    FT_Stream_Free @143
    FT_Stream_GetChar @144
    FT_Stream_GetLong @145
    FT_Stream_GetLongLE @146
    FT_Stream_GetOffset @147
    FT_Stream_GetShort @148
    FT_Stream_GetShortLE @149
    FT_Stream_New @150
    FT_Stream_Open @151
    FT_Stream_OpenGzip @152
    FT_Stream_OpenLZW @153
    FT_Stream_OpenMemory @154
    FT_Stream_Pos @155
    FT_Stream_Read @156
    FT_Stream_ReadAt @157
    FT_Stream_ReadChar @158
    FT_Stream_ReadFields @159
    FT_Stream_ReadLong @160
    FT_Stream_ReadLongLE @161
    FT_Stream_ReadOffset @162
    FT_Stream_ReadShort @163
    FT_Stream_ReadShortLE @164
    FT_Stream_ReleaseFrame @165
    FT_Stream_Seek @166
    FT_Stream_Skip @167
    FT_Stream_TryRead @168
    FT_Tan @169
    FT_Vector_From_Polar @170
    FT_Vector_Length @171
    FT_Vector_Polarize @172
    FT_Vector_Rotate @173
    FT_Vector_Transform @174
    FT_Vector_Transform_Scaled @175
    FT_Vector_Unit @176
    TT_New_Context @177
    TT_RunIns @178
    _Z10b2DistanceP16b2DistanceOutputP14b2SimplexCachePK15b2DistanceInput @179
    _Z11stbi__crc32Phi @180
    _Z13b2TestOverlapPK7b2ShapeiS1_iRK11b2TransformS4_ @181
    _Z14b2PairLessThanRK6b2PairS1_ @182
    _Z14b2TimeOfImpactP11b2TOIOutputPK10b2TOIInput @183
    _Z15stbi_loadf_mainP4stbiPiS1_S1_i @184
    _Z16b2CollideCirclesP10b2ManifoldPK13b2CircleShapeRK11b2TransformS3_S6_ @185
    _Z16b2GetPointStatesP12b2PointStateS0_PK10b2ManifoldS3_ @186
    _Z17b2CollidePolygonsP10b2ManifoldPK14b2PolygonShapeRK11b2TransformS3_S6_ @187
    _Z18stbi_zlib_compressPhiPii @188
    _Z19b2ClipSegmentToLineP12b2ClipVertexPKS_RK6b2Vec2fi @189
    _Z21stbi_write_png_to_memPhiiiiPi @190
    _Z22b2CollideEdgeAndCircleP10b2ManifoldPK11b2EdgeShapeRK11b2TransformPK13b2CircleShapeS6_ @191
    _Z23b2CollideEdgeAndPolygonP10b2ManifoldPK11b2EdgeShapeRK11b2TransformPK14b2PolygonShapeS6_ @192
    _Z25b2CollidePolygonAndCircleP10b2ManifoldPK14b2PolygonShapeRK11b2TransformPK13b2CircleShapeS6_ @193
    _Z44stbi_zlib_decode_malloc_guesssize_headerflagPKciiPii @194
    _Z5b2LogPKcz @195
    _Z6b2FreePv @196
    _Z7b2Alloci @197
    _ZN10BinaryJson10xor_stringEPKcjj @198
    _ZN10BinaryJson12binaryToJsonEPN6XeCore6Common6BufferIhLNS1_20BufferDataCopyMethodE1EEERN4Json5ValueEj @199
    _ZN10BinaryJson12jsonToBinaryERN4Json5ValueEPN6XeCore6Common6BufferIhLNS4_20BufferDataCopyMethodE1EEEjb @200
    _ZN11b2EdgeShape3SetERK6b2Vec2S2_ @201
    _ZN11b2EdgeShapeD0Ev @202
    _ZN11b2EdgeShapeD1Ev @203
    _ZN11b2GearJoint23InitVelocityConstraintsERK12b2SolverData @204
    _ZN11b2GearJoint24SolvePositionConstraintsERK12b2SolverData @205
    _ZN11b2GearJoint24SolveVelocityConstraintsERK12b2SolverData @206
    _ZN11b2GearJoint4DumpEv @207
    _ZN11b2GearJoint8SetRatioEf @208
    _ZN11b2GearJointC1EPK14b2GearJointDef @209
    _ZN11b2GearJointC2EPK14b2GearJointDef @210
    _ZN11b2GearJointD0Ev @211
    _ZN11b2GearJointD1Ev @212
    _ZN11b2RopeJoint23InitVelocityConstraintsERK12b2SolverData @213
    _ZN11b2RopeJoint24SolvePositionConstraintsERK12b2SolverData @214
    _ZN11b2RopeJoint24SolveVelocityConstraintsERK12b2SolverData @215
    _ZN11b2RopeJoint4DumpEv @216
    _ZN11b2RopeJointC1EPK14b2RopeJointDef @217
    _ZN11b2RopeJointC2EPK14b2RopeJointDef @218
    _ZN11b2RopeJointD0Ev @219
    _ZN11b2RopeJointD1Ev @220
    _ZN11b2WeldJoint23InitVelocityConstraintsERK12b2SolverData @221
    _ZN11b2WeldJoint24SolvePositionConstraintsERK12b2SolverData @222
    _ZN11b2WeldJoint24SolveVelocityConstraintsERK12b2SolverData @223
    _ZN11b2WeldJoint4DumpEv @224
    _ZN11b2WeldJointC1EPK14b2WeldJointDef @225
    _ZN11b2WeldJointC2EPK14b2WeldJointDef @226
    _ZN11b2WeldJointD0Ev @227
    _ZN11b2WeldJointD1Ev @228
    _ZN12b2BroadPhase10BufferMoveEi @229
    _ZN12b2BroadPhase10TouchProxyEi @230
    _ZN12b2BroadPhase11CreateProxyERK6b2AABBPv @231
    _ZN12b2BroadPhase11UpdatePairsI16b2ContactManagerEEvPT_ @232
    _ZN12b2BroadPhase12DestroyProxyEi @233
    _ZN12b2BroadPhase12UnBufferMoveEi @234
    _ZN12b2BroadPhase13QueryCallbackEi @235
    _ZN12b2BroadPhase9MoveProxyEiRK6b2AABBRK6b2Vec2 @236
    _ZN12b2BroadPhaseC1Ev @237
    _ZN12b2BroadPhaseC2Ev @238
    _ZN12b2BroadPhaseD1Ev @239
    _ZN12b2BroadPhaseD2Ev @240
    _ZN12b2ChainShape10CreateLoopEPK6b2Vec2i @241
    _ZN12b2ChainShape11CreateChainEPK6b2Vec2i @242
    _ZN12b2ChainShape13SetNextVertexERK6b2Vec2 @243
    _ZN12b2ChainShape13SetPrevVertexERK6b2Vec2 @244
    _ZN12b2ChainShapeD0Ev @245
    _ZN12b2ChainShapeD1Ev @246
    _ZN12b2ChainShapeD2Ev @247
    _ZN12b2EPCollider21ComputeEdgeSeparationEv @248
    _ZN12b2EPCollider24ComputePolygonSeparationEv @249
    _ZN12b2EPCollider7CollideEP10b2ManifoldPK11b2EdgeShapeRK11b2TransformPK14b2PolygonShapeS7_ @250
    _ZN12b2MouseJoint11SetMaxForceEf @251
    _ZN12b2MouseJoint12SetFrequencyEf @252
    _ZN12b2MouseJoint15SetDampingRatioEf @253
    _ZN12b2MouseJoint23InitVelocityConstraintsERK12b2SolverData @254
    _ZN12b2MouseJoint24SolvePositionConstraintsERK12b2SolverData @255
    _ZN12b2MouseJoint24SolveVelocityConstraintsERK12b2SolverData @256
    _ZN12b2MouseJoint4DumpEv @257
    _ZN12b2MouseJoint9SetTargetERK6b2Vec2 @258
    _ZN12b2MouseJointC1EPK15b2MouseJointDef @259
    _ZN12b2MouseJointC2EPK15b2MouseJointDef @260
    _ZN12b2MouseJointD0Ev @261
    _ZN12b2MouseJointD1Ev @262
    _ZN12b2WheelJoint11EnableMotorEb @263
    _ZN12b2WheelJoint13SetMotorSpeedEf @264
    _ZN12b2WheelJoint17SetMaxMotorTorqueEf @265
    _ZN12b2WheelJoint23InitVelocityConstraintsERK12b2SolverData @266
    _ZN12b2WheelJoint24SolvePositionConstraintsERK12b2SolverData @267
    _ZN12b2WheelJoint24SolveVelocityConstraintsERK12b2SolverData @268
    _ZN12b2WheelJoint4DumpEv @269
    _ZN12b2WheelJointC1EPK15b2WheelJointDef @270
    _ZN12b2WheelJointC2EPK15b2WheelJointDef @271
    _ZN12b2WheelJointD0Ev @272
    _ZN12b2WheelJointD1Ev @273
    _ZN13b2CircleShapeD0Ev @274
    _ZN13b2CircleShapeD1Ev @275
    _ZN13b2DynamicTree10InsertLeafEi @276
    _ZN13b2DynamicTree10RemoveLeafEi @277
    _ZN13b2DynamicTree11CreateProxyERK6b2AABBPv @278
    _ZN13b2DynamicTree12AllocateNodeEv @279
    _ZN13b2DynamicTree12DestroyProxyEi @280
    _ZN13b2DynamicTree15RebuildBottomUpEv @281
    _ZN13b2DynamicTree7BalanceEi @282
    _ZN13b2DynamicTree8FreeNodeEi @283
    _ZN13b2DynamicTree9MoveProxyEiRK6b2AABBRK6b2Vec2 @284
    _ZN13b2DynamicTreeC1Ev @285
    _ZN13b2DynamicTreeC2Ev @286
    _ZN13b2DynamicTreeD1Ev @287
    _ZN13b2DynamicTreeD2Ev @288
    _ZN13b2PulleyJoint23InitVelocityConstraintsERK12b2SolverData @289
    _ZN13b2PulleyJoint24SolvePositionConstraintsERK12b2SolverData @290
    _ZN13b2PulleyJoint24SolveVelocityConstraintsERK12b2SolverData @291
    _ZN13b2PulleyJoint4DumpEv @292
    _ZN13b2PulleyJointC1EPK16b2PulleyJointDef @293
    _ZN13b2PulleyJointC2EPK16b2PulleyJointDef @294
    _ZN13b2PulleyJointD0Ev @295
    _ZN13b2PulleyJointD1Ev @296
    _ZN14b2PolygonShape3SetEPK6b2Vec2i @297
    _ZN14b2PolygonShape8SetAsBoxEff @298
    _ZN14b2PolygonShape8SetAsBoxEffRK6b2Vec2f @299
    _ZN14b2PolygonShapeD0Ev @300
    _ZN14b2PolygonShapeD1Ev @301
    _ZN14b2WeldJointDef10InitializeEP6b2BodyS1_RK6b2Vec2 @302
    _ZN15b2CircleContact6CreateEP9b2FixtureiS1_iP16b2BlockAllocator @303
    _ZN15b2CircleContact7DestroyEP9b2ContactP16b2BlockAllocator @304
    _ZN15b2CircleContact8EvaluateEP10b2ManifoldRK11b2TransformS4_ @305
    _ZN15b2CircleContactC1EP9b2FixtureS1_ @306
    _ZN15b2CircleContactC2EP9b2FixtureS1_ @307
    _ZN15b2CircleContactD0Ev @308
    _ZN15b2CircleContactD1Ev @309
    _ZN15b2ContactFilter13ShouldCollideEP9b2FixtureS1_ @310
    _ZN15b2ContactFilterD0Ev @311
    _ZN15b2ContactFilterD1Ev @312
    _ZN15b2ContactSolver13StoreImpulsesEv @313
    _ZN15b2ContactSolver24SolvePositionConstraintsEv @314
    _ZN15b2ContactSolver24SolveVelocityConstraintsEv @315
    _ZN15b2ContactSolver27SolveTOIPositionConstraintsEii @316
    _ZN15b2ContactSolver29InitializeVelocityConstraintsEv @317
    _ZN15b2ContactSolver9WarmStartEv @318
    _ZN15b2ContactSolverC1EP18b2ContactSolverDef @319
    _ZN15b2ContactSolverC2EP18b2ContactSolverDef @320
    _ZN15b2ContactSolverD1Ev @321
    _ZN15b2ContactSolverD2Ev @322
    _ZN15b2DistanceJoint23InitVelocityConstraintsERK12b2SolverData @323
    _ZN15b2DistanceJoint24SolvePositionConstraintsERK12b2SolverData @324
    _ZN15b2DistanceJoint24SolveVelocityConstraintsERK12b2SolverData @325
    _ZN15b2DistanceJoint4DumpEv @326
    _ZN15b2DistanceJointC1EPK18b2DistanceJointDef @327
    _ZN15b2DistanceJointC2EPK18b2DistanceJointDef @328
    _ZN15b2DistanceJointD0Ev @329
    _ZN15b2DistanceJointD1Ev @330
    _ZN15b2DistanceProxy3SetEPK7b2Shapei @331
    _ZN15b2FrictionJoint11SetMaxForceEf @332
    _ZN15b2FrictionJoint12SetMaxTorqueEf @333
    _ZN15b2FrictionJoint23InitVelocityConstraintsERK12b2SolverData @334
    _ZN15b2FrictionJoint24SolvePositionConstraintsERK12b2SolverData @335
    _ZN15b2FrictionJoint24SolveVelocityConstraintsERK12b2SolverData @336
    _ZN15b2FrictionJoint4DumpEv @337
    _ZN15b2FrictionJointC1EPK18b2FrictionJointDef @338
    _ZN15b2FrictionJointC2EPK18b2FrictionJointDef @339
    _ZN15b2FrictionJointD0Ev @340
    _ZN15b2FrictionJointD1Ev @341
    _ZN15b2RevoluteJoint11EnableLimitEb @342
    _ZN15b2RevoluteJoint11EnableMotorEb @343
    _ZN15b2RevoluteJoint13SetMotorSpeedEf @344
    _ZN15b2RevoluteJoint17SetMaxMotorTorqueEf @345
    _ZN15b2RevoluteJoint23InitVelocityConstraintsERK12b2SolverData @346
    _ZN15b2RevoluteJoint24SolvePositionConstraintsERK12b2SolverData @347
    _ZN15b2RevoluteJoint24SolveVelocityConstraintsERK12b2SolverData @348
    _ZN15b2RevoluteJoint4DumpEv @349
    _ZN15b2RevoluteJoint9SetLimitsEff @350
    _ZN15b2RevoluteJointC1EPK18b2RevoluteJointDef @351
    _ZN15b2RevoluteJointC2EPK18b2RevoluteJointDef @352
    _ZN15b2RevoluteJointD0Ev @353
    _ZN15b2RevoluteJointD1Ev @354
    _ZN15b2WheelJointDef10InitializeEP6b2BodyS1_RK6b2Vec2S4_ @355
    _ZN15b2WorldManifold10InitializeEPK10b2ManifoldRK11b2TransformfS5_f @356
    _ZN16b2BlockAllocator12s_blockSizesE @357 DATA
    _ZN16b2BlockAllocator17s_blockSizeLookupE @358 DATA
    _ZN16b2BlockAllocator28s_blockSizeLookupInitializedE @359 DATA
    _ZN16b2BlockAllocator4FreeEPvi @360
    _ZN16b2BlockAllocator5ClearEv @361
    _ZN16b2BlockAllocator8AllocateEi @362
    _ZN16b2BlockAllocatorC1Ev @363
    _ZN16b2BlockAllocatorC2Ev @364
    _ZN16b2BlockAllocatorD1Ev @365
    _ZN16b2BlockAllocatorD2Ev @366
    _ZN16b2ContactManager15FindNewContactsEv @367
    _ZN16b2ContactManager7AddPairEPvS0_ @368
    _ZN16b2ContactManager7CollideEv @369
    _ZN16b2ContactManager7DestroyEP9b2Contact @370
    _ZN16b2ContactManagerC1Ev @371
    _ZN16b2ContactManagerC2Ev @372
    _ZN16b2PolygonContact6CreateEP9b2FixtureiS1_iP16b2BlockAllocator @373
    _ZN16b2PolygonContact7DestroyEP9b2ContactP16b2BlockAllocator @374
    _ZN16b2PolygonContact8EvaluateEP10b2ManifoldRK11b2TransformS4_ @375
    _ZN16b2PolygonContactC1EP9b2FixtureS1_ @376
    _ZN16b2PolygonContactC2EP9b2FixtureS1_ @377
    _ZN16b2PolygonContactD0Ev @378
    _ZN16b2PolygonContactD1Ev @379
    _ZN16b2PrismaticJoint11EnableLimitEb @380
    _ZN16b2PrismaticJoint11EnableMotorEb @381
    _ZN16b2PrismaticJoint13SetMotorSpeedEf @382
    _ZN16b2PrismaticJoint16SetMaxMotorForceEf @383
    _ZN16b2PrismaticJoint23InitVelocityConstraintsERK12b2SolverData @384
    _ZN16b2PrismaticJoint24SolvePositionConstraintsERK12b2SolverData @385
    _ZN16b2PrismaticJoint24SolveVelocityConstraintsERK12b2SolverData @386
    _ZN16b2PrismaticJoint4DumpEv @387
    _ZN16b2PrismaticJoint9SetLimitsEff @388
    _ZN16b2PrismaticJointC1EPK19b2PrismaticJointDef @389
    _ZN16b2PrismaticJointC2EPK19b2PrismaticJointDef @390
    _ZN16b2PrismaticJointD0Ev @391
    _ZN16b2PrismaticJointD1Ev @392
    _ZN16b2PulleyJointDef10InitializeEP6b2BodyS1_RK6b2Vec2S4_S4_S4_f @393
    _ZN16b2StackAllocator4FreeEPv @394
    _ZN16b2StackAllocator8AllocateEi @395
    _ZN16b2StackAllocatorC1Ev @396
    _ZN16b2StackAllocatorC2Ev @397
    _ZN16b2StackAllocatorD1Ev @398
    _ZN16b2StackAllocatorD2Ev @399
    _ZN17b2ContactListener10EndContactEP9b2Contact @400
    _ZN17b2ContactListener12BeginContactEP9b2Contact @401
    _ZN17b2ContactListener8PreSolveEP9b2ContactPK10b2Manifold @402
    _ZN17b2ContactListener9PostSolveEP9b2ContactPK16b2ContactImpulse @403
    _ZN17b2ContactListenerD0Ev @404
    _ZN17b2ContactListenerD1Ev @405
    _ZN18b2DistanceJointDef10InitializeEP6b2BodyS1_RK6b2Vec2S4_ @406
    _ZN18b2FrictionJointDef10InitializeEP6b2BodyS1_RK6b2Vec2 @407
    _ZN18b2RevoluteJointDef10InitializeEP6b2BodyS1_RK6b2Vec2 @408
    _ZN19b2PrismaticJointDef10InitializeEP6b2BodyS1_RK6b2Vec2S4_ @409
    _ZN21b2DestructionListenerD0Ev @410
    _ZN21b2DestructionListenerD1Ev @411
    _ZN22b2EdgeAndCircleContact6CreateEP9b2FixtureiS1_iP16b2BlockAllocator @412
    _ZN22b2EdgeAndCircleContact7DestroyEP9b2ContactP16b2BlockAllocator @413
    _ZN22b2EdgeAndCircleContact8EvaluateEP10b2ManifoldRK11b2TransformS4_ @414
    _ZN22b2EdgeAndCircleContactC1EP9b2FixtureS1_ @415
    _ZN22b2EdgeAndCircleContactC2EP9b2FixtureS1_ @416
    _ZN22b2EdgeAndCircleContactD0Ev @417
    _ZN22b2EdgeAndCircleContactD1Ev @418
    _ZN23b2ChainAndCircleContact6CreateEP9b2FixtureiS1_iP16b2BlockAllocator @419
    _ZN23b2ChainAndCircleContact7DestroyEP9b2ContactP16b2BlockAllocator @420
    _ZN23b2ChainAndCircleContact8EvaluateEP10b2ManifoldRK11b2TransformS4_ @421
    _ZN23b2ChainAndCircleContactC1EP9b2FixtureiS1_i @422
    _ZN23b2ChainAndCircleContactC2EP9b2FixtureiS1_i @423
    _ZN23b2ChainAndCircleContactD0Ev @424
    _ZN23b2ChainAndCircleContactD1Ev @425
    _ZN23b2EdgeAndPolygonContact6CreateEP9b2FixtureiS1_iP16b2BlockAllocator @426
    _ZN23b2EdgeAndPolygonContact7DestroyEP9b2ContactP16b2BlockAllocator @427
    _ZN23b2EdgeAndPolygonContact8EvaluateEP10b2ManifoldRK11b2TransformS4_ @428
    _ZN23b2EdgeAndPolygonContactC1EP9b2FixtureS1_ @429
    _ZN23b2EdgeAndPolygonContactC2EP9b2FixtureS1_ @430
    _ZN23b2EdgeAndPolygonContactD0Ev @431
    _ZN23b2EdgeAndPolygonContactD1Ev @432
    _ZN24b2ChainAndPolygonContact6CreateEP9b2FixtureiS1_iP16b2BlockAllocator @433
    _ZN24b2ChainAndPolygonContact7DestroyEP9b2ContactP16b2BlockAllocator @434
    _ZN24b2ChainAndPolygonContact8EvaluateEP10b2ManifoldRK11b2TransformS4_ @435
    _ZN24b2ChainAndPolygonContactC1EP9b2FixtureiS1_i @436
    _ZN24b2ChainAndPolygonContactC2EP9b2FixtureiS1_i @437
    _ZN24b2ChainAndPolygonContactD0Ev @438
    _ZN24b2ChainAndPolygonContactD1Ev @439
    _ZN25b2PolygonAndCircleContact6CreateEP9b2FixtureiS1_iP16b2BlockAllocator @440
    _ZN25b2PolygonAndCircleContact7DestroyEP9b2ContactP16b2BlockAllocator @441
    _ZN25b2PolygonAndCircleContact8EvaluateEP10b2ManifoldRK11b2TransformS4_ @442
    _ZN25b2PolygonAndCircleContactC1EP9b2FixtureS1_ @443
    _ZN25b2PolygonAndCircleContactC2EP9b2FixtureS1_ @444
    _ZN25b2PolygonAndCircleContactD0Ev @445
    _ZN25b2PolygonAndCircleContactD1Ev @446
    _ZN2sf10GlResource15ensureGlContextEv @447
    _ZN2sf10GlResourceC1Ev @448
    _ZN2sf10GlResourceC2Ev @449
    _ZN2sf10GlResourceD1Ev @450
    _ZN2sf10GlResourceD2Ev @451
    _ZN2sf11SoundBuffer10initializeERNS_4priv9SoundFileE @452
    _ZN2sf11SoundBuffer12loadFromFileERKSs @453
    _ZN2sf11SoundBuffer14loadFromMemoryEPKvj @454
    _ZN2sf11SoundBuffer14loadFromStreamERNS_11InputStreamE @455
    _ZN2sf11SoundBuffer15loadFromSamplesEPKsjjj @456
    _ZN2sf11SoundBuffer6updateEjj @457
    _ZN2sf11SoundBufferC1ERKS0_ @458
    _ZN2sf11SoundBufferC1Ev @459
    _ZN2sf11SoundBufferC2ERKS0_ @460
    _ZN2sf11SoundBufferC2Ev @461
    _ZN2sf11SoundBufferD1Ev @462
    _ZN2sf11SoundBufferD2Ev @463
    _ZN2sf11SoundBufferaSERKS0_ @464
    _ZN2sf11SoundSource11setPositionERKNS_7Vector3IfEE @465
    _ZN2sf11SoundSource11setPositionEfff @466
    _ZN2sf11SoundSource14setAttenuationEf @467
    _ZN2sf11SoundSource14setMinDistanceEf @468
    _ZN2sf11SoundSource21setRelativeToListenerEb @469
    _ZN2sf11SoundSource8setPitchEf @470
    _ZN2sf11SoundSource9setVolumeEf @471
    _ZN2sf11SoundSourceC1ERKS0_ @472
    _ZN2sf11SoundSourceC1Ev @473
    _ZN2sf11SoundSourceC2ERKS0_ @474
    _ZN2sf11SoundSourceC2Ev @475
    _ZN2sf11SoundSourceD0Ev @476
    _ZN2sf11SoundSourceD1Ev @477
    _ZN2sf11SoundSourceD2Ev @478
    _ZN2sf11SoundStream10clearQueueEv @479
    _ZN2sf11SoundStream10initializeEjj @480
    _ZN2sf11SoundStream10streamDataEv @481
    _ZN2sf11SoundStream16setPlayingOffsetENS_4TimeE @482
    _ZN2sf11SoundStream17fillAndPushBufferEj @483
    _ZN2sf11SoundStream4playEv @484
    _ZN2sf11SoundStream4stopEv @485
    _ZN2sf11SoundStream5pauseEv @486
    _ZN2sf11SoundStream7setLoopEb @487
    _ZN2sf11SoundStream9fillQueueEv @488
    _ZN2sf11SoundStreamC1Ev @489
    _ZN2sf11SoundStreamC2Ev @490
    _ZN2sf11SoundStreamD0Ev @491
    _ZN2sf11SoundStreamD1Ev @492
    _ZN2sf11SoundStreamD2Ev @493
    _ZN2sf11ThreadLocal8setValueEPv @494
    _ZN2sf11ThreadLocalC1EPv @495
    _ZN2sf11ThreadLocalC2EPv @496
    _ZN2sf11ThreadLocalD1Ev @497
    _ZN2sf11ThreadLocalD2Ev @498
    _ZN2sf11VertexArray16setPrimitiveTypeENS_13PrimitiveTypeE @499
    _ZN2sf11VertexArray5clearEv @500
    _ZN2sf11VertexArray6appendERKNS_6VertexE @501
    _ZN2sf11VertexArray6resizeEj @502
    _ZN2sf11VertexArrayC1ENS_13PrimitiveTypeEj @503
    _ZN2sf11VertexArrayC1Ev @504
    _ZN2sf11VertexArrayC2ENS_13PrimitiveTypeEj @505
    _ZN2sf11VertexArrayC2Ev @506
    _ZN2sf11VertexArrayD0Ev @507
    _ZN2sf11VertexArrayD1Ev @508
    _ZN2sf11VertexArrayixEj @509
    _ZN2sf12RenderStates7DefaultE @510 DATA
    _ZN2sf12RenderStatesC1ENS_9BlendModeE @511
    _ZN2sf12RenderStatesC1ENS_9BlendModeERKNS_9TransformEPKNS_7TextureEPKNS_6ShaderE @512
    _ZN2sf12RenderStatesC1EPKNS_6ShaderE @513
    _ZN2sf12RenderStatesC1EPKNS_7TextureE @514
    _ZN2sf12RenderStatesC1ERKNS_9TransformE @515
    _ZN2sf12RenderStatesC1Ev @516
    _ZN2sf12RenderStatesC2ENS_9BlendModeE @517
    _ZN2sf12RenderStatesC2ENS_9BlendModeERKNS_9TransformEPKNS_7TextureEPKNS_6ShaderE @518
    _ZN2sf12RenderStatesC2EPKNS_6ShaderE @519
    _ZN2sf12RenderStatesC2EPKNS_7TextureE @520
    _ZN2sf12RenderStatesC2ERKNS_9TransformE @521
    _ZN2sf12RenderStatesC2Ev @522
    _ZN2sf12RenderTarget10initializeEv @523
    _ZN2sf12RenderTarget11applyShaderEPKNS_6ShaderE @524
    _ZN2sf12RenderTarget11popGLStatesEv @525
    _ZN2sf12RenderTarget12applyTextureEPKNS_7TextureE @526
    _ZN2sf12RenderTarget12pushGLStatesEv @527
    _ZN2sf12RenderTarget13resetGLStatesEv @528
    _ZN2sf12RenderTarget14applyBlendModeENS_9BlendModeE @529
    _ZN2sf12RenderTarget14applyTransformERKNS_9TransformE @530
    _ZN2sf12RenderTarget16applyCurrentViewEv @531
    _ZN2sf12RenderTarget4drawEPKNS_6VertexEjNS_13PrimitiveTypeERKNS_12RenderStatesE @532
    _ZN2sf12RenderTarget4drawERKNS_8DrawableERKNS_12RenderStatesE @533
    _ZN2sf12RenderTarget5clearERKNS_5ColorE @534
    _ZN2sf12RenderTarget7setViewERKNS_4ViewE @535
    _ZN2sf12RenderTargetC1Ev @536
    _ZN2sf12RenderTargetC2Ev @537
    _ZN2sf12RenderTargetD0Ev @538
    _ZN2sf12RenderTargetD1Ev @539
    _ZN2sf12RenderTargetD2Ev @540
    _ZN2sf12microsecondsEx @541
    _ZN2sf12millisecondsEi @542
    _ZN2sf13Transformable11setPositionERKNS_7Vector2IfEE @543
    _ZN2sf13Transformable11setPositionEff @544
    _ZN2sf13Transformable11setRotationEf @545
    _ZN2sf13Transformable4moveERKNS_7Vector2IfEE @546
    _ZN2sf13Transformable4moveEff @547
    _ZN2sf13Transformable5scaleERKNS_7Vector2IfEE @548
    _ZN2sf13Transformable5scaleEff @549
    _ZN2sf13Transformable6rotateEf @550
    _ZN2sf13Transformable8setScaleERKNS_7Vector2IfEE @551
    _ZN2sf13Transformable8setScaleEff @552
    _ZN2sf13Transformable9setOriginERKNS_7Vector2IfEE @553
    _ZN2sf13Transformable9setOriginEff @554
    _ZN2sf13TransformableC1Ev @555
    _ZN2sf13TransformableC2Ev @556
    _ZN2sf13TransformableD0Ev @557
    _ZN2sf13TransformableD1Ev @558
    _ZN2sf13TransformableD2Ev @559
    _ZN2sf14RectangleShape7setSizeERKNS_7Vector2IfEE @560
    _ZN2sf14RectangleShapeC1ERKNS_7Vector2IfEE @561
    _ZN2sf14RectangleShapeC2ERKNS_7Vector2IfEE @562
    _ZN2sf14RectangleShapeD0Ev @563
    _ZN2sf14RectangleShapeD1Ev @564
    _ZN2sf3UtfILj32EE8fromWideIN9__gnu_cxx17__normal_iteratorIPKwSbIwSt11char_traitsIwESaIwEEEESt20back_insert_iteratorISbIjS7_IjESaIjEEEEET0_T_SI_SH_ @565
    _ZN2sf3UtfILj32EE8fromWideIPKwSt20back_insert_iteratorISbIjSt11char_traitsIjESaIjEEEEET0_T_SC_SB_ @566
    _ZN2sf3errEv @567
    _ZN2sf4Font12loadFromFileERKSs @568
    _ZN2sf4Font14loadFromMemoryEPKvj @569
    _ZN2sf4Font14loadFromStreamERNS_11InputStreamE @570
    _ZN2sf4Font4PageC1Ev @571
    _ZN2sf4Font4PageC2Ev @572
    _ZN2sf4Font4PageD1Ev @573
    _ZN2sf4Font7cleanupEv @574
    _ZN2sf4FontC1ERKS0_ @575
    _ZN2sf4FontC1Ev @576
    _ZN2sf4FontC2ERKS0_ @577
    _ZN2sf4FontC2Ev @578
    _ZN2sf4FontD1Ev @579
    _ZN2sf4FontD2Ev @580
    _ZN2sf4FontaSERKS0_ @581
    _ZN2sf4LockC1ERNS_5MutexE @582
    _ZN2sf4LockC2ERNS_5MutexE @583
    _ZN2sf4LockD1Ev @584
    _ZN2sf4LockD2Ev @585
    _ZN2sf4Text14updateGeometryEv @586
    _ZN2sf4Text16setCharacterSizeEj @587
    _ZN2sf4Text7setFontERKNS_4FontE @588
    _ZN2sf4Text8setColorERKNS_5ColorE @589
    _ZN2sf4Text8setStyleEj @590
    _ZN2sf4Text9setStringERKNS_6StringE @591
    _ZN2sf4TextC1ERKNS_6StringERKNS_4FontEj @592
    _ZN2sf4TextC1Ev @593
    _ZN2sf4TextC2ERKNS_6StringERKNS_4FontEj @594
    _ZN2sf4TextC2Ev @595
    _ZN2sf4TextD0Ev @596
    _ZN2sf4TextD1Ev @597
    _ZN2sf4Time4ZeroE @598 DATA
    _ZN2sf4TimeC1Ev @599
    _ZN2sf4TimeC1Ex @600
    _ZN2sf4TimeC2Ev @601
    _ZN2sf4TimeC2Ex @602
    _ZN2sf4View11setRotationEf @603
    _ZN2sf4View11setViewportERKNS_4RectIfEE @604
    _ZN2sf4View4moveERKNS_7Vector2IfEE @605
    _ZN2sf4View4moveEff @606
    _ZN2sf4View4zoomEf @607
    _ZN2sf4View5resetERKNS_4RectIfEE @608
    _ZN2sf4View6rotateEf @609
    _ZN2sf4View7setSizeERKNS_7Vector2IfEE @610
    _ZN2sf4View7setSizeEff @611
    _ZN2sf4View9setCenterERKNS_7Vector2IfEE @612
    _ZN2sf4View9setCenterEff @613
    _ZN2sf4ViewC1ERKNS_4RectIfEE @614
    _ZN2sf4ViewC1ERKNS_7Vector2IfEES4_ @615
    _ZN2sf4ViewC1Ev @616
    _ZN2sf4ViewC2ERKNS_4RectIfEE @617
    _ZN2sf4ViewC2ERKNS_7Vector2IfEES4_ @618
    _ZN2sf4ViewC2Ev @619
    _ZN2sf4priv10ThreadFuncD0Ev @620
    _ZN2sf4priv10ThreadFuncD1Ev @621
    _ZN2sf4priv10ThreadImpl10entryPointEPv@4 @622
    _ZN2sf4priv10ThreadImpl4waitEv @623
    _ZN2sf4priv10ThreadImpl9terminateEv @624
    _ZN2sf4priv10ThreadImplC1EPNS_6ThreadE @625
    _ZN2sf4priv10ThreadImplC2EPNS_6ThreadE @626
    _ZN2sf4priv10ThreadImplD1Ev @627
    _ZN2sf4priv10ThreadImplD2Ev @628
    _ZN2sf4priv10WglContext11makeCurrentEv @629
    _ZN2sf4priv10WglContext13createContextEPS1_jRKNS_15ContextSettingsE @630
    _ZN2sf4priv10WglContext22setVerticalSyncEnabledEb @631
    _ZN2sf4priv10WglContext7displayEv @632
    _ZN2sf4priv10WglContextC1EPS1_ @633
    _ZN2sf4priv10WglContextC1EPS1_RKNS_15ContextSettingsEPKNS0_10WindowImplEj @634
    _ZN2sf4priv10WglContextC1EPS1_RKNS_15ContextSettingsEjj @635
    _ZN2sf4priv10WglContextC2EPS1_ @636
    _ZN2sf4priv10WglContextC2EPS1_RKNS_15ContextSettingsEPKNS0_10WindowImplEj @637
    _ZN2sf4priv10WglContextC2EPS1_RKNS_15ContextSettingsEjj @638
    _ZN2sf4priv10WglContextD0Ev @639
    _ZN2sf4priv10WglContextD1Ev @640
    _ZN2sf4priv10WglContextD2Ev @641
    _ZN2sf4priv10WindowImpl20setJoystickThresholdEf @642
    _ZN2sf4priv10WindowImpl21processJoystickEventsEv @643
    _ZN2sf4priv10WindowImpl6createENS_9VideoModeERKNS_6StringEjRKNS_15ContextSettingsE @644
    _ZN2sf4priv10WindowImpl6createEP6HWND__ @645
    _ZN2sf4priv10WindowImpl8popEventERNS_5EventEb @646
    _ZN2sf4priv10WindowImpl9pushEventERKNS_5EventE @647
    _ZN2sf4priv10WindowImplC1Ev @648
    _ZN2sf4priv10WindowImplC2Ev @649
    _ZN2sf4priv10WindowImplD0Ev @650
    _ZN2sf4priv10WindowImplD1Ev @651
    _ZN2sf4priv10WindowImplD2Ev @652
    _ZN2sf4priv11AudioDevice20isExtensionSupportedERKSs @653
    _ZN2sf4priv11AudioDevice25getFormatFromChannelCountEj @654
    _ZN2sf4priv11AudioDeviceC1Ev @655
    _ZN2sf4priv11AudioDeviceC2Ev @656
    _ZN2sf4priv11AudioDeviceD1Ev @657
    _ZN2sf4priv11AudioDeviceD2Ev @658
    _ZN2sf4priv11ImageLoader11getInstanceEv @659
    _ZN2sf4priv11ImageLoader15saveImageToFileERKSsRKSt6vectorIhSaIhEERKNS_7Vector2IjEE @660
    _ZN2sf4priv11ImageLoader17loadImageFromFileERKSsRSt6vectorIhSaIhEERNS_7Vector2IjEE @661
    _ZN2sf4priv11ImageLoader19loadImageFromMemoryEPKvjRSt6vectorIhSaIhEERNS_7Vector2IjEE @662
    _ZN2sf4priv11ImageLoader19loadImageFromStreamERNS_11InputStreamERSt6vectorIhSaIhEERNS_7Vector2IjEE @663
    _ZN2sf4priv11ImageLoader8writeJpgERKSsRKSt6vectorIhSaIhEEjj @664
    _ZN2sf4priv11ImageLoaderC1Ev @665
    _ZN2sf4priv11ImageLoaderC2Ev @666
    _ZN2sf4priv11ImageLoaderD1Ev @667
    _ZN2sf4priv11ImageLoaderD2Ev @668
    _ZN2sf4priv12JoystickImpl10initializeEv @669
    _ZN2sf4priv12JoystickImpl11isConnectedEj @670
    _ZN2sf4priv12JoystickImpl4openEj @671
    _ZN2sf4priv12JoystickImpl5closeEv @672
    _ZN2sf4priv12JoystickImpl6updateEv @673
    _ZN2sf4priv12JoystickImpl7cleanupEv @674
    _ZN2sf4priv12TextureSaverC1Ev @675
    _ZN2sf4priv12TextureSaverC2Ev @676
    _ZN2sf4priv12TextureSaverD1Ev @677
    _ZN2sf4priv12TextureSaverD2Ev @678
    _ZN2sf4priv12alCheckErrorERKSsj @679
    _ZN2sf4priv12ensureALInitEv @680
    _ZN2sf4priv12glCheckErrorEPKcj @681
    _ZN2sf4priv13VideoModeImpl14getDesktopModeEv @682
    _ZN2sf4priv13VideoModeImpl18getFullscreenModesEv @683
    _ZN2sf4priv14ensureGlewInitEv @684
    _ZN2sf4priv15JoystickManager11getInstanceEv @685
    _ZN2sf4priv15JoystickManager6updateEv @686
    _ZN2sf4priv15JoystickManagerC1Ev @687
    _ZN2sf4priv15JoystickManagerC2Ev @688
    _ZN2sf4priv15JoystickManagerD1Ev @689
    _ZN2sf4priv15JoystickManagerD2Ev @690
    _ZN2sf4priv15ThreadLocalImpl8setValueEPv @691
    _ZN2sf4priv15ThreadLocalImplC1Ev @692
    _ZN2sf4priv15ThreadLocalImplC2Ev @693
    _ZN2sf4priv15ThreadLocalImplD1Ev @694
    _ZN2sf4priv15ThreadLocalImplD2Ev @695
    _ZN2sf4priv15WindowImplWin3210setVisibleEb @696
    _ZN2sf4priv15WindowImplWin3211setPositionERKNS_7Vector2IiEE @697
    _ZN2sf4priv15WindowImplWin3212processEventEjjl @698
    _ZN2sf4priv15WindowImplWin3213globalOnEventEP6HWND__jjl@16 @699
    _ZN2sf4priv15WindowImplWin3213processEventsEv @700
    _ZN2sf4priv15WindowImplWin3217hasUnicodeSupportEv @701
    _ZN2sf4priv15WindowImplWin3218switchToFullscreenERKNS_9VideoModeE @702
    _ZN2sf4priv15WindowImplWin3218virtualKeyCodeToSFEjl @703
    _ZN2sf4priv15WindowImplWin3219registerWindowClassEv @704
    _ZN2sf4priv15WindowImplWin3219setKeyRepeatEnabledEb @705
    _ZN2sf4priv15WindowImplWin3221setMouseCursorVisibleEb @706
    _ZN2sf4priv15WindowImplWin327cleanupEv @707
    _ZN2sf4priv15WindowImplWin327setIconEjjPKh @708
    _ZN2sf4priv15WindowImplWin327setSizeERKNS_7Vector2IjEE @709
    _ZN2sf4priv15WindowImplWin328setTitleERKNS_6StringE @710
    _ZN2sf4priv15WindowImplWin32C1ENS_9VideoModeERKNS_6StringEjRKNS_15ContextSettingsE @711
    _ZN2sf4priv15WindowImplWin32C1EP6HWND__ @712
    _ZN2sf4priv15WindowImplWin32C2ENS_9VideoModeERKNS_6StringEjRKNS_15ContextSettingsE @713
    _ZN2sf4priv15WindowImplWin32C2EP6HWND__ @714
    _ZN2sf4priv15WindowImplWin32D0Ev @715
    _ZN2sf4priv15WindowImplWin32D1Ev @716
    _ZN2sf4priv15WindowImplWin32D2Ev @717
    _ZN2sf4priv16ThreadMemberFuncINS_11SoundStreamEE3runEv @718
    _ZN2sf4priv16ThreadMemberFuncINS_11SoundStreamEED0Ev @719
    _ZN2sf4priv16ThreadMemberFuncINS_11SoundStreamEED1Ev @720
    _ZN2sf4priv9ClockImpl14getCurrentTimeEv @721
    _ZN2sf4priv9GlContext10globalInitEv @722
    _ZN2sf4priv9GlContext10initializeEv @723
    _ZN2sf4priv9GlContext13ensureContextEv @724
    _ZN2sf4priv9GlContext13globalCleanupEv @725
    _ZN2sf4priv9GlContext14evaluateFormatEjRKNS_15ContextSettingsEiiii @726
    _ZN2sf4priv9GlContext6createERKNS_15ContextSettingsEPKNS0_10WindowImplEj @727
    _ZN2sf4priv9GlContext6createERKNS_15ContextSettingsEjj @728
    _ZN2sf4priv9GlContext6createEv @729
    _ZN2sf4priv9GlContext9setActiveEb @730
    _ZN2sf4priv9GlContextC1Ev @731
    _ZN2sf4priv9GlContextC2Ev @732
    _ZN2sf4priv9GlContextD0Ev @733
    _ZN2sf4priv9GlContextD1Ev @734
    _ZN2sf4priv9GlContextD2Ev @735
    _ZN2sf4priv9MutexImpl4lockEv @736
    _ZN2sf4priv9MutexImpl6unlockEv @737
    _ZN2sf4priv9MutexImplC1Ev @738
    _ZN2sf4priv9MutexImplC2Ev @739
    _ZN2sf4priv9MutexImplD1Ev @740
    _ZN2sf4priv9MutexImplD2Ev @741
    _ZN2sf4priv9SoundFile10initializeE7SF_INFO @742
    _ZN2sf4priv9SoundFile21getFormatFromFilenameERKSs @743
    _ZN2sf4priv9SoundFile4readEPsj @744
    _ZN2sf4priv9SoundFile4seekENS_4TimeE @745
    _ZN2sf4priv9SoundFile5writeEPKsj @746
    _ZN2sf4priv9SoundFile6Memory4readEPvxS3_ @747
    _ZN2sf4priv9SoundFile6Memory4seekExiPv @748
    _ZN2sf4priv9SoundFile6Memory4tellEPv @749
    _ZN2sf4priv9SoundFile6Memory9getLengthEPv @750
    _ZN2sf4priv9SoundFile6Stream4readEPvxS3_ @751
    _ZN2sf4priv9SoundFile6Stream4seekExiPv @752
    _ZN2sf4priv9SoundFile6Stream4tellEPv @753
    _ZN2sf4priv9SoundFile6Stream9getLengthEPv @754
    _ZN2sf4priv9SoundFile8openReadEPKvj @755
    _ZN2sf4priv9SoundFile8openReadERKSs @756
    _ZN2sf4priv9SoundFile8openReadERNS_11InputStreamE @757
    _ZN2sf4priv9SoundFile9openWriteERKSsjj @758
    _ZN2sf4priv9SoundFileC1Ev @759
    _ZN2sf4priv9SoundFileC2Ev @760
    _ZN2sf4priv9SoundFileD1Ev @761
    _ZN2sf4priv9SoundFileD2Ev @762
    _ZN2sf4priv9sleepImplENS_4TimeE @763
    _ZN2sf5Clock7restartEv @764
    _ZN2sf5ClockC1Ev @765
    _ZN2sf5ClockC2Ev @766
    _ZN2sf5Color11TransparentE @767 DATA
    _ZN2sf5Color3RedE @768 DATA
    _ZN2sf5Color4BlueE @769 DATA
    _ZN2sf5Color4CyanE @770 DATA
    _ZN2sf5Color5BlackE @771 DATA
    _ZN2sf5Color5GreenE @772 DATA
    _ZN2sf5Color5WhiteE @773 DATA
    _ZN2sf5Color6YellowE @774 DATA
    _ZN2sf5Color7MagentaE @775 DATA
    _ZN2sf5ColorC1Ehhhh @776
    _ZN2sf5ColorC1Ev @777
    _ZN2sf5ColorC2Ehhhh @778
    _ZN2sf5ColorC2Ev @779
    _ZN2sf5Image12loadFromFileERKSs @780
    _ZN2sf5Image14flipVerticallyEv @781
    _ZN2sf5Image14loadFromMemoryEPKvj @782
    _ZN2sf5Image14loadFromStreamERNS_11InputStreamE @783
    _ZN2sf5Image16flipHorizontallyEv @784
    _ZN2sf5Image19createMaskFromColorERKNS_5ColorEh @785
    _ZN2sf5Image4copyERKS0_jjRKNS_4RectIiEEb @786
    _ZN2sf5Image6createEjjPKh @787
    _ZN2sf5Image6createEjjRKNS_5ColorE @788
    _ZN2sf5Image8setPixelEjjRKNS_5ColorE @789
    _ZN2sf5ImageC1Ev @790
    _ZN2sf5ImageC2Ev @791
    _ZN2sf5ImageD1Ev @792
    _ZN2sf5Music10initializeEv @793
    _ZN2sf5Music12openFromFileERKSs @794
    _ZN2sf5Music14openFromMemoryEPKvj @795
    _ZN2sf5Music14openFromStreamERNS_11InputStreamE @796
    _ZN2sf5Music6onSeekENS_4TimeE @797
    _ZN2sf5Music9onGetDataERNS_11SoundStream5ChunkE @798
    _ZN2sf5MusicC1Ev @799
    _ZN2sf5MusicC2Ev @800
    _ZN2sf5MusicD0Ev @801
    _ZN2sf5MusicD1Ev @802
    _ZN2sf5MusicD2Ev @803
    _ZN2sf5Mutex4lockEv @804
    _ZN2sf5Mutex6unlockEv @805
    _ZN2sf5MutexC1Ev @806
    _ZN2sf5MutexC2Ev @807
    _ZN2sf5MutexD1Ev @808
    _ZN2sf5MutexD2Ev @809
    _ZN2sf5Shape10setTextureEPKNS_7TextureEb @810
    _ZN2sf5Shape12setFillColorERKNS_5ColorE @811
    _ZN2sf5Shape13updateOutlineEv @812
    _ZN2sf5Shape14setTextureRectERKNS_4RectIiEE @813
    _ZN2sf5Shape15setOutlineColorERKNS_5ColorE @814
    _ZN2sf5Shape15updateTexCoordsEv @815
    _ZN2sf5Shape16updateFillColorsEv @816
    _ZN2sf5Shape19setOutlineThicknessEf @817
    _ZN2sf5Shape19updateOutlineColorsEv @818
    _ZN2sf5Shape6updateEv @819
    _ZN2sf5ShapeC1Ev @820
    _ZN2sf5ShapeC2Ev @821
    _ZN2sf5ShapeD0Ev @822
    _ZN2sf5ShapeD1Ev @823
    _ZN2sf5ShapeD2Ev @824
    _ZN2sf5Sound11resetBufferEv @825
    _ZN2sf5Sound16setPlayingOffsetENS_4TimeE @826
    _ZN2sf5Sound4playEv @827
    _ZN2sf5Sound4stopEv @828
    _ZN2sf5Sound5pauseEv @829
    _ZN2sf5Sound7setLoopEb @830
    _ZN2sf5Sound9setBufferERKNS_11SoundBufferE @831
    _ZN2sf5SoundC1ERKNS_11SoundBufferE @832
    _ZN2sf5SoundC1ERKS0_ @833
    _ZN2sf5SoundC1Ev @834
    _ZN2sf5SoundC2ERKNS_11SoundBufferE @835
    _ZN2sf5SoundC2ERKS0_ @836
    _ZN2sf5SoundC2Ev @837
    _ZN2sf5SoundD0Ev @838
    _ZN2sf5SoundD1Ev @839
    _ZN2sf5SoundD2Ev @840
    _ZN2sf5SoundaSERKS0_ @841
    _ZN2sf5sleepENS_4TimeE @842
    _ZN2sf6Shader11isAvailableEv @843
    _ZN2sf6Shader12loadFromFileERKSsNS0_4TypeE @844
    _ZN2sf6Shader12loadFromFileERKSsS2_ @845
    _ZN2sf6Shader12setParameterERKSsNS0_18CurrentTextureTypeE @846
    _ZN2sf6Shader12setParameterERKSsRKNS_5ColorE @847
    _ZN2sf6Shader12setParameterERKSsRKNS_7TextureE @848
    _ZN2sf6Shader12setParameterERKSsRKNS_7Vector2IfEE @849
    _ZN2sf6Shader12setParameterERKSsRKNS_7Vector3IfEE @850
    _ZN2sf6Shader12setParameterERKSsRKNS_9TransformE @851
    _ZN2sf6Shader12setParameterERKSsf @852
    _ZN2sf6Shader12setParameterERKSsff @853
    _ZN2sf6Shader12setParameterERKSsfff @854
    _ZN2sf6Shader12setParameterERKSsffff @855
    _ZN2sf6Shader14CurrentTextureE @856 DATA
    _ZN2sf6Shader14loadFromMemoryERKSsNS0_4TypeE @857
    _ZN2sf6Shader14loadFromMemoryERKSsS2_ @858
    _ZN2sf6Shader14loadFromStreamERNS_11InputStreamENS0_4TypeE @859
    _ZN2sf6Shader14loadFromStreamERNS_11InputStreamES2_ @860
    _ZN2sf6Shader16getParamLocationERKSs @861
    _ZN2sf6Shader4bindEPKS0_ @862
    _ZN2sf6Shader7compileEPKcS2_ @863
    _ZN2sf6ShaderC1Ev @864
    _ZN2sf6ShaderC2Ev @865
    _ZN2sf6ShaderD1Ev @866
    _ZN2sf6ShaderD2Ev @867
    _ZN2sf6String10InvalidPosE @868 DATA
    _ZN2sf6String3endEv @869
    _ZN2sf6String5beginEv @870
    _ZN2sf6String5clearEv @871
    _ZN2sf6String5eraseEjj @872
    _ZN2sf6String6insertEjRKS0_ @873
    _ZN2sf6StringC1EPKcRKSt6locale @874
    _ZN2sf6StringC1EPKj @875
    _ZN2sf6StringC1EPKw @876
    _ZN2sf6StringC1ERKS0_ @877
    _ZN2sf6StringC1ERKSbIjSt11char_traitsIjESaIjEE @878
    _ZN2sf6StringC1ERKSbIwSt11char_traitsIwESaIwEE @879
    _ZN2sf6StringC1ERKSsRKSt6locale @880
    _ZN2sf6StringC1EcRKSt6locale @881
    _ZN2sf6StringC1Ej @882
    _ZN2sf6StringC1Ev @883
    _ZN2sf6StringC1Ew @884
    _ZN2sf6StringC2EPKcRKSt6locale @885
    _ZN2sf6StringC2EPKj @886
    _ZN2sf6StringC2EPKw @887
    _ZN2sf6StringC2ERKS0_ @888
    _ZN2sf6StringC2ERKSbIjSt11char_traitsIjESaIjEE @889
    _ZN2sf6StringC2ERKSbIwSt11char_traitsIwESaIwEE @890
    _ZN2sf6StringC2ERKSsRKSt6locale @891
    _ZN2sf6StringC2EcRKSt6locale @892
    _ZN2sf6StringC2Ej @893
    _ZN2sf6StringC2Ev @894
    _ZN2sf6StringC2Ew @895
    _ZN2sf6StringD1Ev @896
    _ZN2sf6StringaSERKS0_ @897
    _ZN2sf6StringixEj @898
    _ZN2sf6StringpLERKS0_ @899
    _ZN2sf6Thread3runEv @900
    _ZN2sf6Thread4waitEv @901
    _ZN2sf6Thread6launchEv @902
    _ZN2sf6Thread9terminateEv @903
    _ZN2sf6ThreadD1Ev @904
    _ZN2sf6ThreadD2Ev @905
    _ZN2sf6VertexC1ERKNS_7Vector2IfEE @906
    _ZN2sf6VertexC1ERKNS_7Vector2IfEERKNS_5ColorE @907
    _ZN2sf6VertexC1ERKNS_7Vector2IfEERKNS_5ColorES4_ @908
    _ZN2sf6VertexC1ERKNS_7Vector2IfEES4_ @909
    _ZN2sf6VertexC1Ev @910
    _ZN2sf6VertexC2ERKNS_7Vector2IfEE @911
    _ZN2sf6VertexC2ERKNS_7Vector2IfEERKNS_5ColorE @912
    _ZN2sf6VertexC2ERKNS_7Vector2IfEERKNS_5ColorES4_ @913
    _ZN2sf6VertexC2ERKNS_7Vector2IfEES4_ @914
    _ZN2sf6VertexC2Ev @915
    _ZN2sf6Window10initializeEv @916
    _ZN2sf6Window10setVisibleEb @917
    _ZN2sf6Window11filterEventERKNS_5EventE @918
    _ZN2sf6Window11setPositionERKNS_7Vector2IiEE @919
    _ZN2sf6Window17setFramerateLimitEj @920
    _ZN2sf6Window19setKeyRepeatEnabledEb @921
    _ZN2sf6Window20setJoystickThresholdEf @922
    _ZN2sf6Window21setMouseCursorVisibleEb @923
    _ZN2sf6Window22setVerticalSyncEnabledEb @924
    _ZN2sf6Window5closeEv @925
    _ZN2sf6Window6createENS_9VideoModeERKNS_6StringEjRKNS_15ContextSettingsE @926
    _ZN2sf6Window6createEP6HWND__RKNS_15ContextSettingsE @927
    _ZN2sf6Window7displayEv @928
    _ZN2sf6Window7setIconEjjPKh @929
    _ZN2sf6Window7setSizeENS_7Vector2IjEE @930
    _ZN2sf6Window8onCreateEv @931
    _ZN2sf6Window8onResizeEv @932
    _ZN2sf6Window8setTitleERKNS_6StringE @933
    _ZN2sf6Window9pollEventERNS_5EventE @934
    _ZN2sf6Window9waitEventERNS_5EventE @935
    _ZN2sf6WindowC1ENS_9VideoModeERKNS_6StringEjRKNS_15ContextSettingsE @936
    _ZN2sf6WindowC1EP6HWND__RKNS_15ContextSettingsE @937
    _ZN2sf6WindowC1Ev @938
    _ZN2sf6WindowC2ENS_9VideoModeERKNS_6StringEjRKNS_15ContextSettingsE @939
    _ZN2sf6WindowC2EP6HWND__RKNS_15ContextSettingsE @940
    _ZN2sf6WindowC2Ev @941
    _ZN2sf6WindowD0Ev @942
    _ZN2sf6WindowD1Ev @943
    _ZN2sf6WindowD2Ev @944
    _ZN2sf7Texture11setRepeatedEb @945
    _ZN2sf7Texture12getValidSizeEj @946
    _ZN2sf7Texture12loadFromFileERKSsRKNS_4RectIiEE @947
    _ZN2sf7Texture13loadFromImageERKNS_5ImageERKNS_4RectIiEE @948
    _ZN2sf7Texture14getMaximumSizeEv @949
    _ZN2sf7Texture14loadFromMemoryEPKvjRKNS_4RectIiEE @950
    _ZN2sf7Texture14loadFromStreamERNS_11InputStreamERKNS_4RectIiEE @951
    _ZN2sf7Texture4bindEPKS0_NS0_14CoordinateTypeE @952
    _ZN2sf7Texture6createEjj @953
    _ZN2sf7Texture6updateEPKh @954
    _ZN2sf7Texture6updateEPKhjjjj @955
    _ZN2sf7Texture6updateERKNS_5ImageE @956
    _ZN2sf7Texture6updateERKNS_5ImageEjj @957
    _ZN2sf7Texture6updateERKNS_6WindowE @958
    _ZN2sf7Texture6updateERKNS_6WindowEjj @959
    _ZN2sf7Texture9setSmoothEb @960
    _ZN2sf7TextureC1ERKS0_ @961
    _ZN2sf7TextureC1Ev @962
    _ZN2sf7TextureC2ERKS0_ @963
    _ZN2sf7TextureC2Ev @964
    _ZN2sf7TextureD1Ev @965
    _ZN2sf7TextureD2Ev @966
    _ZN2sf7TextureaSERKS0_ @967
    _ZN2sf7secondsEf @968
    _ZN2sf8DrawableD0Ev @969
    _ZN2sf8DrawableD1Ev @970
    _ZN2sf9Transform5scaleERKNS_7Vector2IfEE @971
    _ZN2sf9Transform5scaleERKNS_7Vector2IfEES4_ @972
    _ZN2sf9Transform5scaleEff @973
    _ZN2sf9Transform5scaleEffff @974
    _ZN2sf9Transform6rotateEf @975
    _ZN2sf9Transform6rotateEfRKNS_7Vector2IfEE @976
    _ZN2sf9Transform6rotateEfff @977
    _ZN2sf9Transform7combineERKS0_ @978
    _ZN2sf9Transform8IdentityE @979 DATA
    _ZN2sf9Transform9translateERKNS_7Vector2IfEE @980
    _ZN2sf9Transform9translateEff @981
    _ZN2sf9TransformC1Efffffffff @982
    _ZN2sf9TransformC1Ev @983
    _ZN2sf9TransformC2Efffffffff @984
    _ZN2sf9TransformC2Ev @985
    _ZN2sf9VideoMode14getDesktopModeEv @986
    _ZN2sf9VideoMode18getFullscreenModesEv @987
    _ZN2sf9VideoModeC1Ejjj @988
    _ZN2sf9VideoModeC1Ev @989
    _ZN2sf9VideoModeC2Ejjj @990
    _ZN2sf9VideoModeC2Ev @991
    _ZN2sfdVERNS_4TimeEf @992
    _ZN2sfdVERNS_4TimeEx @993
    _ZN2sfdvENS_4TimeEf @994
    _ZN2sfdvENS_4TimeEx @995
    _ZN2sfeqENS_4TimeES0_ @996
    _ZN2sfeqERKNS_5ColorES2_ @997
    _ZN2sfeqERKNS_6StringES2_ @998
    _ZN2sfeqERKNS_9VideoModeES2_ @999
    _ZN2sfgeENS_4TimeES0_ @1000
    _ZN2sfgeERKNS_6StringES2_ @1001
    _ZN2sfgeERKNS_9VideoModeES2_ @1002
    _ZN2sfgtENS_4TimeES0_ @1003
    _ZN2sfgtERKNS_6StringES2_ @1004
    _ZN2sfgtERKNS_9VideoModeES2_ @1005
    _ZN2sfleENS_4TimeES0_ @1006
    _ZN2sfleERKNS_6StringES2_ @1007
    _ZN2sfleERKNS_9VideoModeES2_ @1008
    _ZN2sfltENS_4TimeES0_ @1009
    _ZN2sfltERKNS_6StringES2_ @1010
    _ZN2sfltERKNS_9VideoModeES2_ @1011
    _ZN2sfmIERNS_4TimeES0_ @1012
    _ZN2sfmLERNS_4TimeEf @1013
    _ZN2sfmLERNS_4TimeEx @1014
    _ZN2sfmLERNS_5ColorERKS0_ @1015
    _ZN2sfmLERNS_9TransformERKS0_ @1016
    _ZN2sfmiENS_4TimeES0_ @1017
    _ZN2sfmlENS_4TimeEf @1018
    _ZN2sfmlENS_4TimeEx @1019
    _ZN2sfmlERKNS_5ColorES2_ @1020
    _ZN2sfmlERKNS_9TransformERKNS_7Vector2IfEE @1021
    _ZN2sfmlERKNS_9TransformES2_ @1022
    _ZN2sfmlEfNS_4TimeE @1023
    _ZN2sfmlExNS_4TimeE @1024
    _ZN2sfneENS_4TimeES0_ @1025
    _ZN2sfneERKNS_5ColorES2_ @1026
    _ZN2sfneERKNS_6StringES2_ @1027
    _ZN2sfneERKNS_9VideoModeES2_ @1028
    _ZN2sfngENS_4TimeE @1029
    _ZN2sfpLERNS_4TimeES0_ @1030
    _ZN2sfpLERNS_5ColorERKS0_ @1031
    _ZN2sfplENS_4TimeES0_ @1032
    _ZN2sfplERKNS_5ColorES2_ @1033
    _ZN2sfplERKNS_6StringES2_ @1034
    _ZN4Json10FastWriter10writeValueERKNS_5ValueE @1035
    _ZN4Json10FastWriter23enableYAMLCompatibilityEv @1036
    _ZN4Json10FastWriter5writeERKNS_5ValueE @1037
    _ZN4Json10FastWriterC1Ev @1038
    _ZN4Json10FastWriterC2Ev @1039
    _ZN4Json10FastWriterD0Ev @1040
    _ZN4Json10FastWriterD1Ev @1041
    _ZN4Json12PathArgumentC1EPKc @1042
    _ZN4Json12PathArgumentC1ERKSs @1043
    _ZN4Json12PathArgumentC1Ej @1044
    _ZN4Json12PathArgumentC1Ev @1045
    _ZN4Json12PathArgumentC2EPKc @1046
    _ZN4Json12PathArgumentC2ERKSs @1047
    _ZN4Json12PathArgumentC2Ej @1048
    _ZN4Json12PathArgumentC2Ev @1049
    _ZN4Json12PathArgumentD1Ev @1050
    _ZN4Json12StyledWriter10writeValueERKNS_5ValueE @1051
    _ZN4Json12StyledWriter11writeIndentEv @1052
    _ZN4Json12StyledWriter12normalizeEOLERKSs @1053
    _ZN4Json12StyledWriter14isMultineArrayERKNS_5ValueE @1054
    _ZN4Json12StyledWriter15writeArrayValueERKNS_5ValueE @1055
    _ZN4Json12StyledWriter15writeWithIndentERKSs @1056
    _ZN4Json12StyledWriter18hasCommentForValueERKNS_5ValueE @1057
    _ZN4Json12StyledWriter23writeCommentBeforeValueERKNS_5ValueE @1058
    _ZN4Json12StyledWriter32writeCommentAfterValueOnSameLineERKNS_5ValueE @1059
    _ZN4Json12StyledWriter5writeERKNS_5ValueE @1060
    _ZN4Json12StyledWriter6indentEv @1061
    _ZN4Json12StyledWriter8unindentEv @1062
    _ZN4Json12StyledWriter9pushValueERKSs @1063
    _ZN4Json12StyledWriterC1Ev @1064
    _ZN4Json12StyledWriterC2Ev @1065
    _ZN4Json12StyledWriterD0Ev @1066
    _ZN4Json12StyledWriterD1Ev @1067
    _ZN4Json13ValueIteratorC1ERKNS_18ValueConstIteratorE @1068
    _ZN4Json13ValueIteratorC1ERKS0_ @1069
    _ZN4Json13ValueIteratorC1ERKSt17_Rb_tree_iteratorISt4pairIKNS_5Value8CZStringES3_EE @1070
    _ZN4Json13ValueIteratorC1Ev @1071
    _ZN4Json13ValueIteratorC2ERKNS_18ValueConstIteratorE @1072
    _ZN4Json13ValueIteratorC2ERKS0_ @1073
    _ZN4Json13ValueIteratorC2ERKSt17_Rb_tree_iteratorISt4pairIKNS_5Value8CZStringES3_EE @1074
    _ZN4Json13ValueIteratorC2Ev @1075
    _ZN4Json13ValueIteratoraSERKS0_ @1076
    _ZN4Json13valueToStringEb @1077
    _ZN4Json13valueToStringEd @1078
    _ZN4Json13valueToStringEi @1079
    _ZN4Json13valueToStringEj @1080
    _ZN4Json14ValueAllocatorD0Ev @1081
    _ZN4Json14ValueAllocatorD1Ev @1082
    _ZN4Json14ValueAllocatorD2Ev @1083
    _ZN4Json17ValueIteratorBase4copyERKS0_ @1084
    _ZN4Json17ValueIteratorBase9decrementEv @1085
    _ZN4Json17ValueIteratorBase9incrementEv @1086
    _ZN4Json17ValueIteratorBaseC1ERKSt17_Rb_tree_iteratorISt4pairIKNS_5Value8CZStringES3_EE @1087
    _ZN4Json17ValueIteratorBaseC1Ev @1088
    _ZN4Json17ValueIteratorBaseC2ERKSt17_Rb_tree_iteratorISt4pairIKNS_5Value8CZStringES3_EE @1089
    _ZN4Json17ValueIteratorBaseC2Ev @1090
    _ZN4Json18StyledStreamWriter10writeValueERKNS_5ValueE @1091
    _ZN4Json18StyledStreamWriter11writeIndentEv @1092
    _ZN4Json18StyledStreamWriter12normalizeEOLERKSs @1093
    _ZN4Json18StyledStreamWriter14isMultineArrayERKNS_5ValueE @1094
    _ZN4Json18StyledStreamWriter15writeArrayValueERKNS_5ValueE @1095
    _ZN4Json18StyledStreamWriter15writeWithIndentERKSs @1096
    _ZN4Json18StyledStreamWriter18hasCommentForValueERKNS_5ValueE @1097
    _ZN4Json18StyledStreamWriter23writeCommentBeforeValueERKNS_5ValueE @1098
    _ZN4Json18StyledStreamWriter32writeCommentAfterValueOnSameLineERKNS_5ValueE @1099
    _ZN4Json18StyledStreamWriter5writeERSoRKNS_5ValueE @1100
    _ZN4Json18StyledStreamWriter6indentEv @1101
    _ZN4Json18StyledStreamWriter8unindentEv @1102
    _ZN4Json18StyledStreamWriter9pushValueERKSs @1103
    _ZN4Json18StyledStreamWriterC1ESs @1104
    _ZN4Json18StyledStreamWriterC2ESs @1105
    _ZN4Json18StyledStreamWriterD1Ev @1106
    _ZN4Json18ValueConstIteratorC1ERKSt17_Rb_tree_iteratorISt4pairIKNS_5Value8CZStringES3_EE @1107
    _ZN4Json18ValueConstIteratorC1Ev @1108
    _ZN4Json18ValueConstIteratorC2ERKSt17_Rb_tree_iteratorISt4pairIKNS_5Value8CZStringES3_EE @1109
    _ZN4Json18ValueConstIteratorC2Ev @1110
    _ZN4Json18ValueConstIteratoraSERKNS_17ValueIteratorBaseE @1111
    _ZN4Json19valueToQuotedStringEPKc @1112
    _ZN4Json21DefaultValueAllocator14makeMemberNameEPKc @1113
    _ZN4Json21DefaultValueAllocator17releaseMemberNameEPc @1114
    _ZN4Json21DefaultValueAllocator18releaseStringValueEPc @1115
    _ZN4Json21DefaultValueAllocator20duplicateStringValueEPKcj @1116
    _ZN4Json21DefaultValueAllocatorD0Ev @1117
    _ZN4Json21DefaultValueAllocatorD1Ev @1118
    _ZN4Json4Path11invalidPathERKSsi @1119
    _ZN4Json4Path12addPathInArgERKSsRKSt6vectorIPKNS_12PathArgumentESaIS6_EERN9__gnu_cxx17__normal_iteratorIPKS6_S8_EENS4_4KindE @1120
    _ZN4Json4Path8makePathERKSsRKSt6vectorIPKNS_12PathArgumentESaIS6_EE @1121
    _ZN4Json4PathC1ERKSsRKNS_12PathArgumentES5_S5_S5_S5_ @1122
    _ZN4Json4PathC2ERKSsRKNS_12PathArgumentES5_S5_S5_S5_ @1123
    _ZN4Json5Value10setCommentEPKcNS_16CommentPlacementE @1124
    _ZN4Json5Value10setCommentERKSsNS_16CommentPlacementE @1125
    _ZN4Json5Value11CommentInfo10setCommentEPKc @1126
    _ZN4Json5Value11CommentInfoC1Ev @1127
    _ZN4Json5Value11CommentInfoC2Ev @1128
    _ZN4Json5Value11CommentInfoD1Ev @1129
    _ZN4Json5Value11CommentInfoD2Ev @1130
    _ZN4Json5Value12removeMemberEPKc @1131
    _ZN4Json5Value12removeMemberERKSs @1132
    _ZN4Json5Value16resolveReferenceEPKcb @1133
    _ZN4Json5Value3endEv @1134
    _ZN4Json5Value4nullE @1135 DATA
    _ZN4Json5Value4swapERS0_ @1136
    _ZN4Json5Value5beginEv @1137
    _ZN4Json5Value5clearEv @1138
    _ZN4Json5Value6appendERKS0_ @1139
    _ZN4Json5Value6maxIntE @1140 DATA
    _ZN4Json5Value6minIntE @1141 DATA
    _ZN4Json5Value6resizeEj @1142
    _ZN4Json5Value7compareERKS0_ @1143
    _ZN4Json5Value7maxUIntE @1144 DATA
    _ZN4Json5Value8CZString4swapERS1_ @1145
    _ZN4Json5Value8CZStringC1EPKcNS1_17DuplicationPolicyE @1146
    _ZN4Json5Value8CZStringC1ERKS1_ @1147
    _ZN4Json5Value8CZStringC1Ei @1148
    _ZN4Json5Value8CZStringC2EPKcNS1_17DuplicationPolicyE @1149
    _ZN4Json5Value8CZStringC2ERKS1_ @1150
    _ZN4Json5Value8CZStringC2Ei @1151
    _ZN4Json5Value8CZStringD1Ev @1152
    _ZN4Json5Value8CZStringD2Ev @1153
    _ZN4Json5Value8CZStringaSERKS1_ @1154
    _ZN4Json5ValueC1ENS_9ValueTypeE @1155
    _ZN4Json5ValueC1EPKc @1156
    _ZN4Json5ValueC1EPKcS2_ @1157
    _ZN4Json5ValueC1ERKNS_12StaticStringE @1158
    _ZN4Json5ValueC1ERKS0_ @1159
    _ZN4Json5ValueC1ERKSs @1160
    _ZN4Json5ValueC1Eb @1161
    _ZN4Json5ValueC1Ed @1162
    _ZN4Json5ValueC1Ei @1163
    _ZN4Json5ValueC1Ej @1164
    _ZN4Json5ValueC2ENS_9ValueTypeE @1165
    _ZN4Json5ValueC2EPKc @1166
    _ZN4Json5ValueC2EPKcS2_ @1167
    _ZN4Json5ValueC2ERKNS_12StaticStringE @1168
    _ZN4Json5ValueC2ERKS0_ @1169
    _ZN4Json5ValueC2ERKSs @1170
    _ZN4Json5ValueC2Eb @1171
    _ZN4Json5ValueC2Ed @1172
    _ZN4Json5ValueC2Ei @1173
    _ZN4Json5ValueC2Ej @1174
    _ZN4Json5ValueD1Ev @1175
    _ZN4Json5ValueD2Ev @1176
    _ZN4Json5ValueaSERKS0_ @1177
    _ZN4Json5ValueixEPKc @1178
    _ZN4Json5ValueixERKNS_12StaticStringE @1179
    _ZN4Json5ValueixERKSs @1180
    _ZN4Json5ValueixEj @1181
    _ZN4Json6Reader10addCommentEPKcS2_NS_16CommentPlacementE @1182
    _ZN4Json6Reader10readNumberEv @1183
    _ZN4Json6Reader10readObjectERNS0_5TokenE @1184
    _ZN4Json6Reader10readStringEv @1185
    _ZN4Json6Reader10skipSpacesEv @1186
    _ZN4Json6Reader11expectTokenENS0_9TokenTypeERNS0_5TokenEPKc @1187
    _ZN4Json6Reader11getNextCharEv @1188
    _ZN4Json6Reader11readCommentEv @1189
    _ZN4Json6Reader12currentValueEv @1190
    _ZN4Json6Reader12decodeDoubleERNS0_5TokenE @1191
    _ZN4Json6Reader12decodeNumberERNS0_5TokenE @1192
    _ZN4Json6Reader12decodeStringERNS0_5TokenE @1193
    _ZN4Json6Reader12decodeStringERNS0_5TokenERSs @1194
    _ZN4Json6Reader16recoverFromErrorENS0_9TokenTypeE @1195
    _ZN4Json6Reader17readCStyleCommentEv @1196
    _ZN4Json6Reader17skipCommentTokensERNS0_5TokenE @1197
    _ZN4Json6Reader18addErrorAndRecoverERKSsRNS0_5TokenENS0_9TokenTypeE @1198
    _ZN4Json6Reader19readCppStyleCommentEv @1199
    _ZN4Json6Reader22decodeUnicodeCodePointERNS0_5TokenERPKcS4_Rj @1200
    _ZN4Json6Reader27decodeUnicodeEscapeSequenceERNS0_5TokenERPKcS4_Rj @1201
    _ZN4Json6Reader5matchEPKci @1202
    _ZN4Json6Reader5parseEPKcS2_RNS_5ValueEb @1203
    _ZN4Json6Reader5parseERKSsRNS_5ValueEb @1204
    _ZN4Json6Reader5parseERSiRNS_5ValueEb @1205
    _ZN4Json6Reader8addErrorERKSsRNS0_5TokenEPKc @1206
    _ZN4Json6Reader9readArrayERNS0_5TokenE @1207
    _ZN4Json6Reader9readTokenERNS0_5TokenE @1208
    _ZN4Json6Reader9readValueEv @1209
    _ZN4Json6ReaderC1ERKNS_8FeaturesE @1210
    _ZN4Json6ReaderC1Ev @1211
    _ZN4Json6ReaderC2ERKNS_8FeaturesE @1212
    _ZN4Json6ReaderC2Ev @1213
    _ZN4Json6ReaderD1Ev @1214
    _ZN4Json6WriterD0Ev @1215
    _ZN4Json6WriterD1Ev @1216
    _ZN4Json6WriterD2Ev @1217
    _ZN4Json8Features10strictModeEv @1218
    _ZN4Json8Features3allEv @1219
    _ZN4Json8FeaturesC1Ev @1220
    _ZN4Json8FeaturesC2Ev @1221
    _ZN4JsonlsERSoRKNS_5ValueE @1222
    _ZN4JsonrsERSiRNS_5ValueE @1223
    _ZN6XeCore6Common13MemoryManager10queryPrintEPNS1_5QueryEj @1224
    _ZN6XeCore6Common13MemoryManager11_removeItemEPNS1_8ListItemE @1225
    _ZN6XeCore6Common13MemoryManager11traceMemoryEj @1226
    _ZN6XeCore6Common13MemoryManager12_deleteDebugEPv @1227
    _ZN6XeCore6Common13MemoryManager12addPrintableEPNS1_9PrintableE @1228
    _ZN6XeCore6Common13MemoryManager13_addPrintableEv @1229
    _ZN6XeCore6Common13MemoryManager13findPrintableEPNS1_9PrintableE @1230
    _ZN6XeCore6Common13MemoryManager13totalByteSizeEv @1231
    _ZN6XeCore6Common13MemoryManager14debugDataPrintEPNS1_9PrintableEi @1232
    _ZN6XeCore6Common13MemoryManager15removePrintableEPNS1_9PrintableE @1233
    _ZN6XeCore6Common13MemoryManager16_removePrintableEPNS1_13ListPrintableE @1234
    _ZN6XeCore6Common13MemoryManager17debugDataPrintAllEv @1235
    _ZN6XeCore6Common13MemoryManager19___RttiClassName___E @1236 DATA
    _ZN6XeCore6Common13MemoryManager30___RttiClassDerivationTable___E @1237 DATA
    _ZN6XeCore6Common13MemoryManager3addEPvbjPKci @1238
    _ZN6XeCore6Common13MemoryManager4_newEj @1239
    _ZN6XeCore6Common13MemoryManager4findEPv @1240
    _ZN6XeCore6Common13MemoryManager6removeEPNS1_8ListItemE @1241
    _ZN6XeCore6Common13MemoryManager7_deleteEPv @1242
    _ZN6XeCore6Common13MemoryManager8_addItemEv @1243
    _ZN6XeCore6Common13MemoryManager8getCountEv @1244
    _ZN6XeCore6Common13MemoryManager8getFirstEv @1245
    _ZN6XeCore6Common13MemoryManager9Printable10getMembersEv @1246
    _ZN6XeCore6Common13MemoryManager9Printable5setupEPNS2_6MemberE @1247
    _ZN6XeCore6Common13MemoryManager9Printable7getNameEv @1248
    _ZN6XeCore6Common13MemoryManager9Printable8getCountEv @1249
    _ZN6XeCore6Common13MemoryManager9PrintableC1EPKc @1250
    _ZN6XeCore6Common13MemoryManager9PrintableC2EPKc @1251
    _ZN6XeCore6Common13MemoryManager9PrintableD1Ev @1252
    _ZN6XeCore6Common13MemoryManager9PrintableD2Ev @1253
    _ZN6XeCore6Common13MemoryManager9_newDebugEjPKci @1254
    _ZN6XeCore6Common13MemoryManagerC1Ev @1255
    _ZN6XeCore6Common13MemoryManagerC2Ev @1256
    _ZN6XeCore6Common13MemoryManagerD1Ev @1257
    _ZN6XeCore6Common13MemoryManagerD2Ev @1258
    _ZN6XeCore6Common5IRtti14getBasePointerEv @1259
    _ZN6XeCore6Common5IRtti17___RttiDerived___EjPj @1260
    _ZN6XeCore6Common5IRtti7getNameEv @1261
    _ZN6XeCore6Common5IRtti7getTypeEv @1262
    _ZN6XeCore6Common5IRttiC1EPjPKcPv @1263
    _ZN6XeCore6Common5IRttiC2EPjPKcPv @1264
    _ZN6XeCore6Common5IRttiD1Ev @1265
    _ZN6XeCore6Common5IRttiD2Ev @1266
    _ZN6XeCore6Common6BufferIhLNS0_20BufferDataCopyMethodE1EED1Ev @1267
    _ZN6XeCore6Common6Logger19___RttiClassName___E @1268 DATA
    _ZN6XeCore6Common6Logger30___RttiClassDerivationTable___E @1269 DATA
    _ZN6XeCore6Common6Logger3logEPKcz @1270
    _ZN6XeCore6Common6Logger5lognlEPKcz @1271
    _ZN6XeCore6Common6Logger5setupEPKc @1272
    _ZN6XeCore6Common6LoggerC1Ev @1273
    _ZN6XeCore6Common6LoggerC2Ev @1274
    _ZN6XeCore6Common6LoggerD1Ev @1275
    _ZN6XeCore6Common6LoggerD2Ev @1276
    _ZN6XeCore6Common6String19___RttiClassName___E @1277 DATA
    _ZN6XeCore6Common6String30___RttiClassDerivationTable___E @1278 DATA
    _ZN6XeCore6Common6String6formatEPKcz @1279
    _ZN6XeCore6Common6StringC1EPKc @1280
    _ZN6XeCore6Common6StringC1EPKcj @1281
    _ZN6XeCore6Common6StringC1ERKSs @1282
    _ZN6XeCore6Common6StringC1ERKSsjj @1283
    _ZN6XeCore6Common6StringC1Ejc @1284
    _ZN6XeCore6Common6StringC1Ev @1285
    _ZN6XeCore6Common6StringC2EPKc @1286
    _ZN6XeCore6Common6StringC2EPKcj @1287
    _ZN6XeCore6Common6StringC2ERKSs @1288
    _ZN6XeCore6Common6StringC2ERKSsjj @1289
    _ZN6XeCore6Common6StringC2Ejc @1290
    _ZN6XeCore6Common6StringC2Ev @1291
    _ZN6XeCore6Common6StringD1Ev @1292
    _ZN6XeCore6Common8PropertyIN2sf4RectIfEEN9Ptakopysk6CameraEEC1EPS6_MS6_FS4_vEMS6_FvS4_E @1293
    _ZN6XeCore6Common8PropertyIN2sf7Vector2IfEEN9Ptakopysk14SpriteRendererEEC1EPS6_MS6_FS4_vEMS6_FvS4_E @1294
    _ZN6XeCore6Common8PropertyIN2sf7Vector2IfEEN9Ptakopysk6CameraEEC1EPS6_MS6_FS4_vEMS6_FvS4_E @1295
    _ZN6XeCore6Common8PropertyIN2sf7Vector2IfEEN9Ptakopysk9TransformEEC1EPS6_MS6_FS4_vEMS6_FvS4_E @1296
    _ZN6XeCore6Common8PropertyIRSt6vectorI6b2Vec2SaIS3_EEN9Ptakopysk4BodyEEC1EPS8_MS8_FS6_vEMS8_FvS6_E @1297
    _ZN6XeCore6Common8PropertyISsN9Ptakopysk10GameObjectEEC1EPS3_MS3_FSsvEMS3_FvSsE @1298
    _ZN6XeCore6Common8PropertyISsN9Ptakopysk13RevoluteJointEEC1EPS3_MS3_FSsvEMS3_FvSsE @1299
    _ZN6XeCore6Common8PropertyIbN9Ptakopysk10GameObjectEEC1EPS3_MS3_FbvEMS3_FvbE @1300
    _ZN6XeCore6Common8PropertyIbN9Ptakopysk9ComponentEEC1EPS3_MS3_FbvEMS3_FvbE @1301
    _ZN6XeCore6Common9SingletonIN9Ptakopysk6AssetsEE10m_instanceE @1302 DATA
    _ZN6XeCore6Common9SingletonIN9Ptakopysk6AssetsEE8instanceEv @1303
    _ZN6XeCore6Common9SingletonIN9Ptakopysk7TweenerEE10m_instanceE @1304 DATA
    _ZN6XeCore6Common9SingletonIN9Ptakopysk7TweenerEE8instanceEv @1305
    _ZN6XeCore6Common9SingletonINS0_13MemoryManagerEE10m_instanceE @1306 DATA
    _ZN6XeCore6Common9SingletonINS0_13MemoryManagerEE8instanceEv @1307
    _ZN6XeCore6Common9SingletonINS0_6LoggerEE10m_instanceE @1308 DATA
    _ZN6XeCore6Common9SingletonINS0_6LoggerEE8instanceEv @1309
    _ZN6b2Body11SetMassDataEPK10b2MassData @1310
    _ZN6b2Body12SetTransformERK6b2Vec2f @1311
    _ZN6b2Body13CreateFixtureEPK12b2FixtureDef @1312
    _ZN6b2Body13CreateFixtureEPK7b2Shapef @1313
    _ZN6b2Body13ResetMassDataEv @1314
    _ZN6b2Body14DestroyFixtureEP9b2Fixture @1315
    _ZN6b2Body19SynchronizeFixturesEv @1316
    _ZN6b2Body4DumpEv @1317
    _ZN6b2Body7SetTypeE10b2BodyType @1318
    _ZN6b2Body9SetActiveEb @1319
    _ZN6b2BodyC1EPK9b2BodyDefP7b2World @1320
    _ZN6b2BodyC2EPK9b2BodyDefP7b2World @1321
    _ZN6b2BodyD1Ev @1322
    _ZN6b2BodyD2Ev @1323
    _ZN6b2Draw10ClearFlagsEj @1324
    _ZN6b2Draw11AppendFlagsEj @1325
    _ZN6b2Draw8SetFlagsEj @1326
    _ZN6b2DrawC1Ev @1327
    _ZN6b2DrawC2Ev @1328
    _ZN6b2DrawD0Ev @1329
    _ZN6b2DrawD1Ev @1330
    _ZN7b2Joint4DumpEv @1331
    _ZN7b2Joint6CreateEPK10b2JointDefP16b2BlockAllocator @1332
    _ZN7b2Joint7DestroyEPS_P16b2BlockAllocator @1333
    _ZN7b2JointC1EPK10b2JointDef @1334
    _ZN7b2JointC2EPK10b2JointDef @1335
    _ZN7b2JointD0Ev @1336
    _ZN7b2JointD1Ev @1337
    _ZN7b2ShapeD0Ev @1338
    _ZN7b2ShapeD1Ev @1339
    _ZN7b2Timer14s_invFrequencyE @1340 DATA
    _ZN7b2Timer5ResetEv @1341
    _ZN7b2TimerC1Ev @1342
    _ZN7b2TimerC2Ev @1343
    _ZN7b2World10CreateBodyEPK9b2BodyDef @1344
    _ZN7b2World11ClearForcesEv @1345
    _ZN7b2World11CreateJointEPK10b2JointDef @1346
    _ZN7b2World11DestroyBodyEP6b2Body @1347
    _ZN7b2World12DestroyJointEP7b2Joint @1348
    _ZN7b2World12SetDebugDrawEP6b2Draw @1349
    _ZN7b2World13DrawDebugDataEv @1350
    _ZN7b2World16SetAllowSleepingEb @1351
    _ZN7b2World16SetContactFilterEP15b2ContactFilter @1352
    _ZN7b2World18SetContactListenerEP17b2ContactListener @1353
    _ZN7b2World22SetDestructionListenerEP21b2DestructionListener @1354
    _ZN7b2World4DumpEv @1355
    _ZN7b2World4StepEfii @1356
    _ZN7b2World5SolveERK10b2TimeStep @1357
    _ZN7b2World8SolveTOIERK10b2TimeStep @1358
    _ZN7b2World9DrawJointEP7b2Joint @1359
    _ZN7b2World9DrawShapeEP9b2FixtureRK11b2TransformRK7b2Color @1360
    _ZN7b2WorldC1ERK6b2Vec2 @1361
    _ZN7b2WorldC2ERK6b2Vec2 @1362
    _ZN7b2WorldD1Ev @1363
    _ZN7b2WorldD2Ev @1364
    _ZN8b2Island5SolveEP9b2ProfileRK10b2TimeStepRK6b2Vec2b @1365
    _ZN8b2Island6ReportEPK27b2ContactVelocityConstraint @1366
    _ZN8b2Island8SolveTOIERK10b2TimeStepii @1367
    _ZN8b2IslandC1EiiiP16b2StackAllocatorP17b2ContactListener @1368
    _ZN8b2IslandC2EiiiP16b2StackAllocatorP17b2ContactListener @1369
    _ZN8b2IslandD1Ev @1370
    _ZN8b2IslandD2Ev @1371
    _ZN9Ptakopysk10GameObject11onDuplicateEPS0_ @1372
    _ZN9Ptakopysk10GameObject11onSerializeERKSs @1373
    _ZN9Ptakopysk10GameObject12addComponentEPNS_9ComponentE @1374
    _ZN9Ptakopysk10GameObject12hasComponentEPNS_9ComponentE @1375
    _ZN9Ptakopysk10GameObject12hasComponentEj @1376
    _ZN9Ptakopysk10GameObject13addGameObjectEPS0_ @1377
    _ZN9Ptakopysk10GameObject13getGameObjectERKSs @1378
    _ZN9Ptakopysk10GameObject13hasGameObjectEPS0_ @1379
    _ZN9Ptakopysk10GameObject13hasGameObjectERKSs @1380
    _ZN9Ptakopysk10GameObject13onDeserializeERKSsRKN4Json5ValueE @1381
    _ZN9Ptakopysk10GameObject13processAddingEv @1382
    _ZN9Ptakopysk10GameObject14getGameManagerEv @1383
    _ZN9Ptakopysk10GameObject14isWaitingToAddEPS0_ @1384
    _ZN9Ptakopysk10GameObject14onJointGoodbyeEP7b2Joint @1385
    _ZN9Ptakopysk10GameObject15processRemovingEv @1386
    _ZN9Ptakopysk10GameObject15removeComponentEPNS_9ComponentE @1387
    _ZN9Ptakopysk10GameObject15removeComponentEj @1388
    _ZN9Ptakopysk10GameObject16onFixtureGoodbyeEP9b2Fixture @1389
    _ZN9Ptakopysk10GameObject16removeGameObjectEPS0_ @1390
    _ZN9Ptakopysk10GameObject16removeGameObjectERKSs @1391
    _ZN9Ptakopysk10GameObject17isWaitingToRemoveEPS0_ @1392
    _ZN9Ptakopysk10GameObject18getGameManagerRootEv @1393
    _ZN9Ptakopysk10GameObject19___RttiClassName___E @1394 DATA
    _ZN9Ptakopysk10GameObject19removeAllComponentsEv @1395
    _ZN9Ptakopysk10GameObject20removeAllGameObjectsEv @1396
    _ZN9Ptakopysk10GameObject30___RttiClassDerivationTable___E @1397 DATA
    _ZN9Ptakopysk10GameObject5getIdEv @1398
    _ZN9Ptakopysk10GameObject5setIdESs @1399
    _ZN9Ptakopysk10GameObject6toJsonEv @1400
    _ZN9Ptakopysk10GameObject7onEventERKN2sf5EventE @1401
    _ZN9Ptakopysk10GameObject8fromJsonERKN4Json5ValueE @1402
    _ZN9Ptakopysk10GameObject8getOrderEv @1403
    _ZN9Ptakopysk10GameObject8isActiveEv @1404
    _ZN9Ptakopysk10GameObject8onCreateEv @1405
    _ZN9Ptakopysk10GameObject8onRenderEPN2sf12RenderTargetE @1406
    _ZN9Ptakopysk10GameObject8onUpdateEfRKN2sf9TransformEb @1407
    _ZN9Ptakopysk10GameObject8setOrderEi @1408
    _ZN9Ptakopysk10GameObject9duplicateEPS0_ @1409
    _ZN9Ptakopysk10GameObject9onCollideEPS0_bP9b2Contact @1410
    _ZN9Ptakopysk10GameObject9onDestroyEv @1411
    _ZN9Ptakopysk10GameObject9setActiveEb @1412
    _ZN9Ptakopysk10GameObjectC1ERKSs @1413
    _ZN9Ptakopysk10GameObjectC2ERKSs @1414
    _ZN9Ptakopysk10GameObjectD0Ev @1415
    _ZN9Ptakopysk10GameObjectD1Ev @1416
    _ZN9Ptakopysk10GameObjectD2Ev @1417
    _ZN9Ptakopysk10Serialized11deserializeERKN4Json5ValueE @1418
    _ZN9Ptakopysk10Serialized17ICustomSerializerD0Ev @1419
    _ZN9Ptakopysk10Serialized17ICustomSerializerD1Ev @1420
    _ZN9Ptakopysk10Serialized19___RttiClassName___E @1421 DATA
    _ZN9Ptakopysk10Serialized19getCustomSerializerERKSs @1422
    _ZN9Ptakopysk10Serialized19s_customSerializersE @1423 DATA
    _ZN9Ptakopysk10Serialized24registerCustomSerializerERKSsPNS0_17ICustomSerializerE @1424
    _ZN9Ptakopysk10Serialized26unregisterCustomSerializerEPNS0_17ICustomSerializerEb @1425
    _ZN9Ptakopysk10Serialized26unregisterCustomSerializerERKSsb @1426
    _ZN9Ptakopysk10Serialized30___RttiClassDerivationTable___E @1427 DATA
    _ZN9Ptakopysk10Serialized30unregisterAllCustomSerializersEb @1428
    _ZN9Ptakopysk10Serialized9serializeERN4Json5ValueE @1429
    _ZN9Ptakopysk10SerializedC1Ev @1430
    _ZN9Ptakopysk10SerializedC2Ev @1431
    _ZN9Ptakopysk10SerializedD0Ev @1432
    _ZN9Ptakopysk10SerializedD1Ev @1433
    _ZN9Ptakopysk10SerializedD2Ev @1434
    _ZN9Ptakopysk10TweenBlock11getDurationEv @1435
    _ZN9Ptakopysk10TweenBlock11setDurationEf @1436
    _ZN9Ptakopysk10TweenBlock13getPropertyIDEv @1437
    _ZN9Ptakopysk10TweenBlock3addEPNS_6ITweenE @1438
    _ZN9Ptakopysk10TweenBlock6onStopEv @1439
    _ZN9Ptakopysk10TweenBlock7getTimeEv @1440
    _ZN9Ptakopysk10TweenBlock7onStartEv @1441
    _ZN9Ptakopysk10TweenBlock7setTimeEf @1442
    _ZN9Ptakopysk10TweenBlock8getStateEv @1443
    _ZN9Ptakopysk10TweenBlock8onUpdateEf @1444
    _ZN9Ptakopysk10TweenBlockC1Ev @1445
    _ZN9Ptakopysk10TweenBlockC2Ev @1446
    _ZN9Ptakopysk10TweenBlockD0Ev @1447
    _ZN9Ptakopysk10TweenBlockD1Ev @1448
    _ZN9Ptakopysk10TweenBlockD2Ev @1449
    _ZN9Ptakopysk11GameManager10initializeEv @1450
    _ZN9Ptakopysk11GameManager11jsonToSceneERKN4Json5ValueENS0_16SceneContentTypeE @1451
    _ZN9Ptakopysk11GameManager11removeSceneENS0_16SceneContentTypeE @1452
    _ZN9Ptakopysk11GameManager11sceneToJsonENS0_16SceneContentTypeE @1453
    _ZN9Ptakopysk11GameManager13addGameObjectEPNS_10GameObjectEb @1454
    _ZN9Ptakopysk11GameManager13getGameObjectERKSsb @1455
    _ZN9Ptakopysk11GameManager13hasGameObjectEPNS_10GameObjectEb @1456
    _ZN9Ptakopysk11GameManager13hasGameObjectERKSsb @1457
    _ZN9Ptakopysk11GameManager13processAddingEv @1458
    _ZN9Ptakopysk11GameManager13processEventsERKN2sf5EventE @1459
    _ZN9Ptakopysk11GameManager13processRenderEPN2sf12RenderTargetERKNS1_9TransformE @1460
    _ZN9Ptakopysk11GameManager13processUpdateEfb @1461
    _ZN9Ptakopysk11GameManager14buildComponentERKSs @1462
    _ZN9Ptakopysk11GameManager14buildComponentEj @1463
    _ZN9Ptakopysk11GameManager14isWaitingToAddEPNS_10GameObjectE @1464
    _ZN9Ptakopysk11GameManager14processContactEbPNS_10GameObjectES2_P9b2Contact @1465
    _ZN9Ptakopysk11GameManager14processPhysicsEfii @1466
    _ZN9Ptakopysk11GameManager15gameObjectAtEndEb @1467
    _ZN9Ptakopysk11GameManager15getRenderWindowEv @1468
    _ZN9Ptakopysk11GameManager15getWorldGravityEv @1469
    _ZN9Ptakopysk11GameManager15processRemovingEv @1470
    _ZN9Ptakopysk11GameManager15setRenderWindowEPN2sf12RenderWindowE @1471
    _ZN9Ptakopysk11GameManager15setWorldGravityE6b2Vec2 @1472
    _ZN9Ptakopysk11GameManager16removeGameObjectEPNS_10GameObjectEb @1473
    _ZN9Ptakopysk11GameManager16removeGameObjectERKSsb @1474
    _ZN9Ptakopysk11GameManager17gameObjectAtBeginEb @1475
    _ZN9Ptakopysk11GameManager17gameObjectsToJsonEb @1476
    _ZN9Ptakopysk11GameManager17instantiatePrefabERKSs @1477
    _ZN9Ptakopysk11GameManager17isWaitingToRemoveEPNS_10GameObjectE @1478
    _ZN9Ptakopysk11GameManager17jsonToGameObjectsERKN4Json5ValueEb @1479
    _ZN9Ptakopysk11GameManager19___RttiClassName___E @1480 DATA
    _ZN9Ptakopysk11GameManager19processJointGoodbyeEPNS_10GameObjectEP7b2Joint @1481
    _ZN9Ptakopysk11GameManager19s_componentsFactoryE @1482 DATA
    _ZN9Ptakopysk11GameManager20removeAllGameObjectsEb @1483
    _ZN9Ptakopysk11GameManager21processFixtureGoodbyeEPNS_10GameObjectEP9b2Fixture @1484
    _ZN9Ptakopysk11GameManager24registerComponentFactoryERKSsjPFPNS_9ComponentEvE @1485
    _ZN9Ptakopysk11GameManager26unregisterComponentFactoryEPFPNS_9ComponentEvE @1486
    _ZN9Ptakopysk11GameManager26unregisterComponentFactoryERKSs @1487
    _ZN9Ptakopysk11GameManager26unregisterComponentFactoryEj @1488
    _ZN9Ptakopysk11GameManager28findComponentFactoryIdByTypeEj @1489
    _ZN9Ptakopysk11GameManager28findComponentFactoryTypeByIdERKSs @1490
    _ZN9Ptakopysk11GameManager30___RttiClassDerivationTable___E @1491 DATA
    _ZN9Ptakopysk11GameManager31findComponentFactoryBuilderByIdERKSs @1492
    _ZN9Ptakopysk11GameManager31findComponentFactoryIdByBuilderEPFPNS_9ComponentEvE @1493
    _ZN9Ptakopysk11GameManager31unregisterAllComponentFactoriesEv @1494
    _ZN9Ptakopysk11GameManager33findComponentFactoryBuilderByTypeEj @1495
    _ZN9Ptakopysk11GameManager33findComponentFactoryTypeByBuilderEPFPNS_9ComponentEvE @1496
    _ZN9Ptakopysk11GameManager7cleanupEv @1497
    _ZN9Ptakopysk11GameManager8loadJsonERKSsbj @1498
    _ZN9Ptakopysk11GameManager8saveJsonERKSsRKN4Json5ValueEbj @1499
    _ZN9Ptakopysk11GameManagerC1Ev @1500
    _ZN9Ptakopysk11GameManagerC2Ev @1501
    _ZN9Ptakopysk11GameManagerD1Ev @1502
    _ZN9Ptakopysk11GameManagerD2Ev @1503
    _ZN9Ptakopysk12TextRenderer11getMaterialEv @1504
    _ZN9Ptakopysk12TextRenderer11onDuplicateEPNS_9ComponentE @1505
    _ZN9Ptakopysk12TextRenderer11onSerializeERKSs @1506
    _ZN9Ptakopysk12TextRenderer11onTransformERKN2sf9TransformERS2_ @1507
    _ZN9Ptakopysk12TextRenderer11setMaterialERNS_14RenderMaterialE @1508
    _ZN9Ptakopysk12TextRenderer13onDeserializeERKSsRKN4Json5ValueE @1509
    _ZN9Ptakopysk12TextRenderer15getRenderStatesEv @1510
    _ZN9Ptakopysk12TextRenderer15setRenderStatesEN2sf12RenderStatesE @1511
    _ZN9Ptakopysk12TextRenderer16onBuildComponentEv @1512
    _ZN9Ptakopysk12TextRenderer19___RttiClassName___E @1513 DATA
    _ZN9Ptakopysk12TextRenderer30___RttiClassDerivationTable___E @1514 DATA
    _ZN9Ptakopysk12TextRenderer7getFontEv @1515
    _ZN9Ptakopysk12TextRenderer7getSizeEv @1516
    _ZN9Ptakopysk12TextRenderer7getTextEv @1517
    _ZN9Ptakopysk12TextRenderer7setFontEPN2sf4FontE @1518
    _ZN9Ptakopysk12TextRenderer7setSizeEj @1519
    _ZN9Ptakopysk12TextRenderer7setTextEN2sf6StringE @1520
    _ZN9Ptakopysk12TextRenderer8getColorEv @1521
    _ZN9Ptakopysk12TextRenderer8getStyleEv @1522
    _ZN9Ptakopysk12TextRenderer8onRenderEPN2sf12RenderTargetE @1523
    _ZN9Ptakopysk12TextRenderer8onUpdateEf @1524
    _ZN9Ptakopysk12TextRenderer8setColorEN2sf5ColorE @1525
    _ZN9Ptakopysk12TextRenderer8setStyleEj @1526
    _ZN9Ptakopysk12TextRendererC1Ev @1527
    _ZN9Ptakopysk12TextRendererC2Ev @1528
    _ZN9Ptakopysk12TextRendererD0Ev @1529
    _ZN9Ptakopysk12TextRendererD1Ev @1530
    _ZN9Ptakopysk12TextRendererD2Ev @1531
    _ZN9Ptakopysk13RevoluteJoint11getBindingAEv @1532
    _ZN9Ptakopysk13RevoluteJoint11getBindingBEv @1533
    _ZN9Ptakopysk13RevoluteJoint11onDuplicateEPNS_9ComponentE @1534
    _ZN9Ptakopysk13RevoluteJoint11onSerializeERKSs @1535
    _ZN9Ptakopysk13RevoluteJoint11setBindingAESs @1536
    _ZN9Ptakopysk13RevoluteJoint11setBindingBESs @1537
    _ZN9Ptakopysk13RevoluteJoint13getLowerLimitEv @1538
    _ZN9Ptakopysk13RevoluteJoint13getMotorSpeedEv @1539
    _ZN9Ptakopysk13RevoluteJoint13getUpperLimitEv @1540
    _ZN9Ptakopysk13RevoluteJoint13onDeserializeERKSsRKN4Json5ValueE @1541
    _ZN9Ptakopysk13RevoluteJoint13setLowerLimitEf @1542
    _ZN9Ptakopysk13RevoluteJoint13setMotorSpeedEf @1543
    _ZN9Ptakopysk13RevoluteJoint13setUpperLimitEf @1544
    _ZN9Ptakopysk13RevoluteJoint14getMotorTorqueEv @1545
    _ZN9Ptakopysk13RevoluteJoint14isLimitEnabledEv @1546
    _ZN9Ptakopysk13RevoluteJoint14isMotorEnabledEv @1547
    _ZN9Ptakopysk13RevoluteJoint14onJointGoodbyeEP7b2Joint @1548
    _ZN9Ptakopysk13RevoluteJoint14setMotorTorqueEf @1549
    _ZN9Ptakopysk13RevoluteJoint15getLocalAnchorAEv @1550
    _ZN9Ptakopysk13RevoluteJoint15getLocalAnchorBEv @1551
    _ZN9Ptakopysk13RevoluteJoint15setLimitEnabledEb @1552
    _ZN9Ptakopysk13RevoluteJoint15setLocalAnchorAE6b2Vec2 @1553
    _ZN9Ptakopysk13RevoluteJoint15setLocalAnchorBE6b2Vec2 @1554
    _ZN9Ptakopysk13RevoluteJoint15setMotorEnabledEb @1555
    _ZN9Ptakopysk13RevoluteJoint17getReferenceAngleEv @1556
    _ZN9Ptakopysk13RevoluteJoint17setReferenceAngleEf @1557
    _ZN9Ptakopysk13RevoluteJoint19___RttiClassName___E @1558 DATA
    _ZN9Ptakopysk13RevoluteJoint19getCollideConnectedEv @1559
    _ZN9Ptakopysk13RevoluteJoint19setCollideConnectedEb @1560
    _ZN9Ptakopysk13RevoluteJoint30___RttiClassDerivationTable___E @1561 DATA
    _ZN9Ptakopysk13RevoluteJoint8onCreateEv @1562
    _ZN9Ptakopysk13RevoluteJoint9onDestroyEv @1563
    _ZN9Ptakopysk13RevoluteJointC1Ev @1564
    _ZN9Ptakopysk13RevoluteJointC2Ev @1565
    _ZN9Ptakopysk13RevoluteJointD0Ev @1566
    _ZN9Ptakopysk13RevoluteJointD1Ev @1567
    _ZN9Ptakopysk13RevoluteJointD2Ev @1568
    _ZN9Ptakopysk13TweenSequence11getDurationEv @1569
    _ZN9Ptakopysk13TweenSequence11setDurationEf @1570
    _ZN9Ptakopysk13TweenSequence13getPropertyIDEv @1571
    _ZN9Ptakopysk13TweenSequence3addEPNS_6ITweenE @1572
    _ZN9Ptakopysk13TweenSequence6onStopEv @1573
    _ZN9Ptakopysk13TweenSequence7getTimeEv @1574
    _ZN9Ptakopysk13TweenSequence7onStartEv @1575
    _ZN9Ptakopysk13TweenSequence7setTimeEf @1576
    _ZN9Ptakopysk13TweenSequence8getStateEv @1577
    _ZN9Ptakopysk13TweenSequence8onUpdateEf @1578
    _ZN9Ptakopysk13TweenSequenceC1Ev @1579
    _ZN9Ptakopysk13TweenSequenceC2Ev @1580
    _ZN9Ptakopysk13TweenSequenceD0Ev @1581
    _ZN9Ptakopysk13TweenSequenceD1Ev @1582
    _ZN9Ptakopysk13TweenSequenceD2Ev @1583
    _ZN9Ptakopysk14EnumSerializer11deserializeEPKvRKN4Json5ValueE @1584
    _ZN9Ptakopysk14EnumSerializer5setupERKSt3mapISsiSt4lessISsESaISt4pairIKSsiEEE @1585
    _ZN9Ptakopysk14EnumSerializer9serializeEPKv @1586
    _ZN9Ptakopysk14EnumSerializerC1ERKSt3mapISsiSt4lessISsESaISt4pairIKSsiEEE @1587
    _ZN9Ptakopysk14EnumSerializerC1Ev @1588
    _ZN9Ptakopysk14EnumSerializerC2ERKSt3mapISsiSt4lessISsESaISt4pairIKSsiEEE @1589
    _ZN9Ptakopysk14EnumSerializerC2Ev @1590
    _ZN9Ptakopysk14EnumSerializerD0Ev @1591
    _ZN9Ptakopysk14EnumSerializerD1Ev @1592
    _ZN9Ptakopysk14EnumSerializerD2Ev @1593
    _ZN9Ptakopysk14RenderMaterial10getTextureERKSs @1594
    _ZN9Ptakopysk14RenderMaterial11deserializeERKN4Json5ValueE @1595
    _ZN9Ptakopysk14RenderMaterial12getTransformERKSs @1596
    _ZN9Ptakopysk14RenderMaterial19___RttiClassName___E @1597 DATA
    _ZN9Ptakopysk14RenderMaterial30___RttiClassDerivationTable___E @1598 DATA
    _ZN9Ptakopysk14RenderMaterial3setERKSsPKN2sf7TextureE @1599
    _ZN9Ptakopysk14RenderMaterial3setERKSsRKN2sf5ColorE @1600
    _ZN9Ptakopysk14RenderMaterial3setERKSsRKN2sf7Vector2IfEE @1601
    _ZN9Ptakopysk14RenderMaterial3setERKSsRKN2sf7Vector3IfEE @1602
    _ZN9Ptakopysk14RenderMaterial3setERKSsRKN2sf9TransformE @1603
    _ZN9Ptakopysk14RenderMaterial3setERKSsf @1604
    _ZN9Ptakopysk14RenderMaterial3setERKSsff @1605
    _ZN9Ptakopysk14RenderMaterial3setERKSsfff @1606
    _ZN9Ptakopysk14RenderMaterial3setERKSsffff @1607
    _ZN9Ptakopysk14RenderMaterial5applyEPN2sf6ShaderE @1608
    _ZN9Ptakopysk14RenderMaterial6getRawERKSs @1609
    _ZN9Ptakopysk14RenderMaterial7getVec2ERKSs @1610
    _ZN9Ptakopysk14RenderMaterial7getVec3ERKSs @1611
    _ZN9Ptakopysk14RenderMaterial8copyFromERS0_ @1612
    _ZN9Ptakopysk14RenderMaterial8getColorERKSs @1613
    _ZN9Ptakopysk14RenderMaterial8getFloatERKSs @1614
    _ZN9Ptakopysk14RenderMaterial9serializeEv @1615
    _ZN9Ptakopysk14RenderMaterialC1Ev @1616
    _ZN9Ptakopysk14RenderMaterialC2Ev @1617
    _ZN9Ptakopysk14RenderMaterialD1Ev @1618
    _ZN9Ptakopysk14RenderMaterialD2Ev @1619
    _ZN9Ptakopysk14SpriteRenderer10getTextureEv @1620
    _ZN9Ptakopysk14SpriteRenderer10setTextureEPN2sf7TextureE @1621
    _ZN9Ptakopysk14SpriteRenderer11getMaterialEv @1622
    _ZN9Ptakopysk14SpriteRenderer11onDuplicateEPNS_9ComponentE @1623
    _ZN9Ptakopysk14SpriteRenderer11onSerializeERKSs @1624
    _ZN9Ptakopysk14SpriteRenderer11onTransformERKN2sf9TransformERS2_ @1625
    _ZN9Ptakopysk14SpriteRenderer11setMaterialERNS_14RenderMaterialE @1626
    _ZN9Ptakopysk14SpriteRenderer13onDeserializeERKSsRKN4Json5ValueE @1627
    _ZN9Ptakopysk14SpriteRenderer15getRenderStatesEv @1628
    _ZN9Ptakopysk14SpriteRenderer15setRenderStatesEN2sf12RenderStatesE @1629
    _ZN9Ptakopysk14SpriteRenderer16getOriginPercentEv @1630
    _ZN9Ptakopysk14SpriteRenderer16onBuildComponentEv @1631
    _ZN9Ptakopysk14SpriteRenderer16setOriginPercentEN2sf7Vector2IfEE @1632
    _ZN9Ptakopysk14SpriteRenderer19___RttiClassName___E @1633 DATA
    _ZN9Ptakopysk14SpriteRenderer30___RttiClassDerivationTable___E @1634 DATA
    _ZN9Ptakopysk14SpriteRenderer7getSizeEv @1635
    _ZN9Ptakopysk14SpriteRenderer7setSizeEN2sf7Vector2IfEE @1636
    _ZN9Ptakopysk14SpriteRenderer8getColorEv @1637
    _ZN9Ptakopysk14SpriteRenderer8onRenderEPN2sf12RenderTargetE @1638
    _ZN9Ptakopysk14SpriteRenderer8onUpdateEf @1639
    _ZN9Ptakopysk14SpriteRenderer8setColorEN2sf5ColorE @1640
    _ZN9Ptakopysk14SpriteRenderer9getOriginEv @1641
    _ZN9Ptakopysk14SpriteRenderer9setOriginEN2sf7Vector2IfEE @1642
    _ZN9Ptakopysk14SpriteRendererC1Ev @1643
    _ZN9Ptakopysk14SpriteRendererC2Ev @1644
    _ZN9Ptakopysk14SpriteRendererD0Ev @1645
    _ZN9Ptakopysk14SpriteRendererD1Ev @1646
    _ZN9Ptakopysk14SpriteRendererD2Ev @1647
    _ZN9Ptakopysk15ContactListener10EndContactEP9b2Contact @1648
    _ZN9Ptakopysk15ContactListener12BeginContactEP9b2Contact @1649
    _ZN9Ptakopysk15ContactListener19___RttiClassName___E @1650 DATA
    _ZN9Ptakopysk15ContactListener30___RttiClassDerivationTable___E @1651 DATA
    _ZN9Ptakopysk15ContactListener8PreSolveEP9b2ContactPK10b2Manifold @1652
    _ZN9Ptakopysk15ContactListener9PostSolveEP9b2ContactPK16b2ContactImpulse @1653
    _ZN9Ptakopysk15ContactListenerC1EPNS_11GameManagerE @1654
    _ZN9Ptakopysk15ContactListenerC2EPNS_11GameManagerE @1655
    _ZN9Ptakopysk15ContactListenerD0Ev @1656
    _ZN9Ptakopysk15ContactListenerD1Ev @1657
    _ZN9Ptakopysk15ContactListenerD2Ev @1658
    _ZN9Ptakopysk15StyleSerializerC1Ev @1659
    _ZN9Ptakopysk15StyleSerializerD0Ev @1660
    _ZN9Ptakopysk15StyleSerializerD1Ev @1661
    _ZN9Ptakopysk18BitFieldSerializer11deserializeEPKvRKN4Json5ValueE @1662
    _ZN9Ptakopysk18BitFieldSerializer5setupERKSt3mapISsiSt4lessISsESaISt4pairIKSsiEEE @1663
    _ZN9Ptakopysk18BitFieldSerializer9serializeEPKv @1664
    _ZN9Ptakopysk18BitFieldSerializerC1ERKSt3mapISsiSt4lessISsESaISt4pairIKSsiEEE @1665
    _ZN9Ptakopysk18BitFieldSerializerC1Ev @1666
    _ZN9Ptakopysk18BitFieldSerializerC2ERKSt3mapISsiSt4lessISsESaISt4pairIKSsiEEE @1667
    _ZN9Ptakopysk18BitFieldSerializerC2Ev @1668
    _ZN9Ptakopysk18BitFieldSerializerD0Ev @1669
    _ZN9Ptakopysk18BitFieldSerializerD1Ev @1670
    _ZN9Ptakopysk18BitFieldSerializerD2Ev @1671
    _ZN9Ptakopysk19BlendModeSerializerC1Ev @1672
    _ZN9Ptakopysk19BlendModeSerializerD0Ev @1673
    _ZN9Ptakopysk19BlendModeSerializerD1Ev @1674
    _ZN9Ptakopysk19DestructionListener10SayGoodbyeEP7b2Joint @1675
    _ZN9Ptakopysk19DestructionListener10SayGoodbyeEP9b2Fixture @1676
    _ZN9Ptakopysk19DestructionListener19___RttiClassName___E @1677 DATA
    _ZN9Ptakopysk19DestructionListener30___RttiClassDerivationTable___E @1678 DATA
    _ZN9Ptakopysk19DestructionListenerC1EPNS_11GameManagerE @1679
    _ZN9Ptakopysk19DestructionListenerC2EPNS_11GameManagerE @1680
    _ZN9Ptakopysk19DestructionListenerD0Ev @1681
    _ZN9Ptakopysk19DestructionListenerD1Ev @1682
    _ZN9Ptakopysk19DestructionListenerD2Ev @1683
    _ZN9Ptakopysk20b2BodyTypeSerializerD0Ev @1684
    _ZN9Ptakopysk20b2BodyTypeSerializerD1Ev @1685
    _ZN9Ptakopysk23TransformModeSerializerD0Ev @1686
    _ZN9Ptakopysk23TransformModeSerializerD1Ev @1687
    _ZN9Ptakopysk4Body10getDensityEv @1688
    _ZN9Ptakopysk4Body10setDensityEf @1689
    _ZN9Ptakopysk4Body11getBodyTypeEv @1690
    _ZN9Ptakopysk4Body11getVerticesEv @1691
    _ZN9Ptakopysk4Body11onDuplicateEPNS_9ComponentE @1692
    _ZN9Ptakopysk4Body11onSerializeERKSs @1693
    _ZN9Ptakopysk4Body11setBodyTypeE10b2BodyType @1694
    _ZN9Ptakopysk4Body11setVerticesERSt6vectorI6b2Vec2SaIS2_EE @1695
    _ZN9Ptakopysk4Body13applyVerticesEv @1696
    _ZN9Ptakopysk4Body13onDeserializeERKSsRKN4Json5ValueE @1697
    _ZN9Ptakopysk4Body15getGravityScaleEv @1698
    _ZN9Ptakopysk4Body15isFixedRotationEv @1699
    _ZN9Ptakopysk4Body15setGravityScaleEf @1700
    _ZN9Ptakopysk4Body16getLinearDampingEv @1701
    _ZN9Ptakopysk4Body16onBuildComponentEv @1702
    _ZN9Ptakopysk4Body16onFixtureGoodbyeEP9b2Fixture @1703
    _ZN9Ptakopysk4Body16setFixedRotationEb @1704
    _ZN9Ptakopysk4Body16setLinearDampingEf @1705
    _ZN9Ptakopysk4Body17getAngularDampingEv @1706
    _ZN9Ptakopysk4Body17getLinearVelocityEv @1707
    _ZN9Ptakopysk4Body17isSleepingAllowedEv @1708
    _ZN9Ptakopysk4Body17setAngularDampingEf @1709
    _ZN9Ptakopysk4Body17setLinearVelocityE6b2Vec2 @1710
    _ZN9Ptakopysk4Body18getAngularVelocityEv @1711
    _ZN9Ptakopysk4Body18setAngularVelocityEf @1712
    _ZN9Ptakopysk4Body18setSleepingAllowedEb @1713
    _ZN9Ptakopysk4Body19___RttiClassName___E @1714 DATA
    _ZN9Ptakopysk4Body30___RttiClassDerivationTable___E @1715 DATA
    _ZN9Ptakopysk4Body8isBulletEv @1716
    _ZN9Ptakopysk4Body8onCreateEv @1717
    _ZN9Ptakopysk4Body9getRadiusEv @1718
    _ZN9Ptakopysk4Body9onDestroyEv @1719
    _ZN9Ptakopysk4Body9setBulletEb @1720
    _ZN9Ptakopysk4Body9setRadiusEf @1721
    _ZN9Ptakopysk4BodyC1Ev @1722
    _ZN9Ptakopysk4BodyC2Ev @1723
    _ZN9Ptakopysk4BodyD0Ev @1724
    _ZN9Ptakopysk4BodyD1Ev @1725
    _ZN9Ptakopysk4BodyD2Ev @1726
    _ZN9Ptakopysk6Assets10addTextureERKSsPKN2sf7TextureE @1727
    _ZN9Ptakopysk6Assets10findShaderEPKN2sf6ShaderE @1728
    _ZN9Ptakopysk6Assets10fontToJsonERKSs @1729
    _ZN9Ptakopysk6Assets10freeShaderERKSs @1730
    _ZN9Ptakopysk6Assets10getTextureERKSs @1731
    _ZN9Ptakopysk6Assets10jsonToFontERKN4Json5ValueE @1732
    _ZN9Ptakopysk6Assets10loadShaderERKSsS2_S2_ @1733
    _ZN9Ptakopysk6Assets11findTextureEPKN2sf7TextureE @1734
    _ZN9Ptakopysk6Assets11fontsToJsonEv @1735
    _ZN9Ptakopysk6Assets11freeTextureERKSs @1736
    _ZN9Ptakopysk6Assets11jsonToFontsERKN4Json5ValueE @1737
    _ZN9Ptakopysk6Assets11jsonToMusicERKN4Json5ValueE @1738
    _ZN9Ptakopysk6Assets11jsonToSoundERKN4Json5ValueE @1739
    _ZN9Ptakopysk6Assets11loadTextureERKSsS2_ @1740
    _ZN9Ptakopysk6Assets11musicToJsonERKSs @1741
    _ZN9Ptakopysk6Assets11soundToJsonERKSs @1742
    _ZN9Ptakopysk6Assets12assetsToJsonEv @1743
    _ZN9Ptakopysk6Assets12freeAllFontsEv @1744
    _ZN9Ptakopysk6Assets12jsonToAssetsERKN4Json5ValueE @1745
    _ZN9Ptakopysk6Assets12jsonToMusicsERKN4Json5ValueE @1746
    _ZN9Ptakopysk6Assets12jsonToShaderERKN4Json5ValueE @1747
    _ZN9Ptakopysk6Assets12jsonToSoundsERKN4Json5ValueE @1748
    _ZN9Ptakopysk6Assets12musicsToJsonEv @1749
    _ZN9Ptakopysk6Assets12shaderToJsonERKSs @1750
    _ZN9Ptakopysk6Assets12soundsToJsonEv @1751
    _ZN9Ptakopysk6Assets13freeAllMusicsEv @1752
    _ZN9Ptakopysk6Assets13freeAllSoundsEv @1753
    _ZN9Ptakopysk6Assets13jsonToShadersERKN4Json5ValueE @1754
    _ZN9Ptakopysk6Assets13jsonToTextureERKN4Json5ValueE @1755
    _ZN9Ptakopysk6Assets13shadersToJsonEv @1756
    _ZN9Ptakopysk6Assets13textureToJsonERKSs @1757
    _ZN9Ptakopysk6Assets14freeAllShadersEv @1758
    _ZN9Ptakopysk6Assets14jsonToTexturesERKN4Json5ValueE @1759
    _ZN9Ptakopysk6Assets14texturesToJsonEv @1760
    _ZN9Ptakopysk6Assets15freeAllTexturesEv @1761
    _ZN9Ptakopysk6Assets19___RttiClassName___E @1762 DATA
    _ZN9Ptakopysk6Assets30___RttiClassDerivationTable___E @1763 DATA
    _ZN9Ptakopysk6Assets7addFontERKSsPKN2sf4FontE @1764
    _ZN9Ptakopysk6Assets7freeAllEv @1765
    _ZN9Ptakopysk6Assets7getFontERKSs @1766
    _ZN9Ptakopysk6Assets8addMusicERKSsPKN2sf5MusicE @1767
    _ZN9Ptakopysk6Assets8addSoundERKSsPKN2sf11SoundBufferEPKNS3_5SoundE @1768
    _ZN9Ptakopysk6Assets8findFontEPKN2sf4FontE @1769
    _ZN9Ptakopysk6Assets8freeFontERKSs @1770
    _ZN9Ptakopysk6Assets8getMusicERKSs @1771
    _ZN9Ptakopysk6Assets8getSoundERKSs @1772
    _ZN9Ptakopysk6Assets8jsonTagsERSt6vectorISsSaISsEE @1773
    _ZN9Ptakopysk6Assets8loadFontERKSsS2_ @1774
    _ZN9Ptakopysk6Assets9addShaderERKSsPKN2sf6ShaderE @1775
    _ZN9Ptakopysk6Assets9findMusicEPKN2sf5MusicE @1776
    _ZN9Ptakopysk6Assets9findSoundEPKN2sf5SoundE @1777
    _ZN9Ptakopysk6Assets9freeMusicERKSs @1778
    _ZN9Ptakopysk6Assets9freeSoundERKSs @1779
    _ZN9Ptakopysk6Assets9getShaderERKSs @1780
    _ZN9Ptakopysk6Assets9loadMusicERKSsS2_ @1781
    _ZN9Ptakopysk6Assets9loadSoundERKSsS2_ @1782
    _ZN9Ptakopysk6Assets9parseTagsERKN4Json5ValueERSt6vectorISsSaISsEE @1783
    _ZN9Ptakopysk6AssetsC1Ev @1784
    _ZN9Ptakopysk6AssetsC2Ev @1785
    _ZN9Ptakopysk6AssetsD0Ev @1786
    _ZN9Ptakopysk6AssetsD1Ev @1787
    _ZN9Ptakopysk6AssetsD2Ev @1788
    _ZN9Ptakopysk6Camera10getZoomOutEv @1789
    _ZN9Ptakopysk6Camera10setZoomOutEf @1790
    _ZN9Ptakopysk6Camera11getViewportEv @1791
    _ZN9Ptakopysk6Camera11onDuplicateEPNS_9ComponentE @1792
    _ZN9Ptakopysk6Camera11onSerializeERKSs @1793
    _ZN9Ptakopysk6Camera11setViewportEN2sf4RectIfEE @1794
    _ZN9Ptakopysk6Camera13onDeserializeERKSsRKN4Json5ValueE @1795
    _ZN9Ptakopysk6Camera16onBuildComponentEv @1796
    _ZN9Ptakopysk6Camera19___RttiClassName___E @1797 DATA
    _ZN9Ptakopysk6Camera30___RttiClassDerivationTable___E @1798 DATA
    _ZN9Ptakopysk6Camera7getSizeEv @1799
    _ZN9Ptakopysk6Camera7getZoomEv @1800
    _ZN9Ptakopysk6Camera7setSizeEN2sf7Vector2IfEE @1801
    _ZN9Ptakopysk6Camera7setZoomEf @1802
    _ZN9Ptakopysk6Camera8onCreateEv @1803
    _ZN9Ptakopysk6Camera8onRenderEPN2sf12RenderTargetE @1804
    _ZN9Ptakopysk6Camera8onUpdateEf @1805
    _ZN9Ptakopysk6CameraC1Ev @1806
    _ZN9Ptakopysk6CameraC2Ev @1807
    _ZN9Ptakopysk6CameraD0Ev @1808
    _ZN9Ptakopysk6CameraD1Ev @1809
    _ZN9Ptakopysk6CameraD2Ev @1810
    _ZN9Ptakopysk6Events11getCallbackEv @1811
    _ZN9Ptakopysk6Events11setCallbackEPFvPNS0_5EventEE @1812
    _ZN9Ptakopysk6Events19___RttiClassName___E @1813 DATA
    _ZN9Ptakopysk6Events30___RttiClassDerivationTable___E @1814 DATA
    _ZN9Ptakopysk6Events4pushEPNS0_5EventE @1815
    _ZN9Ptakopysk6Events5Event5getIdEv @1816
    _ZN9Ptakopysk6Events5Event5setIdERKSs @1817
    _ZN9Ptakopysk6Events5EventC1ERKSs @1818
    _ZN9Ptakopysk6Events5EventC2ERKSs @1819
    _ZN9Ptakopysk6Events5EventD1Ev @1820
    _ZN9Ptakopysk6Events5EventD2Ev @1821
    _ZN9Ptakopysk6Events7onEventEPNS0_5EventE @1822
    _ZN9Ptakopysk6Events8dispatchEv @1823
    _ZN9Ptakopysk6EventsC1Ev @1824
    _ZN9Ptakopysk6EventsC2Ev @1825
    _ZN9Ptakopysk6EventsD1Ev @1826
    _ZN9Ptakopysk6EventsD2Ev @1827
    _ZN9Ptakopysk6ITweenD0Ev @1828
    _ZN9Ptakopysk6ITweenD1Ev @1829
    _ZN9Ptakopysk7Tweener10startTweenEPNS_6ITweenE @1830
    _ZN9Ptakopysk7Tweener13killAllTweensEv @1831
    _ZN9Ptakopysk7Tweener13processTweensEf @1832
    _ZN9Ptakopysk7Tweener19___RttiClassName___E @1833 DATA
    _ZN9Ptakopysk7Tweener30___RttiClassDerivationTable___E @1834 DATA
    _ZN9Ptakopysk7Tweener8getTweenEj @1835
    _ZN9Ptakopysk7Tweener8hasTweenEj @1836
    _ZN9Ptakopysk7Tweener9killTweenEj @1837
    _ZN9Ptakopysk7TweenerC1Ev @1838
    _ZN9Ptakopysk7TweenerC2Ev @1839
    _ZN9Ptakopysk7TweenerD0Ev @1840
    _ZN9Ptakopysk7TweenerD1Ev @1841
    _ZN9Ptakopysk7TweenerD2Ev @1842
    _ZN9Ptakopysk9Component11onDuplicateEPS0_ @1843
    _ZN9Ptakopysk9Component11onSerializeERKSs @1844
    _ZN9Ptakopysk9Component11onTransformERKN2sf9TransformERS2_ @1845
    _ZN9Ptakopysk9Component12getTypeFlagsEv @1846
    _ZN9Ptakopysk9Component13getGameObjectEv @1847
    _ZN9Ptakopysk9Component13onDeserializeERKSsRKN4Json5ValueE @1848
    _ZN9Ptakopysk9Component13setGameObjectEPNS_10GameObjectE @1849
    _ZN9Ptakopysk9Component14onJointGoodbyeEP7b2Joint @1850
    _ZN9Ptakopysk9Component16onFixtureGoodbyeEP9b2Fixture @1851
    _ZN9Ptakopysk9Component19___RttiClassName___E @1852 DATA
    _ZN9Ptakopysk9Component30___RttiClassDerivationTable___E @1853 DATA
    _ZN9Ptakopysk9Component6toJsonEv @1854
    _ZN9Ptakopysk9Component7onEventERKN2sf5EventE @1855
    _ZN9Ptakopysk9Component8fromJsonERKN4Json5ValueE @1856
    _ZN9Ptakopysk9Component8isActiveEv @1857
    _ZN9Ptakopysk9Component8onCreateEv @1858
    _ZN9Ptakopysk9Component8onRenderEPN2sf12RenderTargetE @1859
    _ZN9Ptakopysk9Component8onUpdateEf @1860
    _ZN9Ptakopysk9Component9onCollideEPNS_10GameObjectEbP9b2Contact @1861
    _ZN9Ptakopysk9Component9onDestroyEv @1862
    _ZN9Ptakopysk9Component9setActiveEb @1863
    _ZN9Ptakopysk9ComponentC1ENS0_4TypeE @1864
    _ZN9Ptakopysk9ComponentC2ENS0_4TypeE @1865
    _ZN9Ptakopysk9ComponentD0Ev @1866
    _ZN9Ptakopysk9ComponentD1Ev @1867
    _ZN9Ptakopysk9ComponentD2Ev @1868
    _ZN9Ptakopysk9Transform11getPositionEv @1869
    _ZN9Ptakopysk9Transform11getRotationEv @1870
    _ZN9Ptakopysk9Transform11onDuplicateEPNS_9ComponentE @1871
    _ZN9Ptakopysk9Transform11onSerializeERKSs @1872
    _ZN9Ptakopysk9Transform11onTransformERKN2sf9TransformERS2_ @1873
    _ZN9Ptakopysk9Transform11setPositionEN2sf7Vector2IfEE @1874
    _ZN9Ptakopysk9Transform11setRotationEf @1875
    _ZN9Ptakopysk9Transform13onDeserializeERKSsRKN4Json5ValueE @1876
    _ZN9Ptakopysk9Transform16onBuildComponentEv @1877
    _ZN9Ptakopysk9Transform19___RttiClassName___E @1878 DATA
    _ZN9Ptakopysk9Transform30___RttiClassDerivationTable___E @1879 DATA
    _ZN9Ptakopysk9Transform7getModeEv @1880
    _ZN9Ptakopysk9Transform7setModeENS0_8ModeTypeE @1881
    _ZN9Ptakopysk9Transform8getScaleEv @1882
    _ZN9Ptakopysk9Transform8onUpdateEf @1883
    _ZN9Ptakopysk9Transform8setScaleEN2sf7Vector2IfEE @1884
    _ZN9Ptakopysk9TransformC1Ev @1885
    _ZN9Ptakopysk9TransformC2Ev @1886
    _ZN9Ptakopysk9TransformD0Ev @1887
    _ZN9Ptakopysk9TransformD1Ev @1888
    _ZN9Ptakopysk9TransformD2Ev @1889
    _ZN9PtakopyskorENS_11GameManager16SceneContentTypeES1_ @1890
    _ZN9PtakopyskorENS_9Component4TypeES1_ @1891
    _ZN9b2Contact11s_registersE @1892 DATA
    _ZN9b2Contact13s_initializedE @1893 DATA
    _ZN9b2Contact19InitializeRegistersEv @1894
    _ZN9b2Contact6CreateEP9b2FixtureiS1_iP16b2BlockAllocator @1895
    _ZN9b2Contact6UpdateEP17b2ContactListener @1896
    _ZN9b2Contact7AddTypeEPFPS_P9b2FixtureiS2_iP16b2BlockAllocatorEPFvS0_S4_EN7b2Shape4TypeESA_ @1897
    _ZN9b2Contact7DestroyEPS_P16b2BlockAllocator @1898
    _ZN9b2ContactC1EP9b2FixtureiS1_i @1899
    _ZN9b2ContactC2EP9b2FixtureiS1_i @1900
    _ZN9b2ContactD0Ev @1901
    _ZN9b2ContactD1Ev @1902
    _ZN9b2Fixture11SynchronizeEP12b2BroadPhaseRK11b2TransformS4_ @1903
    _ZN9b2Fixture13CreateProxiesEP12b2BroadPhaseRK11b2Transform @1904
    _ZN9b2Fixture13SetFilterDataERK8b2Filter @1905
    _ZN9b2Fixture14DestroyProxiesEP12b2BroadPhase @1906
    _ZN9b2Fixture4DumpEi @1907
    _ZN9b2Fixture6CreateEP16b2BlockAllocatorP6b2BodyPK12b2FixtureDef @1908
    _ZN9b2Fixture7DestroyEP16b2BlockAllocator @1909
    _ZN9b2Fixture8RefilterEv @1910
    _ZN9b2Fixture9SetSensorEb @1911
    _ZN9b2FixtureC1Ev @1912
    _ZN9b2FixtureC2Ev @1913
    _ZN9b2Simplex6Solve2Ev @1914
    _ZN9b2Simplex6Solve3Ev @1915
    _ZNK11b2EdgeShape11ComputeAABBEP6b2AABBRK11b2Transformi @1916
    _ZNK11b2EdgeShape11ComputeMassEP10b2MassDataf @1917
    _ZNK11b2EdgeShape13GetChildCountEv @1918
    _ZNK11b2EdgeShape5CloneEP16b2BlockAllocator @1919
    _ZNK11b2EdgeShape7RayCastEP15b2RayCastOutputRK14b2RayCastInputRK11b2Transformi @1920
    _ZNK11b2EdgeShape9TestPointERK11b2TransformRK6b2Vec2 @1921
    _ZNK11b2GearJoint10GetAnchorAEv @1922
    _ZNK11b2GearJoint10GetAnchorBEv @1923
    _ZNK11b2GearJoint16GetReactionForceEf @1924
    _ZNK11b2GearJoint17GetReactionTorqueEf @1925
    _ZNK11b2GearJoint8GetRatioEv @1926
    _ZNK11b2RopeJoint10GetAnchorAEv @1927
    _ZNK11b2RopeJoint10GetAnchorBEv @1928
    _ZNK11b2RopeJoint12GetMaxLengthEv @1929
    _ZNK11b2RopeJoint13GetLimitStateEv @1930
    _ZNK11b2RopeJoint16GetReactionForceEf @1931
    _ZNK11b2RopeJoint17GetReactionTorqueEf @1932
    _ZNK11b2WeldJoint10GetAnchorAEv @1933
    _ZNK11b2WeldJoint10GetAnchorBEv @1934
    _ZNK11b2WeldJoint16GetReactionForceEf @1935
    _ZNK11b2WeldJoint17GetReactionTorqueEf @1936
    _ZNK12b2ChainShape11ComputeAABBEP6b2AABBRK11b2Transformi @1937
    _ZNK12b2ChainShape11ComputeMassEP10b2MassDataf @1938
    _ZNK12b2ChainShape12GetChildEdgeEP11b2EdgeShapei @1939
    _ZNK12b2ChainShape13GetChildCountEv @1940
    _ZNK12b2ChainShape5CloneEP16b2BlockAllocator @1941
    _ZNK12b2ChainShape7RayCastEP15b2RayCastOutputRK14b2RayCastInputRK11b2Transformi @1942
    _ZNK12b2ChainShape9TestPointERK11b2TransformRK6b2Vec2 @1943
    _ZNK12b2MouseJoint10GetAnchorAEv @1944
    _ZNK12b2MouseJoint10GetAnchorBEv @1945
    _ZNK12b2MouseJoint11GetMaxForceEv @1946
    _ZNK12b2MouseJoint12GetFrequencyEv @1947
    _ZNK12b2MouseJoint15GetDampingRatioEv @1948
    _ZNK12b2MouseJoint16GetReactionForceEf @1949
    _ZNK12b2MouseJoint17GetReactionTorqueEf @1950
    _ZNK12b2MouseJoint9GetTargetEv @1951
    _ZNK12b2WheelJoint10GetAnchorAEv @1952
    _ZNK12b2WheelJoint10GetAnchorBEv @1953
    _ZNK12b2WheelJoint13GetJointSpeedEv @1954
    _ZNK12b2WheelJoint14GetMotorTorqueEf @1955
    _ZNK12b2WheelJoint14IsMotorEnabledEv @1956
    _ZNK12b2WheelJoint16GetReactionForceEf @1957
    _ZNK12b2WheelJoint17GetReactionTorqueEf @1958
    _ZNK12b2WheelJoint19GetJointTranslationEv @1959
    _ZNK13b2CircleShape11ComputeAABBEP6b2AABBRK11b2Transformi @1960
    _ZNK13b2CircleShape11ComputeMassEP10b2MassDataf @1961
    _ZNK13b2CircleShape13GetChildCountEv @1962
    _ZNK13b2CircleShape5CloneEP16b2BlockAllocator @1963
    _ZNK13b2CircleShape7RayCastEP15b2RayCastOutputRK14b2RayCastInputRK11b2Transformi @1964
    _ZNK13b2CircleShape9TestPointERK11b2TransformRK6b2Vec2 @1965
    _ZNK13b2DynamicTree12GetAreaRatioEv @1966
    _ZNK13b2DynamicTree13ComputeHeightEi @1967
    _ZNK13b2DynamicTree13ComputeHeightEv @1968
    _ZNK13b2DynamicTree13GetMaxBalanceEv @1969
    _ZNK13b2DynamicTree15ValidateMetricsEi @1970
    _ZNK13b2DynamicTree17ValidateStructureEi @1971
    _ZNK13b2DynamicTree5QueryI12b2BroadPhaseEEvPT_RK6b2AABB @1972
    _ZNK13b2DynamicTree5QueryI19b2WorldQueryWrapperEEvPT_RK6b2AABB @1973
    _ZNK13b2DynamicTree7RayCastI21b2WorldRayCastWrapperEEvPT_RK14b2RayCastInput @1974
    _ZNK13b2DynamicTree8ValidateEv @1975
    _ZNK13b2DynamicTree9GetHeightEv @1976
    _ZNK13b2PulleyJoint10GetAnchorAEv @1977
    _ZNK13b2PulleyJoint10GetAnchorBEv @1978
    _ZNK13b2PulleyJoint10GetLengthAEv @1979
    _ZNK13b2PulleyJoint10GetLengthBEv @1980
    _ZNK13b2PulleyJoint16GetGroundAnchorAEv @1981
    _ZNK13b2PulleyJoint16GetGroundAnchorBEv @1982
    _ZNK13b2PulleyJoint16GetReactionForceEf @1983
    _ZNK13b2PulleyJoint17GetReactionTorqueEf @1984
    _ZNK13b2PulleyJoint8GetRatioEv @1985
    _ZNK14b2PolygonShape11ComputeAABBEP6b2AABBRK11b2Transformi @1986
    _ZNK14b2PolygonShape11ComputeMassEP10b2MassDataf @1987
    _ZNK14b2PolygonShape13GetChildCountEv @1988
    _ZNK14b2PolygonShape5CloneEP16b2BlockAllocator @1989
    _ZNK14b2PolygonShape7RayCastEP15b2RayCastOutputRK14b2RayCastInputRK11b2Transformi @1990
    _ZNK14b2PolygonShape9TestPointERK11b2TransformRK6b2Vec2 @1991
    _ZNK15b2DistanceJoint10GetAnchorAEv @1992
    _ZNK15b2DistanceJoint10GetAnchorBEv @1993
    _ZNK15b2DistanceJoint16GetReactionForceEf @1994
    _ZNK15b2DistanceJoint17GetReactionTorqueEf @1995
    _ZNK15b2FrictionJoint10GetAnchorAEv @1996
    _ZNK15b2FrictionJoint10GetAnchorBEv @1997
    _ZNK15b2FrictionJoint11GetMaxForceEv @1998
    _ZNK15b2FrictionJoint12GetMaxTorqueEv @1999
    _ZNK15b2FrictionJoint16GetReactionForceEf @2000
    _ZNK15b2FrictionJoint17GetReactionTorqueEf @2001
    _ZNK15b2RevoluteJoint10GetAnchorAEv @2002
    _ZNK15b2RevoluteJoint10GetAnchorBEv @2003
    _ZNK15b2RevoluteJoint13GetJointAngleEv @2004
    _ZNK15b2RevoluteJoint13GetJointSpeedEv @2005
    _ZNK15b2RevoluteJoint13GetLowerLimitEv @2006
    _ZNK15b2RevoluteJoint13GetUpperLimitEv @2007
    _ZNK15b2RevoluteJoint14GetMotorTorqueEf @2008
    _ZNK15b2RevoluteJoint14IsLimitEnabledEv @2009
    _ZNK15b2RevoluteJoint14IsMotorEnabledEv @2010
    _ZNK15b2RevoluteJoint16GetReactionForceEf @2011
    _ZNK15b2RevoluteJoint17GetReactionTorqueEf @2012
    _ZNK16b2PrismaticJoint10GetAnchorAEv @2013
    _ZNK16b2PrismaticJoint10GetAnchorBEv @2014
    _ZNK16b2PrismaticJoint13GetJointSpeedEv @2015
    _ZNK16b2PrismaticJoint13GetLowerLimitEv @2016
    _ZNK16b2PrismaticJoint13GetMotorForceEf @2017
    _ZNK16b2PrismaticJoint13GetUpperLimitEv @2018
    _ZNK16b2PrismaticJoint14IsLimitEnabledEv @2019
    _ZNK16b2PrismaticJoint14IsMotorEnabledEv @2020
    _ZNK16b2PrismaticJoint16GetReactionForceEf @2021
    _ZNK16b2PrismaticJoint17GetReactionTorqueEf @2022
    _ZNK16b2PrismaticJoint19GetJointTranslationEv @2023
    _ZNK16b2StackAllocator16GetMaxAllocationEv @2024
    _ZNK2sf11SoundBuffer10getSamplesEv @2025
    _ZNK2sf11SoundBuffer10saveToFileERKSs @2026
    _ZNK2sf11SoundBuffer11attachSoundEPNS_5SoundE @2027
    _ZNK2sf11SoundBuffer11detachSoundEPNS_5SoundE @2028
    _ZNK2sf11SoundBuffer11getDurationEv @2029
    _ZNK2sf11SoundBuffer13getSampleRateEv @2030
    _ZNK2sf11SoundBuffer14getSampleCountEv @2031
    _ZNK2sf11SoundBuffer15getChannelCountEv @2032
    _ZNK2sf11SoundSource11getPositionEv @2033
    _ZNK2sf11SoundSource14getAttenuationEv @2034
    _ZNK2sf11SoundSource14getMinDistanceEv @2035
    _ZNK2sf11SoundSource20isRelativeToListenerEv @2036
    _ZNK2sf11SoundSource8getPitchEv @2037
    _ZNK2sf11SoundSource9getStatusEv @2038
    _ZNK2sf11SoundSource9getVolumeEv @2039
    _ZNK2sf11SoundStream13getSampleRateEv @2040
    _ZNK2sf11SoundStream15getChannelCountEv @2041
    _ZNK2sf11SoundStream16getPlayingOffsetEv @2042
    _ZNK2sf11SoundStream7getLoopEv @2043
    _ZNK2sf11SoundStream9getStatusEv @2044
    _ZNK2sf11ThreadLocal8getValueEv @2045
    _ZNK2sf11VertexArray14getVertexCountEv @2046
    _ZNK2sf11VertexArray16getPrimitiveTypeEv @2047
    _ZNK2sf11VertexArray4drawERNS_12RenderTargetENS_12RenderStatesE @2048
    _ZNK2sf11VertexArray9getBoundsEv @2049
    _ZNK2sf11VertexArrayixEj @2050
    _ZNK2sf12RenderTarget11getViewportERKNS_4ViewE @2051
    _ZNK2sf12RenderTarget14getDefaultViewEv @2052
    _ZNK2sf12RenderTarget16mapCoordsToPixelERKNS_7Vector2IfEE @2053
    _ZNK2sf12RenderTarget16mapCoordsToPixelERKNS_7Vector2IfEERKNS_4ViewE @2054
    _ZNK2sf12RenderTarget16mapPixelToCoordsERKNS_7Vector2IiEE @2055
    _ZNK2sf12RenderTarget16mapPixelToCoordsERKNS_7Vector2IiEERKNS_4ViewE @2056
    _ZNK2sf12RenderTarget7getViewEv @2057
    _ZNK2sf13Transformable11getPositionEv @2058
    _ZNK2sf13Transformable11getRotationEv @2059
    _ZNK2sf13Transformable12getTransformEv @2060
    _ZNK2sf13Transformable19getInverseTransformEv @2061
    _ZNK2sf13Transformable8getScaleEv @2062
    _ZNK2sf13Transformable9getOriginEv @2063
    _ZNK2sf14RectangleShape13getPointCountEv @2064
    _ZNK2sf14RectangleShape7getSizeEv @2065
    _ZNK2sf14RectangleShape8getPointEj @2066
    _ZNK2sf4Font10getKerningEjjj @2067
    _ZNK2sf4Font10getTextureEj @2068
    _ZNK2sf4Font13findGlyphRectERNS0_4PageEjj @2069
    _ZNK2sf4Font14getLineSpacingEj @2070
    _ZNK2sf4Font14setCurrentSizeEj @2071
    _ZNK2sf4Font8getGlyphEjjb @2072
    _ZNK2sf4Font9loadGlyphEjjb @2073
    _ZNK2sf4Text14getLocalBoundsEv @2074
    _ZNK2sf4Text15getGlobalBoundsEv @2075
    _ZNK2sf4Text16findCharacterPosEj @2076
    _ZNK2sf4Text16getCharacterSizeEv @2077
    _ZNK2sf4Text4drawERNS_12RenderTargetENS_12RenderStatesE @2078
    _ZNK2sf4Text7getFontEv @2079
    _ZNK2sf4Text8getColorEv @2080
    _ZNK2sf4Text8getStyleEv @2081
    _ZNK2sf4Text9getStringEv @2082
    _ZNK2sf4Time14asMicrosecondsEv @2083
    _ZNK2sf4Time14asMillisecondsEv @2084
    _ZNK2sf4Time9asSecondsEv @2085
    _ZNK2sf4View11getRotationEv @2086
    _ZNK2sf4View11getViewportEv @2087
    _ZNK2sf4View12getTransformEv @2088
    _ZNK2sf4View19getInverseTransformEv @2089
    _ZNK2sf4View7getSizeEv @2090
    _ZNK2sf4View9getCenterEv @2091
    _ZNK2sf4priv12JoystickImpl15getCapabilitiesEv @2092
    _ZNK2sf4priv15JoystickManager15getCapabilitiesEj @2093
    _ZNK2sf4priv15JoystickManager8getStateEj @2094
    _ZNK2sf4priv15ThreadLocalImpl8getValueEv @2095
    _ZNK2sf4priv15WindowImplWin3211getPositionEv @2096
    _ZNK2sf4priv15WindowImplWin3215getSystemHandleEv @2097
    _ZNK2sf4priv15WindowImplWin327getSizeEv @2098
    _ZNK2sf4priv9GlContext11getSettingsEv @2099
    _ZNK2sf4priv9SoundFile13getSampleRateEv @2100
    _ZNK2sf4priv9SoundFile14getSampleCountEv @2101
    _ZNK2sf4priv9SoundFile15getChannelCountEv @2102
    _ZNK2sf5Clock14getElapsedTimeEv @2103
    _ZNK2sf5Image10saveToFileERKSs @2104
    _ZNK2sf5Image12getPixelsPtrEv @2105
    _ZNK2sf5Image7getSizeEv @2106
    _ZNK2sf5Image8getPixelEjj @2107
    _ZNK2sf5Music11getDurationEv @2108
    _ZNK2sf5Shape10getTextureEv @2109
    _ZNK2sf5Shape12getFillColorEv @2110
    _ZNK2sf5Shape14getLocalBoundsEv @2111
    _ZNK2sf5Shape14getTextureRectEv @2112
    _ZNK2sf5Shape15getGlobalBoundsEv @2113
    _ZNK2sf5Shape15getOutlineColorEv @2114
    _ZNK2sf5Shape19getOutlineThicknessEv @2115
    _ZNK2sf5Shape4drawERNS_12RenderTargetENS_12RenderStatesE @2116
    _ZNK2sf5Sound16getPlayingOffsetEv @2117
    _ZNK2sf5Sound7getLoopEv @2118
    _ZNK2sf5Sound9getBufferEv @2119
    _ZNK2sf5Sound9getStatusEv @2120
    _ZNK2sf6Shader12bindTexturesEv @2121
    _ZNK2sf6String12toAnsiStringERKSt6locale @2122
    _ZNK2sf6String12toWideStringEv @2123
    _ZNK2sf6String3endEv @2124
    _ZNK2sf6String4findERKS0_j @2125
    _ZNK2sf6String5beginEv @2126
    _ZNK2sf6String7getDataEv @2127
    _ZNK2sf6String7getSizeEv @2128
    _ZNK2sf6String7isEmptyEv @2129
    _ZNK2sf6StringcvSbIwSt11char_traitsIwESaIwEEEv @2130
    _ZNK2sf6StringcvSsEv @2131
    _ZNK2sf6StringixEj @2132
    _ZNK2sf6Window11getPositionEv @2133
    _ZNK2sf6Window11getSettingsEv @2134
    _ZNK2sf6Window15getSystemHandleEv @2135
    _ZNK2sf6Window6isOpenEv @2136
    _ZNK2sf6Window7getSizeEv @2137
    _ZNK2sf6Window9setActiveEb @2138
    _ZNK2sf7Texture10isRepeatedEv @2139
    _ZNK2sf7Texture11copyToImageEv @2140
    _ZNK2sf7Texture7getSizeEv @2141
    _ZNK2sf7Texture8isSmoothEv @2142
    _ZNK2sf9Transform10getInverseEv @2143
    _ZNK2sf9Transform13transformRectERKNS_4RectIfEE @2144
    _ZNK2sf9Transform14transformPointERKNS_7Vector2IfEE @2145
    _ZNK2sf9Transform14transformPointEff @2146
    _ZNK2sf9Transform9getMatrixEv @2147
    _ZNK2sf9VideoMode7isValidEv @2148
    _ZNK4Json17ValueIteratorBase10memberNameEv @2149
    _ZNK4Json17ValueIteratorBase15computeDistanceERKS0_ @2150
    _ZNK4Json17ValueIteratorBase3keyEv @2151
    _ZNK4Json17ValueIteratorBase5derefEv @2152
    _ZNK4Json17ValueIteratorBase5indexEv @2153
    _ZNK4Json17ValueIteratorBase7isEqualERKS0_ @2154
    _ZNK4Json4Path4makeERNS_5ValueE @2155
    _ZNK4Json4Path7resolveERKNS_5ValueE @2156
    _ZNK4Json4Path7resolveERKNS_5ValueES3_ @2157
    _ZNK4Json5Value10getCommentENS_16CommentPlacementE @2158
    _ZNK4Json5Value10hasCommentENS_16CommentPlacementE @2159
    _ZNK4Json5Value10isIntegralEv @2160
    _ZNK4Json5Value12isValidIndexEj @2161
    _ZNK4Json5Value14getMemberNamesEv @2162
    _ZNK4Json5Value14toStyledStringEv @2163
    _ZNK4Json5Value15isConvertibleToENS_9ValueTypeE @2164
    _ZNK4Json5Value3endEv @2165
    _ZNK4Json5Value3getEPKcRKS0_ @2166
    _ZNK4Json5Value3getERKSsRKS0_ @2167
    _ZNK4Json5Value3getEjRKS0_ @2168
    _ZNK4Json5Value4sizeEv @2169
    _ZNK4Json5Value4typeEv @2170
    _ZNK4Json5Value5asIntEv @2171
    _ZNK4Json5Value5beginEv @2172
    _ZNK4Json5Value5emptyEv @2173
    _ZNK4Json5Value5isIntEv @2174
    _ZNK4Json5Value6asBoolEv @2175
    _ZNK4Json5Value6asUIntEv @2176
    _ZNK4Json5Value6isBoolEv @2177
    _ZNK4Json5Value6isNullEv @2178
    _ZNK4Json5Value6isUIntEv @2179
    _ZNK4Json5Value7isArrayEv @2180
    _ZNK4Json5Value8CZString14isStaticStringEv @2181
    _ZNK4Json5Value8CZString5c_strEv @2182
    _ZNK4Json5Value8CZString5indexEv @2183
    _ZNK4Json5Value8CZStringeqERKS1_ @2184
    _ZNK4Json5Value8CZStringltERKS1_ @2185
    _ZNK4Json5Value8asDoubleEv @2186
    _ZNK4Json5Value8asStringEv @2187
    _ZNK4Json5Value8isDoubleEv @2188
    _ZNK4Json5Value8isMemberEPKc @2189
    _ZNK4Json5Value8isMemberERKSs @2190
    _ZNK4Json5Value8isObjectEv @2191
    _ZNK4Json5Value8isStringEv @2192
    _ZNK4Json5Value9asCStringEv @2193
    _ZNK4Json5Value9isNumericEv @2194
    _ZNK4Json5ValueeqERKS0_ @2195
    _ZNK4Json5ValuegeERKS0_ @2196
    _ZNK4Json5ValuegtERKS0_ @2197
    _ZNK4Json5ValueixEPKc @2198
    _ZNK4Json5ValueixERKSs @2199
    _ZNK4Json5ValueixEj @2200
    _ZNK4Json5ValueleERKS0_ @2201
    _ZNK4Json5ValueltERKS0_ @2202
    _ZNK4Json5ValueneERKS0_ @2203
    _ZNK4Json5ValuentEv @2204
    _ZNK4Json6Reader24getFormatedErrorMessagesEv @2205
    _ZNK4Json6Reader24getLocationLineAndColumnEPKc @2206
    _ZNK4Json6Reader24getLocationLineAndColumnEPKcRiS3_ @2207
    _ZNK6XeCore6Common6String7explodeEPKcRjbcS3_ @2208
    _ZNK6b2AABB7RayCastEP15b2RayCastOutputRK14b2RayCastInput @2209
    _ZNK6b2Body13ShouldCollideEPKS_ @2210
    _ZNK6b2Draw8GetFlagsEv @2211
    _ZNK7b2Joint8IsActiveEv @2212
    _ZNK7b2Mat3312GetInverse22EPS_ @2213
    _ZNK7b2Mat3315GetSymInverse33EPS_ @2214
    _ZNK7b2Mat337Solve22ERK6b2Vec2 @2215
    _ZNK7b2Mat337Solve33ERK6b2Vec3 @2216
    _ZNK7b2Timer15GetMillisecondsEv @2217
    _ZNK7b2World13GetProxyCountEv @2218
    _ZNK7b2World13GetTreeHeightEv @2219
    _ZNK7b2World14GetTreeBalanceEv @2220
    _ZNK7b2World14GetTreeQualityEv @2221
    _ZNK7b2World7RayCastEP17b2RayCastCallbackRK6b2Vec2S4_ @2222
    _ZNK7b2World9QueryAABBEP15b2QueryCallbackRK6b2AABB @2223
    _ZNKSt6vectorIhSaIhEE12_M_check_lenEjPKc @2224
    _ZNKSt8_Rb_treeISsSt4pairIKSsN9Ptakopysk11GameManager20ComponentFactoryDataEESt10_Select1stIS5_ESt4lessISsESaIS5_EE4findERS1_ @2225
    _ZNKSt8_Rb_treeISsSt4pairIKSsPN2sf4FontEESt10_Select1stIS5_ESt4lessISsESaIS5_EE4findERS1_ @2226
    _ZNKSt8_Rb_treeISsSt4pairIKSsPN2sf5MusicEESt10_Select1stIS5_ESt4lessISsESaIS5_EE4findERS1_ @2227
    _ZNKSt8_Rb_treeISsSt4pairIKSsPN2sf5SoundEESt10_Select1stIS5_ESt4lessISsESaIS5_EE4findERS1_ @2228
    _ZNKSt8_Rb_treeISsSt4pairIKSsPN2sf6ShaderEESt10_Select1stIS5_ESt4lessISsESaIS5_EE4findERS1_ @2229
    _ZNKSt8_Rb_treeISsSt4pairIKSsPN2sf7TextureEESt10_Select1stIS5_ESt4lessISsESaIS5_EE4findERS1_ @2230
    _ZNKSt8_Rb_treeISsSt4pairIKSsPN9Ptakopysk10Serialized17ICustomSerializerEESt10_Select1stIS6_ESt4lessISsESaIS6_EE4findERS1_ @2231
    _ZNKSt8_Rb_treeISsSt4pairIKSsSsESt10_Select1stIS2_ESt4lessISsESaIS2_EE4findERS1_ @2232
    _ZNKSt8_Rb_treeISsSt4pairIKSsSt6vectorISsSaISsEEESt10_Select1stIS5_ESt4lessISsESaIS5_EE4findERS1_ @2233
    _ZNKSt8_Rb_treeISsSt4pairIKSsSt6vectorIfSaIfEEESt10_Select1stIS5_ESt4lessISsESaIS5_EE4findERS1_ @2234
    _ZNKSt8_Rb_treeISsSt4pairIKSsiESt10_Select1stIS2_ESt4lessISsESaIS2_EE4findERS1_ @2235
    _ZNKSt8_Rb_treeIjSt4pairIKjPN9Ptakopysk9ComponentEESt10_Select1stIS5_ESt4lessIjESaIS5_EE4findERS1_ @2236
    _ZNSbIjSt11char_traitsIjESaIjEE6assignEPKjj @2237
    _ZNSbIjSt11char_traitsIjESaIjEE6insertEjPKjj @2238
    _ZNSbIjSt11char_traitsIjESaIjEE9_M_mutateEjjj @2239
    _ZNSbIjSt11char_traitsIjESaIjEED1Ev @2240
    _ZNSt10_List_baseIPN9Ptakopysk10GameObjectESaIS2_EE8_M_clearEv @2241
    _ZNSt10_List_baseIPN9Ptakopysk6Events5EventESaIS3_EE8_M_clearEv @2242
    _ZNSt10_List_baseIPN9Ptakopysk6ITweenESaIS2_EE8_M_clearEv @2243
    _ZNSt11_Deque_baseIN2sf5EventESaIS1_EE17_M_initialize_mapEj @2244
    _ZNSt11_Deque_baseIN4Json6Reader9ErrorInfoESaIS2_EE17_M_initialize_mapEj @2245
    _ZNSt11_Deque_baseIPN4Json5ValueESaIS2_EE17_M_initialize_mapEj @2246
    _ZNSt11_Deque_baseIPN4Json5ValueESaIS2_EED2Ev @2247
    _ZNSt12_Destroy_auxILb0EE9__destroyIPN4Json12PathArgumentEEEvT_S5_ @2248
    _ZNSt12_Destroy_auxILb0EE9__destroyIPN6XeCore6Common6StringEEEvT_S6_ @2249
    _ZNSt12_Destroy_auxILb0EE9__destroyIPSsEEvT_S3_ @2250
    _ZNSt25__lexicographical_compareILb0EE4__lcISt23_Rb_tree_const_iteratorISt4pairIKN4Json5Value8CZStringES5_EES9_EEbT_SA_T0_SB_ @2251
    _ZNSt3mapISsPN2sf11SoundBufferESt4lessISsESaISt4pairIKSsS2_EEED1Ev @2252
    _ZNSt3mapISsPN2sf11SoundBufferESt4lessISsESaISt4pairIKSsS2_EEEixERS6_ @2253
    _ZNSt3mapISsPN2sf4FontESt4lessISsESaISt4pairIKSsS2_EEED1Ev @2254
    _ZNSt3mapISsPN2sf4FontESt4lessISsESaISt4pairIKSsS2_EEEixERS6_ @2255
    _ZNSt3mapISsPN2sf5MusicESt4lessISsESaISt4pairIKSsS2_EEED1Ev @2256
    _ZNSt3mapISsPN2sf5MusicESt4lessISsESaISt4pairIKSsS2_EEEixERS6_ @2257
    _ZNSt3mapISsPN2sf5SoundESt4lessISsESaISt4pairIKSsS2_EEED1Ev @2258
    _ZNSt3mapISsPN2sf5SoundESt4lessISsESaISt4pairIKSsS2_EEEixERS6_ @2259
    _ZNSt3mapISsPN2sf6ShaderESt4lessISsESaISt4pairIKSsS2_EEED1Ev @2260
    _ZNSt3mapISsPN2sf6ShaderESt4lessISsESaISt4pairIKSsS2_EEEixERS6_ @2261
    _ZNSt3mapISsPN2sf7TextureESt4lessISsESaISt4pairIKSsS2_EEED1Ev @2262
    _ZNSt3mapISsPN2sf7TextureESt4lessISsESaISt4pairIKSsS2_EEEixERS6_ @2263
    _ZNSt3mapISsSsSt4lessISsESaISt4pairIKSsSsEEED1Ev @2264
    _ZNSt3mapISsSsSt4lessISsESaISt4pairIKSsSsEEEixERS3_ @2265
    _ZNSt3mapISsSt6vectorISsSaISsEESt4lessISsESaISt4pairIKSsS2_EEED1Ev @2266
    _ZNSt3mapISsSt6vectorISsSaISsEESt4lessISsESaISt4pairIKSsS2_EEEixERS6_ @2267
    _ZNSt3mapISsiSt4lessISsESaISt4pairIKSsiEEED1Ev @2268
    _ZNSt3mapIjN2sf5GlyphESt4lessIjESaISt4pairIKjS1_EEED1Ev @2269
    _ZNSt3mapIjPN9Ptakopysk9ComponentESt4lessIjESaISt4pairIKjS2_EEED1Ev @2270
    _ZNSt3setIPN2sf5SoundESt4lessIS2_ESaIS2_EED1Ev @2271
    _ZNSt4listIPN9Ptakopysk10GameObjectESaIS2_EE4sortINS0_11GameManager18CompareGameObjectsEEEvT_ @2272
    _ZNSt4listIPN9Ptakopysk10GameObjectESaIS2_EE5mergeINS0_11GameManager18CompareGameObjectsEEEvRS4_T_ @2273
    _ZNSt4listIPN9Ptakopysk10GameObjectESaIS2_EE6removeERKS2_ @2274
    _ZNSt4listIPN9Ptakopysk10GameObjectESaIS2_EED1Ev @2275
    _ZNSt4pairIKN4Json5Value8CZStringES1_ED1Ev @2276
    _ZNSt4pairIKSsPN2sf7TextureEED1Ev @2277
    _ZNSt4pairIKSsSsED1Ev @2278
    _ZNSt4pairIKSsSt6vectorISsSaISsEEED1Ev @2279
    _ZNSt4pairIKSsSt6vectorIfSaIfEEED1Ev @2280
    _ZNSt4pairIKSsiED1Ev @2281
    _ZNSt5dequeIN2sf5EventESaIS1_EE17_M_reallocate_mapEjb @2282
    _ZNSt5dequeIN4Json6Reader9ErrorInfoESaIS2_EE13_M_insert_auxESt15_Deque_iteratorIS2_RS2_PS2_EjRKS2_ @2283
    _ZNSt5dequeIN4Json6Reader9ErrorInfoESaIS2_EE14_M_fill_insertESt15_Deque_iteratorIS2_RS2_PS2_EjRKS2_ @2284
    _ZNSt5dequeIN4Json6Reader9ErrorInfoESaIS2_EE16_M_push_back_auxERKS2_ @2285
    _ZNSt5dequeIN4Json6Reader9ErrorInfoESaIS2_EE17_M_reallocate_mapEjb @2286
    _ZNSt5dequeIN4Json6Reader9ErrorInfoESaIS2_EE19_M_destroy_data_auxESt15_Deque_iteratorIS2_RS2_PS2_ES8_ @2287
    _ZNSt5dequeIN4Json6Reader9ErrorInfoESaIS2_EE23_M_new_elements_at_backEj @2288
    _ZNSt5dequeIN4Json6Reader9ErrorInfoESaIS2_EE24_M_new_elements_at_frontEj @2289
    _ZNSt5dequeIN4Json6Reader9ErrorInfoESaIS2_EED1Ev @2290
    _ZNSt5dequeIPN4Json5ValueESaIS2_EE15_M_pop_back_auxEv @2291
    _ZNSt5dequeIPN4Json5ValueESaIS2_EE16_M_push_back_auxERKS2_ @2292
    _ZNSt6vectorI6b2Vec2SaIS0_EE13_M_insert_auxEN9__gnu_cxx17__normal_iteratorIPS0_S2_EERKS0_ @2293
    _ZNSt6vectorI6b2Vec2SaIS0_EE14_M_fill_insertEN9__gnu_cxx17__normal_iteratorIPS0_S2_EEjRKS0_ @2294
    _ZNSt6vectorI6b2Vec2SaIS0_EED1Ev @2295
    _ZNSt6vectorIN2sf4Font3RowESaIS2_EE13_M_insert_auxEN9__gnu_cxx17__normal_iteratorIPS2_S4_EERKS2_ @2296
    _ZNSt6vectorIN2sf6VertexESaIS1_EE13_M_insert_auxEN9__gnu_cxx17__normal_iteratorIPS1_S3_EERKS1_ @2297
    _ZNSt6vectorIN2sf6VertexESaIS1_EE14_M_fill_insertEN9__gnu_cxx17__normal_iteratorIPS1_S3_EEjRKS1_ @2298
    _ZNSt6vectorIN2sf9VideoModeESaIS1_EE13_M_insert_auxEN9__gnu_cxx17__normal_iteratorIPS1_S3_EERKS1_ @2299
    _ZNSt6vectorIN2sf9VideoModeESaIS1_EEaSERKS3_ @2300
    _ZNSt6vectorIN4Json12PathArgumentESaIS1_EE13_M_insert_auxEN9__gnu_cxx17__normal_iteratorIPS1_S3_EERKS1_ @2301
    _ZNSt6vectorIN6XeCore6Common6StringESaIS2_EE13_M_insert_auxEN9__gnu_cxx17__normal_iteratorIPS2_S4_EERKS2_ @2302
    _ZNSt6vectorIN6XeCore6Common6StringESaIS2_EED2Ev @2303
    _ZNSt6vectorIPKN4Json12PathArgumentESaIS3_EE13_M_insert_auxEN9__gnu_cxx17__normal_iteratorIPS3_S5_EERKS3_ @2304
    _ZNSt6vectorIPN9Ptakopysk6ITweenESaIS2_EE13_M_insert_auxEN9__gnu_cxx17__normal_iteratorIPS2_S4_EERKS2_ @2305
    _ZNSt6vectorISsSaISsEE13_M_insert_auxEN9__gnu_cxx17__normal_iteratorIPSsS1_EERKSs @2306
    _ZNSt6vectorISsSaISsEE7reserveEj @2307
    _ZNSt6vectorISsSaISsEED1Ev @2308
    _ZNSt6vectorIcSaIcEE13_M_insert_auxEN9__gnu_cxx17__normal_iteratorIPcS1_EERKc @2309
    _ZNSt6vectorIcSaIcEE14_M_fill_insertEN9__gnu_cxx17__normal_iteratorIPcS1_EEjRKc @2310
    _ZNSt6vectorIcSaIcEED1Ev @2311
    _ZNSt6vectorIfSaIfEE13_M_insert_auxEN9__gnu_cxx17__normal_iteratorIPfS1_EERKf @2312
    _ZNSt6vectorIfSaIfEE14_M_fill_insertEN9__gnu_cxx17__normal_iteratorIPfS1_EEjRKf @2313
    _ZNSt6vectorIhSaIhEE14_M_fill_insertEN9__gnu_cxx17__normal_iteratorIPhS1_EEjRKh @2314
    _ZNSt6vectorIhSaIhEE6resizeEjh @2315
    _ZNSt6vectorIhSaIhEED1Ev @2316
    _ZNSt6vectorIjSaIjEE13_M_insert_auxEN9__gnu_cxx17__normal_iteratorIPjS1_EERKj @2317
    _ZNSt6vectorIjSaIjEE5eraseEN9__gnu_cxx17__normal_iteratorIPjS1_EE @2318
    _ZNSt6vectorIsSaIsEE13_M_assign_auxIPKsEEvT_S5_St20forward_iterator_tag @2319
    _ZNSt6vectorIsSaIsEE14_M_fill_insertEN9__gnu_cxx17__normal_iteratorIPsS1_EEjRKs @2320
    _ZNSt6vectorIsSaIsEED1Ev @2321
    _ZNSt8_Rb_treeIN4Json5Value8CZStringESt4pairIKS2_S1_ESt10_Select1stIS5_ESt4lessIS2_ESaIS5_EE10_M_insert_EPKSt18_Rb_tree_node_baseSE_RKS5_ @2322
    _ZNSt8_Rb_treeIN4Json5Value8CZStringESt4pairIKS2_S1_ESt10_Select1stIS5_ESt4lessIS2_ESaIS5_EE12_M_erase_auxESt23_Rb_tree_const_iteratorIS5_E @2323
    _ZNSt8_Rb_treeIN4Json5Value8CZStringESt4pairIKS2_S1_ESt10_Select1stIS5_ESt4lessIS2_ESaIS5_EE16_M_insert_uniqueERKS5_ @2324
    _ZNSt8_Rb_treeIN4Json5Value8CZStringESt4pairIKS2_S1_ESt10_Select1stIS5_ESt4lessIS2_ESaIS5_EE17_M_insert_unique_ESt23_Rb_tree_const_iteratorIS5_ERKS5_ @2325
    _ZNSt8_Rb_treeIN4Json5Value8CZStringESt4pairIKS2_S1_ESt10_Select1stIS5_ESt4lessIS2_ESaIS5_EE4findERS4_ @2326
    _ZNSt8_Rb_treeIN4Json5Value8CZStringESt4pairIKS2_S1_ESt10_Select1stIS5_ESt4lessIS2_ESaIS5_EE7_M_copyEPKSt13_Rb_tree_nodeIS5_EPSD_ @2327
    _ZNSt8_Rb_treeIN4Json5Value8CZStringESt4pairIKS2_S1_ESt10_Select1stIS5_ESt4lessIS2_ESaIS5_EE8_M_eraseEPSt13_Rb_tree_nodeIS5_E @2328
    _ZNSt8_Rb_treeIPN2sf4priv9GlContextES3_St9_IdentityIS3_ESt4lessIS3_ESaIS3_EE16_M_insert_uniqueERKS3_ @2329
    _ZNSt8_Rb_treeIPN2sf4priv9GlContextES3_St9_IdentityIS3_ESt4lessIS3_ESaIS3_EE8_M_eraseEPSt13_Rb_tree_nodeIS3_E @2330
    _ZNSt8_Rb_treeIPN2sf5SoundES2_St9_IdentityIS2_ESt4lessIS2_ESaIS2_EE8_M_eraseEPSt13_Rb_tree_nodeIS2_E @2331
    _ZNSt8_Rb_treeISsSt4pairIKSsN9Ptakopysk11GameManager20ComponentFactoryDataEESt10_Select1stIS5_ESt4lessISsESaIS5_EE10_M_insert_EPKSt18_Rb_tree_node_baseSE_RKS5_ @2332
    _ZNSt8_Rb_treeISsSt4pairIKSsN9Ptakopysk11GameManager20ComponentFactoryDataEESt10_Select1stIS5_ESt4lessISsESaIS5_EE11equal_rangeERS1_ @2333
    _ZNSt8_Rb_treeISsSt4pairIKSsN9Ptakopysk11GameManager20ComponentFactoryDataEESt10_Select1stIS5_ESt4lessISsESaIS5_EE12_M_erase_auxESt23_Rb_tree_const_iteratorIS5_E @2334
    _ZNSt8_Rb_treeISsSt4pairIKSsN9Ptakopysk11GameManager20ComponentFactoryDataEESt10_Select1stIS5_ESt4lessISsESaIS5_EE16_M_insert_uniqueERKS5_ @2335
    _ZNSt8_Rb_treeISsSt4pairIKSsN9Ptakopysk11GameManager20ComponentFactoryDataEESt10_Select1stIS5_ESt4lessISsESaIS5_EE17_M_insert_unique_ESt23_Rb_tree_const_iteratorIS5_ERKS5_ @2336
    _ZNSt8_Rb_treeISsSt4pairIKSsN9Ptakopysk11GameManager20ComponentFactoryDataEESt10_Select1stIS5_ESt4lessISsESaIS5_EE8_M_eraseEPSt13_Rb_tree_nodeIS5_E @2337
    _ZNSt8_Rb_treeISsSt4pairIKSsPN2sf11SoundBufferEESt10_Select1stIS5_ESt4lessISsESaIS5_EE10_M_insert_EPKSt18_Rb_tree_node_baseSE_RKS5_ @2338
    _ZNSt8_Rb_treeISsSt4pairIKSsPN2sf11SoundBufferEESt10_Select1stIS5_ESt4lessISsESaIS5_EE11equal_rangeERS1_ @2339
    _ZNSt8_Rb_treeISsSt4pairIKSsPN2sf11SoundBufferEESt10_Select1stIS5_ESt4lessISsESaIS5_EE12_M_erase_auxESt23_Rb_tree_const_iteratorIS5_ESD_ @2340
    _ZNSt8_Rb_treeISsSt4pairIKSsPN2sf11SoundBufferEESt10_Select1stIS5_ESt4lessISsESaIS5_EE16_M_insert_uniqueERKS5_ @2341
    _ZNSt8_Rb_treeISsSt4pairIKSsPN2sf11SoundBufferEESt10_Select1stIS5_ESt4lessISsESaIS5_EE17_M_insert_unique_ESt23_Rb_tree_const_iteratorIS5_ERKS5_ @2342
    _ZNSt8_Rb_treeISsSt4pairIKSsPN2sf11SoundBufferEESt10_Select1stIS5_ESt4lessISsESaIS5_EE8_M_eraseEPSt13_Rb_tree_nodeIS5_E @2343
    _ZNSt8_Rb_treeISsSt4pairIKSsPN2sf4FontEESt10_Select1stIS5_ESt4lessISsESaIS5_EE10_M_insert_EPKSt18_Rb_tree_node_baseSE_RKS5_ @2344
    _ZNSt8_Rb_treeISsSt4pairIKSsPN2sf4FontEESt10_Select1stIS5_ESt4lessISsESaIS5_EE11equal_rangeERS1_ @2345
    _ZNSt8_Rb_treeISsSt4pairIKSsPN2sf4FontEESt10_Select1stIS5_ESt4lessISsESaIS5_EE12_M_erase_auxESt23_Rb_tree_const_iteratorIS5_ESD_ @2346
    _ZNSt8_Rb_treeISsSt4pairIKSsPN2sf4FontEESt10_Select1stIS5_ESt4lessISsESaIS5_EE16_M_insert_uniqueERKS5_ @2347
    _ZNSt8_Rb_treeISsSt4pairIKSsPN2sf4FontEESt10_Select1stIS5_ESt4lessISsESaIS5_EE17_M_insert_unique_ESt23_Rb_tree_const_iteratorIS5_ERKS5_ @2348
    _ZNSt8_Rb_treeISsSt4pairIKSsPN2sf4FontEESt10_Select1stIS5_ESt4lessISsESaIS5_EE8_M_eraseEPSt13_Rb_tree_nodeIS5_E @2349
    _ZNSt8_Rb_treeISsSt4pairIKSsPN2sf5MusicEESt10_Select1stIS5_ESt4lessISsESaIS5_EE10_M_insert_EPKSt18_Rb_tree_node_baseSE_RKS5_ @2350
    _ZNSt8_Rb_treeISsSt4pairIKSsPN2sf5MusicEESt10_Select1stIS5_ESt4lessISsESaIS5_EE11equal_rangeERS1_ @2351
    _ZNSt8_Rb_treeISsSt4pairIKSsPN2sf5MusicEESt10_Select1stIS5_ESt4lessISsESaIS5_EE12_M_erase_auxESt23_Rb_tree_const_iteratorIS5_ESD_ @2352
    _ZNSt8_Rb_treeISsSt4pairIKSsPN2sf5MusicEESt10_Select1stIS5_ESt4lessISsESaIS5_EE16_M_insert_uniqueERKS5_ @2353
    _ZNSt8_Rb_treeISsSt4pairIKSsPN2sf5MusicEESt10_Select1stIS5_ESt4lessISsESaIS5_EE17_M_insert_unique_ESt23_Rb_tree_const_iteratorIS5_ERKS5_ @2354
    _ZNSt8_Rb_treeISsSt4pairIKSsPN2sf5MusicEESt10_Select1stIS5_ESt4lessISsESaIS5_EE8_M_eraseEPSt13_Rb_tree_nodeIS5_E @2355
    _ZNSt8_Rb_treeISsSt4pairIKSsPN2sf5SoundEESt10_Select1stIS5_ESt4lessISsESaIS5_EE10_M_insert_EPKSt18_Rb_tree_node_baseSE_RKS5_ @2356
    _ZNSt8_Rb_treeISsSt4pairIKSsPN2sf5SoundEESt10_Select1stIS5_ESt4lessISsESaIS5_EE11equal_rangeERS1_ @2357
    _ZNSt8_Rb_treeISsSt4pairIKSsPN2sf5SoundEESt10_Select1stIS5_ESt4lessISsESaIS5_EE12_M_erase_auxESt23_Rb_tree_const_iteratorIS5_ESD_ @2358
    _ZNSt8_Rb_treeISsSt4pairIKSsPN2sf5SoundEESt10_Select1stIS5_ESt4lessISsESaIS5_EE16_M_insert_uniqueERKS5_ @2359
    _ZNSt8_Rb_treeISsSt4pairIKSsPN2sf5SoundEESt10_Select1stIS5_ESt4lessISsESaIS5_EE17_M_insert_unique_ESt23_Rb_tree_const_iteratorIS5_ERKS5_ @2360
    _ZNSt8_Rb_treeISsSt4pairIKSsPN2sf5SoundEESt10_Select1stIS5_ESt4lessISsESaIS5_EE8_M_eraseEPSt13_Rb_tree_nodeIS5_E @2361
    _ZNSt8_Rb_treeISsSt4pairIKSsPN2sf6ShaderEESt10_Select1stIS5_ESt4lessISsESaIS5_EE10_M_insert_EPKSt18_Rb_tree_node_baseSE_RKS5_ @2362
    _ZNSt8_Rb_treeISsSt4pairIKSsPN2sf6ShaderEESt10_Select1stIS5_ESt4lessISsESaIS5_EE11equal_rangeERS1_ @2363
    _ZNSt8_Rb_treeISsSt4pairIKSsPN2sf6ShaderEESt10_Select1stIS5_ESt4lessISsESaIS5_EE12_M_erase_auxESt23_Rb_tree_const_iteratorIS5_ESD_ @2364
    _ZNSt8_Rb_treeISsSt4pairIKSsPN2sf6ShaderEESt10_Select1stIS5_ESt4lessISsESaIS5_EE16_M_insert_uniqueERKS5_ @2365
    _ZNSt8_Rb_treeISsSt4pairIKSsPN2sf6ShaderEESt10_Select1stIS5_ESt4lessISsESaIS5_EE17_M_insert_unique_ESt23_Rb_tree_const_iteratorIS5_ERKS5_ @2366
    _ZNSt8_Rb_treeISsSt4pairIKSsPN2sf6ShaderEESt10_Select1stIS5_ESt4lessISsESaIS5_EE8_M_eraseEPSt13_Rb_tree_nodeIS5_E @2367
    _ZNSt8_Rb_treeISsSt4pairIKSsPN2sf7TextureEESt10_Select1stIS5_ESt4lessISsESaIS5_EE10_M_insert_EPKSt18_Rb_tree_node_baseSE_RKS5_ @2368
    _ZNSt8_Rb_treeISsSt4pairIKSsPN2sf7TextureEESt10_Select1stIS5_ESt4lessISsESaIS5_EE11equal_rangeERS1_ @2369
    _ZNSt8_Rb_treeISsSt4pairIKSsPN2sf7TextureEESt10_Select1stIS5_ESt4lessISsESaIS5_EE12_M_erase_auxESt23_Rb_tree_const_iteratorIS5_ESD_ @2370
    _ZNSt8_Rb_treeISsSt4pairIKSsPN2sf7TextureEESt10_Select1stIS5_ESt4lessISsESaIS5_EE16_M_insert_uniqueERKS5_ @2371
    _ZNSt8_Rb_treeISsSt4pairIKSsPN2sf7TextureEESt10_Select1stIS5_ESt4lessISsESaIS5_EE17_M_insert_unique_ESt23_Rb_tree_const_iteratorIS5_ERKS5_ @2372
    _ZNSt8_Rb_treeISsSt4pairIKSsPN2sf7TextureEESt10_Select1stIS5_ESt4lessISsESaIS5_EE5eraseERS1_ @2373
    _ZNSt8_Rb_treeISsSt4pairIKSsPN2sf7TextureEESt10_Select1stIS5_ESt4lessISsESaIS5_EE7_M_copyEPKSt13_Rb_tree_nodeIS5_EPSD_ @2374
    _ZNSt8_Rb_treeISsSt4pairIKSsPN2sf7TextureEESt10_Select1stIS5_ESt4lessISsESaIS5_EE8_M_eraseEPSt13_Rb_tree_nodeIS5_E @2375
    _ZNSt8_Rb_treeISsSt4pairIKSsPN9Ptakopysk10Serialized17ICustomSerializerEESt10_Select1stIS6_ESt4lessISsESaIS6_EE10_M_insert_EPKSt18_Rb_tree_node_baseSF_RKS6_ @2376
    _ZNSt8_Rb_treeISsSt4pairIKSsPN9Ptakopysk10Serialized17ICustomSerializerEESt10_Select1stIS6_ESt4lessISsESaIS6_EE11equal_rangeERS1_ @2377
    _ZNSt8_Rb_treeISsSt4pairIKSsPN9Ptakopysk10Serialized17ICustomSerializerEESt10_Select1stIS6_ESt4lessISsESaIS6_EE12_M_erase_auxESt23_Rb_tree_const_iteratorIS6_E @2378
    _ZNSt8_Rb_treeISsSt4pairIKSsPN9Ptakopysk10Serialized17ICustomSerializerEESt10_Select1stIS6_ESt4lessISsESaIS6_EE16_M_insert_uniqueERKS6_ @2379
    _ZNSt8_Rb_treeISsSt4pairIKSsPN9Ptakopysk10Serialized17ICustomSerializerEESt10_Select1stIS6_ESt4lessISsESaIS6_EE17_M_insert_unique_ESt23_Rb_tree_const_iteratorIS6_ERKS6_ @2380
    _ZNSt8_Rb_treeISsSt4pairIKSsPN9Ptakopysk10Serialized17ICustomSerializerEESt10_Select1stIS6_ESt4lessISsESaIS6_EE8_M_eraseEPSt13_Rb_tree_nodeIS6_E @2381
    _ZNSt8_Rb_treeISsSt4pairIKSsSsESt10_Select1stIS2_ESt4lessISsESaIS2_EE10_M_insert_EPKSt18_Rb_tree_node_baseSB_RKS2_ @2382
    _ZNSt8_Rb_treeISsSt4pairIKSsSsESt10_Select1stIS2_ESt4lessISsESaIS2_EE11equal_rangeERS1_ @2383
    _ZNSt8_Rb_treeISsSt4pairIKSsSsESt10_Select1stIS2_ESt4lessISsESaIS2_EE12_M_erase_auxESt23_Rb_tree_const_iteratorIS2_ESA_ @2384
    _ZNSt8_Rb_treeISsSt4pairIKSsSsESt10_Select1stIS2_ESt4lessISsESaIS2_EE16_M_insert_uniqueERKS2_ @2385
    _ZNSt8_Rb_treeISsSt4pairIKSsSsESt10_Select1stIS2_ESt4lessISsESaIS2_EE17_M_insert_unique_ESt23_Rb_tree_const_iteratorIS2_ERKS2_ @2386
    _ZNSt8_Rb_treeISsSt4pairIKSsSsESt10_Select1stIS2_ESt4lessISsESaIS2_EE5eraseERS1_ @2387
    _ZNSt8_Rb_treeISsSt4pairIKSsSsESt10_Select1stIS2_ESt4lessISsESaIS2_EE8_M_eraseEPSt13_Rb_tree_nodeIS2_E @2388
    _ZNSt8_Rb_treeISsSt4pairIKSsSt6vectorISsSaISsEEESt10_Select1stIS5_ESt4lessISsESaIS5_EE10_M_insert_EPKSt18_Rb_tree_node_baseSE_RKS5_ @2389
    _ZNSt8_Rb_treeISsSt4pairIKSsSt6vectorISsSaISsEEESt10_Select1stIS5_ESt4lessISsESaIS5_EE11equal_rangeERS1_ @2390
    _ZNSt8_Rb_treeISsSt4pairIKSsSt6vectorISsSaISsEEESt10_Select1stIS5_ESt4lessISsESaIS5_EE12_M_erase_auxESt23_Rb_tree_const_iteratorIS5_ESD_ @2391
    _ZNSt8_Rb_treeISsSt4pairIKSsSt6vectorISsSaISsEEESt10_Select1stIS5_ESt4lessISsESaIS5_EE16_M_insert_uniqueERKS5_ @2392
    _ZNSt8_Rb_treeISsSt4pairIKSsSt6vectorISsSaISsEEESt10_Select1stIS5_ESt4lessISsESaIS5_EE17_M_insert_unique_ESt23_Rb_tree_const_iteratorIS5_ERKS5_ @2393
    _ZNSt8_Rb_treeISsSt4pairIKSsSt6vectorISsSaISsEEESt10_Select1stIS5_ESt4lessISsESaIS5_EE5eraseERS1_ @2394
    _ZNSt8_Rb_treeISsSt4pairIKSsSt6vectorISsSaISsEEESt10_Select1stIS5_ESt4lessISsESaIS5_EE8_M_eraseEPSt13_Rb_tree_nodeIS5_E @2395
    _ZNSt8_Rb_treeISsSt4pairIKSsSt6vectorIfSaIfEEESt10_Select1stIS5_ESt4lessISsESaIS5_EE10_M_insert_EPKSt18_Rb_tree_node_baseSE_RKS5_ @2396
    _ZNSt8_Rb_treeISsSt4pairIKSsSt6vectorIfSaIfEEESt10_Select1stIS5_ESt4lessISsESaIS5_EE11equal_rangeERS1_ @2397
    _ZNSt8_Rb_treeISsSt4pairIKSsSt6vectorIfSaIfEEESt10_Select1stIS5_ESt4lessISsESaIS5_EE12_M_erase_auxESt23_Rb_tree_const_iteratorIS5_ESD_ @2398
    _ZNSt8_Rb_treeISsSt4pairIKSsSt6vectorIfSaIfEEESt10_Select1stIS5_ESt4lessISsESaIS5_EE16_M_insert_uniqueERKS5_ @2399
    _ZNSt8_Rb_treeISsSt4pairIKSsSt6vectorIfSaIfEEESt10_Select1stIS5_ESt4lessISsESaIS5_EE17_M_insert_unique_ESt23_Rb_tree_const_iteratorIS5_ERKS5_ @2400
    _ZNSt8_Rb_treeISsSt4pairIKSsSt6vectorIfSaIfEEESt10_Select1stIS5_ESt4lessISsESaIS5_EE7_M_copyEPKSt13_Rb_tree_nodeIS5_EPSD_ @2401
    _ZNSt8_Rb_treeISsSt4pairIKSsSt6vectorIfSaIfEEESt10_Select1stIS5_ESt4lessISsESaIS5_EE8_M_eraseEPSt13_Rb_tree_nodeIS5_E @2402
    _ZNSt8_Rb_treeISsSt4pairIKSsiESt10_Select1stIS2_ESt4lessISsESaIS2_EE10_M_insert_EPKSt18_Rb_tree_node_baseSB_RKS2_ @2403
    _ZNSt8_Rb_treeISsSt4pairIKSsiESt10_Select1stIS2_ESt4lessISsESaIS2_EE16_M_insert_uniqueERKS2_ @2404
    _ZNSt8_Rb_treeISsSt4pairIKSsiESt10_Select1stIS2_ESt4lessISsESaIS2_EE17_M_insert_unique_ESt23_Rb_tree_const_iteratorIS2_ERKS2_ @2405
    _ZNSt8_Rb_treeISsSt4pairIKSsiESt10_Select1stIS2_ESt4lessISsESaIS2_EE7_M_copyEPKSt13_Rb_tree_nodeIS2_EPSA_ @2406
    _ZNSt8_Rb_treeISsSt4pairIKSsiESt10_Select1stIS2_ESt4lessISsESaIS2_EE8_M_eraseEPSt13_Rb_tree_nodeIS2_E @2407
    _ZNSt8_Rb_treeIiSt4pairIKiPKN2sf7TextureEESt10_Select1stIS6_ESt4lessIiESaIS6_EE16_M_insert_uniqueERKS6_ @2408
    _ZNSt8_Rb_treeIiSt4pairIKiPKN2sf7TextureEESt10_Select1stIS6_ESt4lessIiESaIS6_EE17_M_insert_unique_ESt23_Rb_tree_const_iteratorIS6_ERKS6_ @2409
    _ZNSt8_Rb_treeIiSt4pairIKiPKN2sf7TextureEESt10_Select1stIS6_ESt4lessIiESaIS6_EE8_M_eraseEPSt13_Rb_tree_nodeIS6_E @2410
    _ZNSt8_Rb_treeIjSt4pairIKjN2sf4Font4PageEESt10_Select1stIS5_ESt4lessIjESaIS5_EE10_M_insert_EPKSt18_Rb_tree_node_baseSE_RKS5_ @2411
    _ZNSt8_Rb_treeIjSt4pairIKjN2sf4Font4PageEESt10_Select1stIS5_ESt4lessIjESaIS5_EE17_M_insert_unique_ESt23_Rb_tree_const_iteratorIS5_ERKS5_ @2412
    _ZNSt8_Rb_treeIjSt4pairIKjN2sf4Font4PageEESt10_Select1stIS5_ESt4lessIjESaIS5_EE7_M_copyEPKSt13_Rb_tree_nodeIS5_EPSD_ @2413
    _ZNSt8_Rb_treeIjSt4pairIKjN2sf4Font4PageEESt10_Select1stIS5_ESt4lessIjESaIS5_EE8_M_eraseEPSt13_Rb_tree_nodeIS5_E @2414
    _ZNSt8_Rb_treeIjSt4pairIKjN2sf5GlyphEESt10_Select1stIS4_ESt4lessIjESaIS4_EE16_M_insert_uniqueERKS4_ @2415
    _ZNSt8_Rb_treeIjSt4pairIKjN2sf5GlyphEESt10_Select1stIS4_ESt4lessIjESaIS4_EE7_M_copyEPKSt13_Rb_tree_nodeIS4_EPSC_ @2416
    _ZNSt8_Rb_treeIjSt4pairIKjN2sf5GlyphEESt10_Select1stIS4_ESt4lessIjESaIS4_EE8_M_eraseEPSt13_Rb_tree_nodeIS4_E @2417
    _ZNSt8_Rb_treeIjSt4pairIKjPN9Ptakopysk9ComponentEESt10_Select1stIS5_ESt4lessIjESaIS5_EE10_M_insert_EPKSt18_Rb_tree_node_baseSE_RKS5_ @2418
    _ZNSt8_Rb_treeIjSt4pairIKjPN9Ptakopysk9ComponentEESt10_Select1stIS5_ESt4lessIjESaIS5_EE16_M_insert_uniqueERKS5_ @2419
    _ZNSt8_Rb_treeIjSt4pairIKjPN9Ptakopysk9ComponentEESt10_Select1stIS5_ESt4lessIjESaIS5_EE17_M_insert_unique_ESt23_Rb_tree_const_iteratorIS5_ERKS5_ @2420
    _ZNSt8_Rb_treeIjSt4pairIKjPN9Ptakopysk9ComponentEESt10_Select1stIS5_ESt4lessIjESaIS5_EE5eraseERS1_ @2421
    _ZNSt8_Rb_treeIjSt4pairIKjPN9Ptakopysk9ComponentEESt10_Select1stIS5_ESt4lessIjESaIS5_EE8_M_eraseEPSt13_Rb_tree_nodeIS5_E @2422
    _ZSt13__adjust_heapIN9__gnu_cxx17__normal_iteratorIPN2sf9VideoModeESt6vectorIS3_SaIS3_EEEEiS3_St7greaterIS3_EEvT_T0_SC_T1_T2_ @2423
    _ZSt13__adjust_heapIP6b2PairiS0_PFbRKS0_S3_EEvT_T0_S7_T1_T2_ @2424
    _ZSt13__heap_selectIP6b2PairPFbRKS0_S3_EEvT_S6_S6_T0_ @2425
    _ZSt13copy_backwardIN4Json6Reader9ErrorInfoEESt15_Deque_iteratorIT_RS4_PS4_ES3_IS4_RKS4_PS8_ESB_S7_ @2426
    _ZSt16__insertion_sortIN9__gnu_cxx17__normal_iteratorIPN2sf9VideoModeESt6vectorIS3_SaIS3_EEEESt7greaterIS3_EEvT_SB_T0_ @2427
    _ZSt16__insertion_sortIP6b2PairPFbRKS0_S3_EEvT_S6_T0_ @2428
    _ZSt16__introsort_loopIN9__gnu_cxx17__normal_iteratorIPN2sf9VideoModeESt6vectorIS3_SaIS3_EEEEiSt7greaterIS3_EEvT_SB_T0_T1_ @2429
    _ZSt16__introsort_loopIP6b2PairiPFbRKS0_S3_EEvT_S6_T0_T1_ @2430
    _ZSt19__move_median_firstIN9__gnu_cxx17__normal_iteratorIPN2sf9VideoModeESt6vectorIS3_SaIS3_EEEESt7greaterIS3_EEvT_SB_SB_T0_ @2431
    _ZSt25__unguarded_linear_insertIP6b2PairPFbRKS0_S3_EEvT_T0_ @2432
    _ZSt4fillIN4Json6Reader9ErrorInfoEEvRKSt15_Deque_iteratorIT_RS4_PS4_ES9_RKS4_ @2433
    _ZSt6__findIN9__gnu_cxx17__normal_iteratorIPKN2sf9VideoModeESt6vectorIS3_SaIS3_EEEES3_ET_SA_SA_RKT0_St26random_access_iterator_tag @2434
    _ZSt6__findIN9__gnu_cxx17__normal_iteratorIPN2sf9VideoModeESt6vectorIS3_SaIS3_EEEES3_ET_S9_S9_RKT0_St26random_access_iterator_tag @2435
    _ZSt8_DestroyISt15_Deque_iteratorIN4Json6Reader9ErrorInfoERS3_PS3_EEvT_S7_ @2436
    _ZSteqIcSt11char_traitsIcESaIcEEbRKSbIT_T0_T1_EPKS3_ @2437
    _ZStplIcSt11char_traitsIcESaIcEESbIT_T0_T1_EPKS3_RKS6_ @2438
    _ZTCN9Ptakopysk10GameObjectE0_NS_10SerializedE @2439 DATA
    _ZTCN9Ptakopysk12TextRendererE0_NS_10SerializedE @2440 DATA
    _ZTCN9Ptakopysk12TextRendererE0_NS_9ComponentE @2441 DATA
    _ZTCN9Ptakopysk13RevoluteJointE0_NS_10SerializedE @2442 DATA
    _ZTCN9Ptakopysk13RevoluteJointE0_NS_9ComponentE @2443 DATA
    _ZTCN9Ptakopysk14SpriteRendererE0_NS_10SerializedE @2444 DATA
    _ZTCN9Ptakopysk14SpriteRendererE0_NS_9ComponentE @2445 DATA
    _ZTCN9Ptakopysk15ContactListenerE20_N6XeCore6Common13MemoryManagerE @2446 DATA
    _ZTCN9Ptakopysk19DestructionListenerE20_N6XeCore6Common13MemoryManagerE @2447 DATA
    _ZTCN9Ptakopysk4BodyE0_NS_10SerializedE @2448 DATA
    _ZTCN9Ptakopysk4BodyE0_NS_9ComponentE @2449 DATA
    _ZTCN9Ptakopysk6CameraE0_NS_10SerializedE @2450 DATA
    _ZTCN9Ptakopysk6CameraE0_NS_9ComponentE @2451 DATA
    _ZTCN9Ptakopysk9ComponentE0_NS_10SerializedE @2452 DATA
    _ZTCN9Ptakopysk9TransformE0_NS_10SerializedE @2453 DATA
    _ZTCN9Ptakopysk9TransformE0_NS_9ComponentE @2454 DATA
    _ZTI11b2EdgeShape @2455 DATA
    _ZTI11b2GearJoint @2456 DATA
    _ZTI11b2RopeJoint @2457 DATA
    _ZTI11b2WeldJoint @2458 DATA
    _ZTI12b2ChainShape @2459 DATA
    _ZTI12b2MouseJoint @2460 DATA
    _ZTI12b2WheelJoint @2461 DATA
    _ZTI13b2CircleShape @2462 DATA
    _ZTI13b2PulleyJoint @2463 DATA
    _ZTI14b2PolygonShape @2464 DATA
    _ZTI15b2CircleContact @2465 DATA
    _ZTI15b2ContactFilter @2466 DATA
    _ZTI15b2DistanceJoint @2467 DATA
    _ZTI15b2FrictionJoint @2468 DATA
    _ZTI15b2RevoluteJoint @2469 DATA
    _ZTI16b2PolygonContact @2470 DATA
    _ZTI16b2PrismaticJoint @2471 DATA
    _ZTI17b2ContactListener @2472 DATA
    _ZTI21b2DestructionListener @2473 DATA
    _ZTI22b2EdgeAndCircleContact @2474 DATA
    _ZTI23b2ChainAndCircleContact @2475 DATA
    _ZTI23b2EdgeAndPolygonContact @2476 DATA
    _ZTI24b2ChainAndPolygonContact @2477 DATA
    _ZTI25b2PolygonAndCircleContact @2478 DATA
    _ZTI6b2Draw @2479 DATA
    _ZTI7b2Joint @2480 DATA
    _ZTI7b2Shape @2481 DATA
    _ZTI9b2Contact @2482 DATA
    _ZTIN2sf10GlResourceE @2483 DATA
    _ZTIN2sf11NonCopyableE @2484 DATA
    _ZTIN2sf11SoundSourceE @2485 DATA
    _ZTIN2sf11SoundStreamE @2486 DATA
    _ZTIN2sf11VertexArrayE @2487 DATA
    _ZTIN2sf12RenderTargetE @2488 DATA
    _ZTIN2sf13TransformableE @2489 DATA
    _ZTIN2sf14RectangleShapeE @2490 DATA
    _ZTIN2sf4TextE @2491 DATA
    _ZTIN2sf4priv10ThreadFuncE @2492 DATA
    _ZTIN2sf4priv10WglContextE @2493 DATA
    _ZTIN2sf4priv10WindowImplE @2494 DATA
    _ZTIN2sf4priv15WindowImplWin32E @2495 DATA
    _ZTIN2sf4priv16ThreadMemberFuncINS_11SoundStreamEEE @2496 DATA
    _ZTIN2sf4priv9GlContextE @2497 DATA
    _ZTIN2sf5MusicE @2498 DATA
    _ZTIN2sf5ShapeE @2499 DATA
    _ZTIN2sf5SoundE @2500 DATA
    _ZTIN2sf6WindowE @2501 DATA
    _ZTIN2sf8DrawableE @2502 DATA
    _ZTIN4Json10FastWriterE @2503 DATA
    _ZTIN4Json12StyledWriterE @2504 DATA
    _ZTIN4Json14ValueAllocatorE @2505 DATA
    _ZTIN4Json21DefaultValueAllocatorE @2506 DATA
    _ZTIN4Json6WriterE @2507 DATA
    _ZTIN6XeCore6Common13MemoryManager10ManageableE @2508 DATA
    _ZTIN6XeCore6Common13MemoryManagerE @2509 DATA
    _ZTIN6XeCore6Common5IRttiE @2510 DATA
    _ZTIN6XeCore6Common6LoggerE @2511 DATA
    _ZTIN6XeCore6Common6StringE @2512 DATA
    _ZTIN6XeCore6Common9SingletonIN9Ptakopysk6AssetsEEE @2513 DATA
    _ZTIN6XeCore6Common9SingletonIN9Ptakopysk6EventsEEE @2514 DATA
    _ZTIN6XeCore6Common9SingletonIN9Ptakopysk7TweenerEEE @2515 DATA
    _ZTIN6XeCore6Common9SingletonINS0_13MemoryManagerEEE @2516 DATA
    _ZTIN6XeCore6Common9SingletonINS0_6LoggerEEE @2517 DATA
    _ZTIN9Ptakopysk10GameObjectE @2518 DATA
    _ZTIN9Ptakopysk10Serialized17ICustomSerializerE @2519 DATA
    _ZTIN9Ptakopysk10SerializedE @2520 DATA
    _ZTIN9Ptakopysk10TweenBlockE @2521 DATA
    _ZTIN9Ptakopysk11GameManagerE @2522 DATA
    _ZTIN9Ptakopysk12TextRendererE @2523 DATA
    _ZTIN9Ptakopysk13RevoluteJointE @2524 DATA
    _ZTIN9Ptakopysk13TweenSequenceE @2525 DATA
    _ZTIN9Ptakopysk14EnumSerializerE @2526 DATA
    _ZTIN9Ptakopysk14RenderMaterialE @2527 DATA
    _ZTIN9Ptakopysk14SpriteRendererE @2528 DATA
    _ZTIN9Ptakopysk15ContactListenerE @2529 DATA
    _ZTIN9Ptakopysk15StyleSerializerE @2530 DATA
    _ZTIN9Ptakopysk18BitFieldSerializerE @2531 DATA
    _ZTIN9Ptakopysk19BlendModeSerializerE @2532 DATA
    _ZTIN9Ptakopysk19DestructionListenerE @2533 DATA
    _ZTIN9Ptakopysk20b2BodyTypeSerializerE @2534 DATA
    _ZTIN9Ptakopysk23TransformModeSerializerE @2535 DATA
    _ZTIN9Ptakopysk4BodyE @2536 DATA
    _ZTIN9Ptakopysk6AssetsE @2537 DATA
    _ZTIN9Ptakopysk6CameraE @2538 DATA
    _ZTIN9Ptakopysk6EventsE @2539 DATA
    _ZTIN9Ptakopysk6ITweenE @2540 DATA
    _ZTIN9Ptakopysk7TweenerE @2541 DATA
    _ZTIN9Ptakopysk9ComponentE @2542 DATA
    _ZTIN9Ptakopysk9TransformE @2543 DATA
    _ZTISs @2544 DATA
    _ZTISt13runtime_error @2545 DATA
    _ZTISt9exception @2546 DATA
    _ZTS11b2EdgeShape @2547 DATA
    _ZTS11b2GearJoint @2548 DATA
    _ZTS11b2RopeJoint @2549 DATA
    _ZTS11b2WeldJoint @2550 DATA
    _ZTS12b2ChainShape @2551 DATA
    _ZTS12b2MouseJoint @2552 DATA
    _ZTS12b2WheelJoint @2553 DATA
    _ZTS13b2CircleShape @2554 DATA
    _ZTS13b2PulleyJoint @2555 DATA
    _ZTS14b2PolygonShape @2556 DATA
    _ZTS15b2CircleContact @2557 DATA
    _ZTS15b2ContactFilter @2558 DATA
    _ZTS15b2DistanceJoint @2559 DATA
    _ZTS15b2FrictionJoint @2560 DATA
    _ZTS15b2RevoluteJoint @2561 DATA
    _ZTS16b2PolygonContact @2562 DATA
    _ZTS16b2PrismaticJoint @2563 DATA
    _ZTS17b2ContactListener @2564 DATA
    _ZTS21b2DestructionListener @2565 DATA
    _ZTS22b2EdgeAndCircleContact @2566 DATA
    _ZTS23b2ChainAndCircleContact @2567 DATA
    _ZTS23b2EdgeAndPolygonContact @2568 DATA
    _ZTS24b2ChainAndPolygonContact @2569 DATA
    _ZTS25b2PolygonAndCircleContact @2570 DATA
    _ZTS6b2Draw @2571 DATA
    _ZTS7b2Joint @2572 DATA
    _ZTS7b2Shape @2573 DATA
    _ZTS9b2Contact @2574 DATA
    _ZTSN2sf10GlResourceE @2575 DATA
    _ZTSN2sf11NonCopyableE @2576 DATA
    _ZTSN2sf11SoundSourceE @2577 DATA
    _ZTSN2sf11SoundStreamE @2578 DATA
    _ZTSN2sf11VertexArrayE @2579 DATA
    _ZTSN2sf12RenderTargetE @2580 DATA
    _ZTSN2sf13TransformableE @2581 DATA
    _ZTSN2sf14RectangleShapeE @2582 DATA
    _ZTSN2sf4TextE @2583 DATA
    _ZTSN2sf4priv10ThreadFuncE @2584 DATA
    _ZTSN2sf4priv10WglContextE @2585 DATA
    _ZTSN2sf4priv10WindowImplE @2586 DATA
    _ZTSN2sf4priv15WindowImplWin32E @2587 DATA
    _ZTSN2sf4priv16ThreadMemberFuncINS_11SoundStreamEEE @2588 DATA
    _ZTSN2sf4priv9GlContextE @2589 DATA
    _ZTSN2sf5MusicE @2590 DATA
    _ZTSN2sf5ShapeE @2591 DATA
    _ZTSN2sf5SoundE @2592 DATA
    _ZTSN2sf6WindowE @2593 DATA
    _ZTSN2sf8DrawableE @2594 DATA
    _ZTSN4Json10FastWriterE @2595 DATA
    _ZTSN4Json12StyledWriterE @2596 DATA
    _ZTSN4Json14ValueAllocatorE @2597 DATA
    _ZTSN4Json21DefaultValueAllocatorE @2598 DATA
    _ZTSN4Json6WriterE @2599 DATA
    _ZTSN6XeCore6Common13MemoryManager10ManageableE @2600 DATA
    _ZTSN6XeCore6Common13MemoryManagerE @2601 DATA
    _ZTSN6XeCore6Common5IRttiE @2602 DATA
    _ZTSN6XeCore6Common6LoggerE @2603 DATA
    _ZTSN6XeCore6Common6StringE @2604 DATA
    _ZTSN6XeCore6Common9SingletonIN9Ptakopysk6AssetsEEE @2605 DATA
    _ZTSN6XeCore6Common9SingletonIN9Ptakopysk6EventsEEE @2606 DATA
    _ZTSN6XeCore6Common9SingletonIN9Ptakopysk7TweenerEEE @2607 DATA
    _ZTSN6XeCore6Common9SingletonINS0_13MemoryManagerEEE @2608 DATA
    _ZTSN6XeCore6Common9SingletonINS0_6LoggerEEE @2609 DATA
    _ZTSN9Ptakopysk10GameObjectE @2610 DATA
    _ZTSN9Ptakopysk10Serialized17ICustomSerializerE @2611 DATA
    _ZTSN9Ptakopysk10SerializedE @2612 DATA
    _ZTSN9Ptakopysk10TweenBlockE @2613 DATA
    _ZTSN9Ptakopysk11GameManagerE @2614 DATA
    _ZTSN9Ptakopysk12TextRendererE @2615 DATA
    _ZTSN9Ptakopysk13RevoluteJointE @2616 DATA
    _ZTSN9Ptakopysk13TweenSequenceE @2617 DATA
    _ZTSN9Ptakopysk14EnumSerializerE @2618 DATA
    _ZTSN9Ptakopysk14RenderMaterialE @2619 DATA
    _ZTSN9Ptakopysk14SpriteRendererE @2620 DATA
    _ZTSN9Ptakopysk15ContactListenerE @2621 DATA
    _ZTSN9Ptakopysk15StyleSerializerE @2622 DATA
    _ZTSN9Ptakopysk18BitFieldSerializerE @2623 DATA
    _ZTSN9Ptakopysk19BlendModeSerializerE @2624 DATA
    _ZTSN9Ptakopysk19DestructionListenerE @2625 DATA
    _ZTSN9Ptakopysk20b2BodyTypeSerializerE @2626 DATA
    _ZTSN9Ptakopysk23TransformModeSerializerE @2627 DATA
    _ZTSN9Ptakopysk4BodyE @2628 DATA
    _ZTSN9Ptakopysk6AssetsE @2629 DATA
    _ZTSN9Ptakopysk6CameraE @2630 DATA
    _ZTSN9Ptakopysk6EventsE @2631 DATA
    _ZTSN9Ptakopysk6ITweenE @2632 DATA
    _ZTSN9Ptakopysk7TweenerE @2633 DATA
    _ZTSN9Ptakopysk9ComponentE @2634 DATA
    _ZTSN9Ptakopysk9TransformE @2635 DATA
    _ZTSSs @2636 DATA
    _ZTSSt13runtime_error @2637 DATA
    _ZTSSt9exception @2638 DATA
    _ZTTN6XeCore6Common13MemoryManagerE @2639 DATA
    _ZTTN6XeCore6Common6LoggerE @2640 DATA
    _ZTTN6XeCore6Common6StringE @2641 DATA
    _ZTTN9Ptakopysk10GameObjectE @2642 DATA
    _ZTTN9Ptakopysk10SerializedE @2643 DATA
    _ZTTN9Ptakopysk11GameManagerE @2644 DATA
    _ZTTN9Ptakopysk12TextRendererE @2645 DATA
    _ZTTN9Ptakopysk13RevoluteJointE @2646 DATA
    _ZTTN9Ptakopysk14RenderMaterialE @2647 DATA
    _ZTTN9Ptakopysk14SpriteRendererE @2648 DATA
    _ZTTN9Ptakopysk15ContactListenerE @2649 DATA
    _ZTTN9Ptakopysk19DestructionListenerE @2650 DATA
    _ZTTN9Ptakopysk4BodyE @2651 DATA
    _ZTTN9Ptakopysk6AssetsE @2652 DATA
    _ZTTN9Ptakopysk6CameraE @2653 DATA
    _ZTTN9Ptakopysk6EventsE @2654 DATA
    _ZTTN9Ptakopysk7TweenerE @2655 DATA
    _ZTTN9Ptakopysk9ComponentE @2656 DATA
    _ZTTN9Ptakopysk9TransformE @2657 DATA
    _ZTV11b2EdgeShape @2658 DATA
    _ZTV11b2GearJoint @2659 DATA
    _ZTV11b2RopeJoint @2660 DATA
    _ZTV11b2WeldJoint @2661 DATA
    _ZTV12b2ChainShape @2662 DATA
    _ZTV12b2MouseJoint @2663 DATA
    _ZTV12b2WheelJoint @2664 DATA
    _ZTV13b2CircleShape @2665 DATA
    _ZTV13b2PulleyJoint @2666 DATA
    _ZTV14b2PolygonShape @2667 DATA
    _ZTV15b2CircleContact @2668 DATA
    _ZTV15b2ContactFilter @2669 DATA
    _ZTV15b2DistanceJoint @2670 DATA
    _ZTV15b2FrictionJoint @2671 DATA
    _ZTV15b2RevoluteJoint @2672 DATA
    _ZTV16b2PolygonContact @2673 DATA
    _ZTV16b2PrismaticJoint @2674 DATA
    _ZTV17b2ContactListener @2675 DATA
    _ZTV21b2DestructionListener @2676 DATA
    _ZTV22b2EdgeAndCircleContact @2677 DATA
    _ZTV23b2ChainAndCircleContact @2678 DATA
    _ZTV23b2EdgeAndPolygonContact @2679 DATA
    _ZTV24b2ChainAndPolygonContact @2680 DATA
    _ZTV25b2PolygonAndCircleContact @2681 DATA
    _ZTV6b2Draw @2682 DATA
    _ZTV7b2Joint @2683 DATA
    _ZTV7b2Shape @2684 DATA
    _ZTV9b2Contact @2685 DATA
    _ZTVN2sf11SoundSourceE @2686 DATA
    _ZTVN2sf11SoundStreamE @2687 DATA
    _ZTVN2sf11VertexArrayE @2688 DATA
    _ZTVN2sf12RenderTargetE @2689 DATA
    _ZTVN2sf13TransformableE @2690 DATA
    _ZTVN2sf14RectangleShapeE @2691 DATA
    _ZTVN2sf4TextE @2692 DATA
    _ZTVN2sf4priv10ThreadFuncE @2693 DATA
    _ZTVN2sf4priv10WglContextE @2694 DATA
    _ZTVN2sf4priv10WindowImplE @2695 DATA
    _ZTVN2sf4priv15WindowImplWin32E @2696 DATA
    _ZTVN2sf4priv16ThreadMemberFuncINS_11SoundStreamEEE @2697 DATA
    _ZTVN2sf4priv9GlContextE @2698 DATA
    _ZTVN2sf5MusicE @2699 DATA
    _ZTVN2sf5ShapeE @2700 DATA
    _ZTVN2sf5SoundE @2701 DATA
    _ZTVN2sf6WindowE @2702 DATA
    _ZTVN2sf8DrawableE @2703 DATA
    _ZTVN4Json10FastWriterE @2704 DATA
    _ZTVN4Json12StyledWriterE @2705 DATA
    _ZTVN4Json14ValueAllocatorE @2706 DATA
    _ZTVN4Json21DefaultValueAllocatorE @2707 DATA
    _ZTVN4Json6WriterE @2708 DATA
    _ZTVN6XeCore6Common13MemoryManagerE @2709 DATA
    _ZTVN6XeCore6Common6LoggerE @2710 DATA
    _ZTVN6XeCore6Common6StringE @2711 DATA
    _ZTVN9Ptakopysk10GameObjectE @2712 DATA
    _ZTVN9Ptakopysk10Serialized17ICustomSerializerE @2713 DATA
    _ZTVN9Ptakopysk10SerializedE @2714 DATA
    _ZTVN9Ptakopysk10TweenBlockE @2715 DATA
    _ZTVN9Ptakopysk11GameManagerE @2716 DATA
    _ZTVN9Ptakopysk12TextRendererE @2717 DATA
    _ZTVN9Ptakopysk13RevoluteJointE @2718 DATA
    _ZTVN9Ptakopysk13TweenSequenceE @2719 DATA
    _ZTVN9Ptakopysk14EnumSerializerE @2720 DATA
    _ZTVN9Ptakopysk14RenderMaterialE @2721 DATA
    _ZTVN9Ptakopysk14SpriteRendererE @2722 DATA
    _ZTVN9Ptakopysk15ContactListenerE @2723 DATA
    _ZTVN9Ptakopysk15StyleSerializerE @2724 DATA
    _ZTVN9Ptakopysk18BitFieldSerializerE @2725 DATA
    _ZTVN9Ptakopysk19BlendModeSerializerE @2726 DATA
    _ZTVN9Ptakopysk19DestructionListenerE @2727 DATA
    _ZTVN9Ptakopysk20b2BodyTypeSerializerE @2728 DATA
    _ZTVN9Ptakopysk23TransformModeSerializerE @2729 DATA
    _ZTVN9Ptakopysk4BodyE @2730 DATA
    _ZTVN9Ptakopysk6AssetsE @2731 DATA
    _ZTVN9Ptakopysk6CameraE @2732 DATA
    _ZTVN9Ptakopysk6EventsE @2733 DATA
    _ZTVN9Ptakopysk6ITweenE @2734 DATA
    _ZTVN9Ptakopysk7TweenerE @2735 DATA
    _ZTVN9Ptakopysk9ComponentE @2736 DATA
    _ZTVN9Ptakopysk9TransformE @2737 DATA
    _ZThn4_N2sf14RectangleShapeD0Ev @2738
    _ZThn4_N2sf14RectangleShapeD1Ev @2739
    _ZThn4_N2sf4TextD0Ev @2740
    _ZThn4_N2sf4TextD1Ev @2741
    _ZThn4_N2sf5ShapeD0Ev @2742
    _ZThn4_N2sf5ShapeD1Ev @2743
    __GLEW_3DFX_multisample @2744 DATA
    __GLEW_3DFX_tbuffer @2745 DATA
    __GLEW_3DFX_texture_compression_FXT1 @2746 DATA
    __GLEW_AMD_blend_minmax_factor @2747 DATA
    __GLEW_AMD_conservative_depth @2748 DATA
    __GLEW_AMD_debug_output @2749 DATA
    __GLEW_AMD_depth_clamp_separate @2750 DATA
    __GLEW_AMD_draw_buffers_blend @2751 DATA
    __GLEW_AMD_name_gen_delete @2752 DATA
    __GLEW_AMD_performance_monitor @2753 DATA
    __GLEW_AMD_sample_positions @2754 DATA
    __GLEW_AMD_seamless_cubemap_per_texture @2755 DATA
    __GLEW_AMD_shader_stencil_export @2756 DATA
    __GLEW_AMD_texture_texture4 @2757 DATA
    __GLEW_AMD_transform_feedback3_lines_triangles @2758 DATA
    __GLEW_AMD_vertex_shader_tessellator @2759 DATA
    __GLEW_APPLE_aux_depth_stencil @2760 DATA
    __GLEW_APPLE_client_storage @2761 DATA
    __GLEW_APPLE_element_array @2762 DATA
    __GLEW_APPLE_fence @2763 DATA
    __GLEW_APPLE_float_pixels @2764 DATA
    __GLEW_APPLE_flush_buffer_range @2765 DATA
    __GLEW_APPLE_object_purgeable @2766 DATA
    __GLEW_APPLE_pixel_buffer @2767 DATA
    __GLEW_APPLE_rgb_422 @2768 DATA
    __GLEW_APPLE_row_bytes @2769 DATA
    __GLEW_APPLE_specular_vector @2770 DATA
    __GLEW_APPLE_texture_range @2771 DATA
    __GLEW_APPLE_transform_hint @2772 DATA
    __GLEW_APPLE_vertex_array_object @2773 DATA
    __GLEW_APPLE_vertex_array_range @2774 DATA
    __GLEW_APPLE_vertex_program_evaluators @2775 DATA
    __GLEW_APPLE_ycbcr_422 @2776 DATA
    __GLEW_ARB_ES2_compatibility @2777 DATA
    __GLEW_ARB_blend_func_extended @2778 DATA
    __GLEW_ARB_cl_event @2779 DATA
    __GLEW_ARB_color_buffer_float @2780 DATA
    __GLEW_ARB_compatibility @2781 DATA
    __GLEW_ARB_copy_buffer @2782 DATA
    __GLEW_ARB_debug_output @2783 DATA
    __GLEW_ARB_depth_buffer_float @2784 DATA
    __GLEW_ARB_depth_clamp @2785 DATA
    __GLEW_ARB_depth_texture @2786 DATA
    __GLEW_ARB_draw_buffers @2787 DATA
    __GLEW_ARB_draw_buffers_blend @2788 DATA
    __GLEW_ARB_draw_elements_base_vertex @2789 DATA
    __GLEW_ARB_draw_indirect @2790 DATA
    __GLEW_ARB_draw_instanced @2791 DATA
    __GLEW_ARB_explicit_attrib_location @2792 DATA
    __GLEW_ARB_fragment_coord_conventions @2793 DATA
    __GLEW_ARB_fragment_program @2794 DATA
    __GLEW_ARB_fragment_program_shadow @2795 DATA
    __GLEW_ARB_fragment_shader @2796 DATA
    __GLEW_ARB_framebuffer_object @2797 DATA
    __GLEW_ARB_framebuffer_sRGB @2798 DATA
    __GLEW_ARB_geometry_shader4 @2799 DATA
    __GLEW_ARB_get_program_binary @2800 DATA
    __GLEW_ARB_gpu_shader5 @2801 DATA
    __GLEW_ARB_gpu_shader_fp64 @2802 DATA
    __GLEW_ARB_half_float_pixel @2803 DATA
    __GLEW_ARB_half_float_vertex @2804 DATA
    __GLEW_ARB_imaging @2805 DATA
    __GLEW_ARB_instanced_arrays @2806 DATA
    __GLEW_ARB_map_buffer_range @2807 DATA
    __GLEW_ARB_matrix_palette @2808 DATA
    __GLEW_ARB_multisample @2809 DATA
    __GLEW_ARB_multitexture @2810 DATA
    __GLEW_ARB_occlusion_query @2811 DATA
    __GLEW_ARB_occlusion_query2 @2812 DATA
    __GLEW_ARB_pixel_buffer_object @2813 DATA
    __GLEW_ARB_point_parameters @2814 DATA
    __GLEW_ARB_point_sprite @2815 DATA
    __GLEW_ARB_provoking_vertex @2816 DATA
    __GLEW_ARB_robustness @2817 DATA
    __GLEW_ARB_sample_shading @2818 DATA
    __GLEW_ARB_sampler_objects @2819 DATA
    __GLEW_ARB_seamless_cube_map @2820 DATA
    __GLEW_ARB_separate_shader_objects @2821 DATA
    __GLEW_ARB_shader_bit_encoding @2822 DATA
    __GLEW_ARB_shader_objects @2823 DATA
    __GLEW_ARB_shader_precision @2824 DATA
    __GLEW_ARB_shader_stencil_export @2825 DATA
    __GLEW_ARB_shader_subroutine @2826 DATA
    __GLEW_ARB_shader_texture_lod @2827 DATA
    __GLEW_ARB_shading_language_100 @2828 DATA
    __GLEW_ARB_shading_language_include @2829 DATA
    __GLEW_ARB_shadow @2830 DATA
    __GLEW_ARB_shadow_ambient @2831 DATA
    __GLEW_ARB_sync @2832 DATA
    __GLEW_ARB_tessellation_shader @2833 DATA
    __GLEW_ARB_texture_border_clamp @2834 DATA
    __GLEW_ARB_texture_buffer_object @2835 DATA
    __GLEW_ARB_texture_buffer_object_rgb32 @2836 DATA
    __GLEW_ARB_texture_compression @2837 DATA
    __GLEW_ARB_texture_compression_bptc @2838 DATA
    __GLEW_ARB_texture_compression_rgtc @2839 DATA
    __GLEW_ARB_texture_cube_map @2840 DATA
    __GLEW_ARB_texture_cube_map_array @2841 DATA
    __GLEW_ARB_texture_env_add @2842 DATA
    __GLEW_ARB_texture_env_combine @2843 DATA
    __GLEW_ARB_texture_env_crossbar @2844 DATA
    __GLEW_ARB_texture_env_dot3 @2845 DATA
    __GLEW_ARB_texture_float @2846 DATA
    __GLEW_ARB_texture_gather @2847 DATA
    __GLEW_ARB_texture_mirrored_repeat @2848 DATA
    __GLEW_ARB_texture_multisample @2849 DATA
    __GLEW_ARB_texture_non_power_of_two @2850 DATA
    __GLEW_ARB_texture_query_lod @2851 DATA
    __GLEW_ARB_texture_rectangle @2852 DATA
    __GLEW_ARB_texture_rg @2853 DATA
    __GLEW_ARB_texture_rgb10_a2ui @2854 DATA
    __GLEW_ARB_texture_swizzle @2855 DATA
    __GLEW_ARB_timer_query @2856 DATA
    __GLEW_ARB_transform_feedback2 @2857 DATA
    __GLEW_ARB_transform_feedback3 @2858 DATA
    __GLEW_ARB_transpose_matrix @2859 DATA
    __GLEW_ARB_uniform_buffer_object @2860 DATA
    __GLEW_ARB_vertex_array_bgra @2861 DATA
    __GLEW_ARB_vertex_array_object @2862 DATA
    __GLEW_ARB_vertex_attrib_64bit @2863 DATA
    __GLEW_ARB_vertex_blend @2864 DATA
    __GLEW_ARB_vertex_buffer_object @2865 DATA
    __GLEW_ARB_vertex_program @2866 DATA
    __GLEW_ARB_vertex_shader @2867 DATA
    __GLEW_ARB_vertex_type_2_10_10_10_rev @2868 DATA
    __GLEW_ARB_viewport_array @2869 DATA
    __GLEW_ARB_window_pos @2870 DATA
    __GLEW_ATIX_point_sprites @2871 DATA
    __GLEW_ATIX_texture_env_combine3 @2872 DATA
    __GLEW_ATIX_texture_env_route @2873 DATA
    __GLEW_ATIX_vertex_shader_output_point_size @2874 DATA
    __GLEW_ATI_draw_buffers @2875 DATA
    __GLEW_ATI_element_array @2876 DATA
    __GLEW_ATI_envmap_bumpmap @2877 DATA
    __GLEW_ATI_fragment_shader @2878 DATA
    __GLEW_ATI_map_object_buffer @2879 DATA
    __GLEW_ATI_meminfo @2880 DATA
    __GLEW_ATI_pn_triangles @2881 DATA
    __GLEW_ATI_separate_stencil @2882 DATA
    __GLEW_ATI_shader_texture_lod @2883 DATA
    __GLEW_ATI_text_fragment_shader @2884 DATA
    __GLEW_ATI_texture_compression_3dc @2885 DATA
    __GLEW_ATI_texture_env_combine3 @2886 DATA
    __GLEW_ATI_texture_float @2887 DATA
    __GLEW_ATI_texture_mirror_once @2888 DATA
    __GLEW_ATI_vertex_array_object @2889 DATA
    __GLEW_ATI_vertex_attrib_array_object @2890 DATA
    __GLEW_ATI_vertex_streams @2891 DATA
    __GLEW_EXT_422_pixels @2892 DATA
    __GLEW_EXT_Cg_shader @2893 DATA
    __GLEW_EXT_abgr @2894 DATA
    __GLEW_EXT_bgra @2895 DATA
    __GLEW_EXT_bindable_uniform @2896 DATA
    __GLEW_EXT_blend_color @2897 DATA
    __GLEW_EXT_blend_equation_separate @2898 DATA
    __GLEW_EXT_blend_func_separate @2899 DATA
    __GLEW_EXT_blend_logic_op @2900 DATA
    __GLEW_EXT_blend_minmax @2901 DATA
    __GLEW_EXT_blend_subtract @2902 DATA
    __GLEW_EXT_clip_volume_hint @2903 DATA
    __GLEW_EXT_cmyka @2904 DATA
    __GLEW_EXT_color_subtable @2905 DATA
    __GLEW_EXT_compiled_vertex_array @2906 DATA
    __GLEW_EXT_convolution @2907 DATA
    __GLEW_EXT_coordinate_frame @2908 DATA
    __GLEW_EXT_copy_texture @2909 DATA
    __GLEW_EXT_cull_vertex @2910 DATA
    __GLEW_EXT_depth_bounds_test @2911 DATA
    __GLEW_EXT_direct_state_access @2912 DATA
    __GLEW_EXT_draw_buffers2 @2913 DATA
    __GLEW_EXT_draw_instanced @2914 DATA
    __GLEW_EXT_draw_range_elements @2915 DATA
    __GLEW_EXT_fog_coord @2916 DATA
    __GLEW_EXT_fragment_lighting @2917 DATA
    __GLEW_EXT_framebuffer_blit @2918 DATA
    __GLEW_EXT_framebuffer_multisample @2919 DATA
    __GLEW_EXT_framebuffer_object @2920 DATA
    __GLEW_EXT_framebuffer_sRGB @2921 DATA
    __GLEW_EXT_geometry_shader4 @2922 DATA
    __GLEW_EXT_gpu_program_parameters @2923 DATA
    __GLEW_EXT_gpu_shader4 @2924 DATA
    __GLEW_EXT_histogram @2925 DATA
    __GLEW_EXT_index_array_formats @2926 DATA
    __GLEW_EXT_index_func @2927 DATA
    __GLEW_EXT_index_material @2928 DATA
    __GLEW_EXT_index_texture @2929 DATA
    __GLEW_EXT_light_texture @2930 DATA
    __GLEW_EXT_misc_attribute @2931 DATA
    __GLEW_EXT_multi_draw_arrays @2932 DATA
    __GLEW_EXT_multisample @2933 DATA
    __GLEW_EXT_packed_depth_stencil @2934 DATA
    __GLEW_EXT_packed_float @2935 DATA
    __GLEW_EXT_packed_pixels @2936 DATA
    __GLEW_EXT_paletted_texture @2937 DATA
    __GLEW_EXT_pixel_buffer_object @2938 DATA
    __GLEW_EXT_pixel_transform @2939 DATA
    __GLEW_EXT_pixel_transform_color_table @2940 DATA
    __GLEW_EXT_point_parameters @2941 DATA
    __GLEW_EXT_polygon_offset @2942 DATA
    __GLEW_EXT_provoking_vertex @2943 DATA
    __GLEW_EXT_rescale_normal @2944 DATA
    __GLEW_EXT_scene_marker @2945 DATA
    __GLEW_EXT_secondary_color @2946 DATA
    __GLEW_EXT_separate_shader_objects @2947 DATA
    __GLEW_EXT_separate_specular_color @2948 DATA
    __GLEW_EXT_shader_image_load_store @2949 DATA
    __GLEW_EXT_shadow_funcs @2950 DATA
    __GLEW_EXT_shared_texture_palette @2951 DATA
    __GLEW_EXT_stencil_clear_tag @2952 DATA
    __GLEW_EXT_stencil_two_side @2953 DATA
    __GLEW_EXT_stencil_wrap @2954 DATA
    __GLEW_EXT_subtexture @2955 DATA
    __GLEW_EXT_texture @2956 DATA
    __GLEW_EXT_texture3D @2957 DATA
    __GLEW_EXT_texture_array @2958 DATA
    __GLEW_EXT_texture_buffer_object @2959 DATA
    __GLEW_EXT_texture_compression_dxt1 @2960 DATA
    __GLEW_EXT_texture_compression_latc @2961 DATA
    __GLEW_EXT_texture_compression_rgtc @2962 DATA
    __GLEW_EXT_texture_compression_s3tc @2963 DATA
    __GLEW_EXT_texture_cube_map @2964 DATA
    __GLEW_EXT_texture_edge_clamp @2965 DATA
    __GLEW_EXT_texture_env @2966 DATA
    __GLEW_EXT_texture_env_add @2967 DATA
    __GLEW_EXT_texture_env_combine @2968 DATA
    __GLEW_EXT_texture_env_dot3 @2969 DATA
    __GLEW_EXT_texture_filter_anisotropic @2970 DATA
    __GLEW_EXT_texture_integer @2971 DATA
    __GLEW_EXT_texture_lod_bias @2972 DATA
    __GLEW_EXT_texture_mirror_clamp @2973 DATA
    __GLEW_EXT_texture_object @2974 DATA
    __GLEW_EXT_texture_perturb_normal @2975 DATA
    __GLEW_EXT_texture_rectangle @2976 DATA
    __GLEW_EXT_texture_sRGB @2977 DATA
    __GLEW_EXT_texture_sRGB_decode @2978 DATA
    __GLEW_EXT_texture_shared_exponent @2979 DATA
    __GLEW_EXT_texture_snorm @2980 DATA
    __GLEW_EXT_texture_swizzle @2981 DATA
    __GLEW_EXT_timer_query @2982 DATA
    __GLEW_EXT_transform_feedback @2983 DATA
    __GLEW_EXT_vertex_array @2984 DATA
    __GLEW_EXT_vertex_array_bgra @2985 DATA
    __GLEW_EXT_vertex_attrib_64bit @2986 DATA
    __GLEW_EXT_vertex_shader @2987 DATA
    __GLEW_EXT_vertex_weighting @2988 DATA
    __GLEW_EXT_x11_sync_object @2989 DATA
    __GLEW_GREMEDY_frame_terminator @2990 DATA
    __GLEW_GREMEDY_string_marker @2991 DATA
    __GLEW_HP_convolution_border_modes @2992 DATA
    __GLEW_HP_image_transform @2993 DATA
    __GLEW_HP_occlusion_test @2994 DATA
    __GLEW_HP_texture_lighting @2995 DATA
    __GLEW_IBM_cull_vertex @2996 DATA
    __GLEW_IBM_multimode_draw_arrays @2997 DATA
    __GLEW_IBM_rasterpos_clip @2998 DATA
    __GLEW_IBM_static_data @2999 DATA
    __GLEW_IBM_texture_mirrored_repeat @3000 DATA
    __GLEW_IBM_vertex_array_lists @3001 DATA
    __GLEW_INGR_color_clamp @3002 DATA
    __GLEW_INGR_interlace_read @3003 DATA
    __GLEW_INTEL_parallel_arrays @3004 DATA
    __GLEW_INTEL_texture_scissor @3005 DATA
    __GLEW_KTX_buffer_region @3006 DATA
    __GLEW_MESAX_texture_stack @3007 DATA
    __GLEW_MESA_pack_invert @3008 DATA
    __GLEW_MESA_resize_buffers @3009 DATA
    __GLEW_MESA_window_pos @3010 DATA
    __GLEW_MESA_ycbcr_texture @3011 DATA
    __GLEW_NVX_gpu_memory_info @3012 DATA
    __GLEW_NV_blend_square @3013 DATA
    __GLEW_NV_conditional_render @3014 DATA
    __GLEW_NV_copy_depth_to_color @3015 DATA
    __GLEW_NV_copy_image @3016 DATA
    __GLEW_NV_depth_buffer_float @3017 DATA
    __GLEW_NV_depth_clamp @3018 DATA
    __GLEW_NV_depth_range_unclamped @3019 DATA
    __GLEW_NV_evaluators @3020 DATA
    __GLEW_NV_explicit_multisample @3021 DATA
    __GLEW_NV_fence @3022 DATA
    __GLEW_NV_float_buffer @3023 DATA
    __GLEW_NV_fog_distance @3024 DATA
    __GLEW_NV_fragment_program @3025 DATA
    __GLEW_NV_fragment_program2 @3026 DATA
    __GLEW_NV_fragment_program4 @3027 DATA
    __GLEW_NV_fragment_program_option @3028 DATA
    __GLEW_NV_framebuffer_multisample_coverage @3029 DATA
    __GLEW_NV_geometry_program4 @3030 DATA
    __GLEW_NV_geometry_shader4 @3031 DATA
    __GLEW_NV_gpu_program4 @3032 DATA
    __GLEW_NV_gpu_program5 @3033 DATA
    __GLEW_NV_gpu_program_fp64 @3034 DATA
    __GLEW_NV_gpu_shader5 @3035 DATA
    __GLEW_NV_half_float @3036 DATA
    __GLEW_NV_light_max_exponent @3037 DATA
    __GLEW_NV_multisample_coverage @3038 DATA
    __GLEW_NV_multisample_filter_hint @3039 DATA
    __GLEW_NV_occlusion_query @3040 DATA
    __GLEW_NV_packed_depth_stencil @3041 DATA
    __GLEW_NV_parameter_buffer_object @3042 DATA
    __GLEW_NV_parameter_buffer_object2 @3043 DATA
    __GLEW_NV_pixel_data_range @3044 DATA
    __GLEW_NV_point_sprite @3045 DATA
    __GLEW_NV_present_video @3046 DATA
    __GLEW_NV_primitive_restart @3047 DATA
    __GLEW_NV_register_combiners @3048 DATA
    __GLEW_NV_register_combiners2 @3049 DATA
    __GLEW_NV_shader_buffer_load @3050 DATA
    __GLEW_NV_tessellation_program5 @3051 DATA
    __GLEW_NV_texgen_emboss @3052 DATA
    __GLEW_NV_texgen_reflection @3053 DATA
    __GLEW_NV_texture_barrier @3054 DATA
    __GLEW_NV_texture_compression_vtc @3055 DATA
    __GLEW_NV_texture_env_combine4 @3056 DATA
    __GLEW_NV_texture_expand_normal @3057 DATA
    __GLEW_NV_texture_multisample @3058 DATA
    __GLEW_NV_texture_rectangle @3059 DATA
    __GLEW_NV_texture_shader @3060 DATA
    __GLEW_NV_texture_shader2 @3061 DATA
    __GLEW_NV_texture_shader3 @3062 DATA
    __GLEW_NV_transform_feedback @3063 DATA
    __GLEW_NV_transform_feedback2 @3064 DATA
    __GLEW_NV_vdpau_interop @3065 DATA
    __GLEW_NV_vertex_array_range @3066 DATA
    __GLEW_NV_vertex_array_range2 @3067 DATA
    __GLEW_NV_vertex_attrib_integer_64bit @3068 DATA
    __GLEW_NV_vertex_buffer_unified_memory @3069 DATA
    __GLEW_NV_vertex_program @3070 DATA
    __GLEW_NV_vertex_program1_1 @3071 DATA
    __GLEW_NV_vertex_program2 @3072 DATA
    __GLEW_NV_vertex_program2_option @3073 DATA
    __GLEW_NV_vertex_program3 @3074 DATA
    __GLEW_NV_vertex_program4 @3075 DATA
    __GLEW_NV_video_capture @3076 DATA
    __GLEW_OES_byte_coordinates @3077 DATA
    __GLEW_OES_compressed_paletted_texture @3078 DATA
    __GLEW_OES_read_format @3079 DATA
    __GLEW_OES_single_precision @3080 DATA
    __GLEW_OML_interlace @3081 DATA
    __GLEW_OML_resample @3082 DATA
    __GLEW_OML_subsample @3083 DATA
    __GLEW_PGI_misc_hints @3084 DATA
    __GLEW_PGI_vertex_hints @3085 DATA
    __GLEW_REND_screen_coordinates @3086 DATA
    __GLEW_S3_s3tc @3087 DATA
    __GLEW_SGIS_color_range @3088 DATA
    __GLEW_SGIS_detail_texture @3089 DATA
    __GLEW_SGIS_fog_function @3090 DATA
    __GLEW_SGIS_generate_mipmap @3091 DATA
    __GLEW_SGIS_multisample @3092 DATA
    __GLEW_SGIS_pixel_texture @3093 DATA
    __GLEW_SGIS_point_line_texgen @3094 DATA
    __GLEW_SGIS_sharpen_texture @3095 DATA
    __GLEW_SGIS_texture4D @3096 DATA
    __GLEW_SGIS_texture_border_clamp @3097 DATA
    __GLEW_SGIS_texture_edge_clamp @3098 DATA
    __GLEW_SGIS_texture_filter4 @3099 DATA
    __GLEW_SGIS_texture_lod @3100 DATA
    __GLEW_SGIS_texture_select @3101 DATA
    __GLEW_SGIX_async @3102 DATA
    __GLEW_SGIX_async_histogram @3103 DATA
    __GLEW_SGIX_async_pixel @3104 DATA
    __GLEW_SGIX_blend_alpha_minmax @3105 DATA
    __GLEW_SGIX_clipmap @3106 DATA
    __GLEW_SGIX_convolution_accuracy @3107 DATA
    __GLEW_SGIX_depth_texture @3108 DATA
    __GLEW_SGIX_flush_raster @3109 DATA
    __GLEW_SGIX_fog_offset @3110 DATA
    __GLEW_SGIX_fog_texture @3111 DATA
    __GLEW_SGIX_fragment_specular_lighting @3112 DATA
    __GLEW_SGIX_framezoom @3113 DATA
    __GLEW_SGIX_interlace @3114 DATA
    __GLEW_SGIX_ir_instrument1 @3115 DATA
    __GLEW_SGIX_list_priority @3116 DATA
    __GLEW_SGIX_pixel_texture @3117 DATA
    __GLEW_SGIX_pixel_texture_bits @3118 DATA
    __GLEW_SGIX_reference_plane @3119 DATA
    __GLEW_SGIX_resample @3120 DATA
    __GLEW_SGIX_shadow @3121 DATA
    __GLEW_SGIX_shadow_ambient @3122 DATA
    __GLEW_SGIX_sprite @3123 DATA
    __GLEW_SGIX_tag_sample_buffer @3124 DATA
    __GLEW_SGIX_texture_add_env @3125 DATA
    __GLEW_SGIX_texture_coordinate_clamp @3126 DATA
    __GLEW_SGIX_texture_lod_bias @3127 DATA
    __GLEW_SGIX_texture_multi_buffer @3128 DATA
    __GLEW_SGIX_texture_range @3129 DATA
    __GLEW_SGIX_texture_scale_bias @3130 DATA
    __GLEW_SGIX_vertex_preclip @3131 DATA
    __GLEW_SGIX_vertex_preclip_hint @3132 DATA
    __GLEW_SGIX_ycrcb @3133 DATA
    __GLEW_SGI_color_matrix @3134 DATA
    __GLEW_SGI_color_table @3135 DATA
    __GLEW_SGI_texture_color_table @3136 DATA
    __GLEW_SUNX_constant_data @3137 DATA
    __GLEW_SUN_convolution_border_modes @3138 DATA
    __GLEW_SUN_global_alpha @3139 DATA
    __GLEW_SUN_mesh_array @3140 DATA
    __GLEW_SUN_read_video_pixels @3141 DATA
    __GLEW_SUN_slice_accum @3142 DATA
    __GLEW_SUN_triangle_list @3143 DATA
    __GLEW_SUN_vertex @3144 DATA
    __GLEW_VERSION_1_1 @3145 DATA
    __GLEW_VERSION_1_2 @3146 DATA
    __GLEW_VERSION_1_2_1 @3147 DATA
    __GLEW_VERSION_1_3 @3148 DATA
    __GLEW_VERSION_1_4 @3149 DATA
    __GLEW_VERSION_1_5 @3150 DATA
    __GLEW_VERSION_2_0 @3151 DATA
    __GLEW_VERSION_2_1 @3152 DATA
    __GLEW_VERSION_3_0 @3153 DATA
    __GLEW_VERSION_3_1 @3154 DATA
    __GLEW_VERSION_3_2 @3155 DATA
    __GLEW_VERSION_3_3 @3156 DATA
    __GLEW_VERSION_4_0 @3157 DATA
    __GLEW_VERSION_4_1 @3158 DATA
    __GLEW_WIN_phong_shading @3159 DATA
    __GLEW_WIN_specular_fog @3160 DATA
    __GLEW_WIN_swap_hint @3161 DATA
    __WGLEW_3DFX_multisample @3162 DATA
    __WGLEW_3DL_stereo_control @3163 DATA
    __WGLEW_AMD_gpu_association @3164 DATA
    __WGLEW_ARB_buffer_region @3165 DATA
    __WGLEW_ARB_create_context @3166 DATA
    __WGLEW_ARB_create_context_profile @3167 DATA
    __WGLEW_ARB_create_context_robustness @3168 DATA
    __WGLEW_ARB_extensions_string @3169 DATA
    __WGLEW_ARB_framebuffer_sRGB @3170 DATA
    __WGLEW_ARB_make_current_read @3171 DATA
    __WGLEW_ARB_multisample @3172 DATA
    __WGLEW_ARB_pbuffer @3173 DATA
    __WGLEW_ARB_pixel_format @3174 DATA
    __WGLEW_ARB_pixel_format_float @3175 DATA
    __WGLEW_ARB_render_texture @3176 DATA
    __WGLEW_ATI_pixel_format_float @3177 DATA
    __WGLEW_ATI_render_texture_rectangle @3178 DATA
    __WGLEW_EXT_create_context_es2_profile @3179 DATA
    __WGLEW_EXT_depth_float @3180 DATA
    __WGLEW_EXT_display_color_table @3181 DATA
    __WGLEW_EXT_extensions_string @3182 DATA
    __WGLEW_EXT_framebuffer_sRGB @3183 DATA
    __WGLEW_EXT_make_current_read @3184 DATA
    __WGLEW_EXT_multisample @3185 DATA
    __WGLEW_EXT_pbuffer @3186 DATA
    __WGLEW_EXT_pixel_format @3187 DATA
    __WGLEW_EXT_pixel_format_packed_float @3188 DATA
    __WGLEW_EXT_swap_control @3189 DATA
    __WGLEW_I3D_digital_video_control @3190 DATA
    __WGLEW_I3D_gamma @3191 DATA
    __WGLEW_I3D_genlock @3192 DATA
    __WGLEW_I3D_image_buffer @3193 DATA
    __WGLEW_I3D_swap_frame_lock @3194 DATA
    __WGLEW_I3D_swap_frame_usage @3195 DATA
    __WGLEW_NV_DX_interop @3196 DATA
    __WGLEW_NV_copy_image @3197 DATA
    __WGLEW_NV_float_buffer @3198 DATA
    __WGLEW_NV_gpu_affinity @3199 DATA
    __WGLEW_NV_multisample_coverage @3200 DATA
    __WGLEW_NV_present_video @3201 DATA
    __WGLEW_NV_render_depth_texture @3202 DATA
    __WGLEW_NV_render_texture_rectangle @3203 DATA
    __WGLEW_NV_swap_group @3204 DATA
    __WGLEW_NV_vertex_array_range @3205 DATA
    __WGLEW_NV_video_capture @3206 DATA
    __WGLEW_NV_video_output @3207 DATA
    __WGLEW_OML_sync_control @3208 DATA
    __glewActiveProgramEXT @3209 DATA
    __glewActiveShaderProgram @3210 DATA
    __glewActiveStencilFaceEXT @3211 DATA
    __glewActiveTexture @3212 DATA
    __glewActiveTextureARB @3213 DATA
    __glewActiveVaryingNV @3214 DATA
    __glewAddSwapHintRectWIN @3215 DATA
    __glewAlphaFragmentOp1ATI @3216 DATA
    __glewAlphaFragmentOp2ATI @3217 DATA
    __glewAlphaFragmentOp3ATI @3218 DATA
    __glewApplyTextureEXT @3219 DATA
    __glewAreProgramsResidentNV @3220 DATA
    __glewAreTexturesResidentEXT @3221 DATA
    __glewArrayElementEXT @3222 DATA
    __glewArrayObjectATI @3223 DATA
    __glewAsyncMarkerSGIX @3224 DATA
    __glewAttachObjectARB @3225 DATA
    __glewAttachShader @3226 DATA
    __glewBeginConditionalRender @3227 DATA
    __glewBeginConditionalRenderNV @3228 DATA
    __glewBeginFragmentShaderATI @3229 DATA
    __glewBeginOcclusionQueryNV @3230 DATA
    __glewBeginPerfMonitorAMD @3231 DATA
    __glewBeginQuery @3232 DATA
    __glewBeginQueryARB @3233 DATA
    __glewBeginQueryIndexed @3234 DATA
    __glewBeginSceneEXT @3235 DATA
    __glewBeginTransformFeedback @3236 DATA
    __glewBeginTransformFeedbackEXT @3237 DATA
    __glewBeginTransformFeedbackNV @3238 DATA
    __glewBeginVertexShaderEXT @3239 DATA
    __glewBeginVideoCaptureNV @3240 DATA
    __glewBindAttribLocation @3241 DATA
    __glewBindAttribLocationARB @3242 DATA
    __glewBindBuffer @3243 DATA
    __glewBindBufferARB @3244 DATA
    __glewBindBufferBase @3245 DATA
    __glewBindBufferBaseEXT @3246 DATA
    __glewBindBufferBaseNV @3247 DATA
    __glewBindBufferOffsetEXT @3248 DATA
    __glewBindBufferOffsetNV @3249 DATA
    __glewBindBufferRange @3250 DATA
    __glewBindBufferRangeEXT @3251 DATA
    __glewBindBufferRangeNV @3252 DATA
    __glewBindFragDataLocation @3253 DATA
    __glewBindFragDataLocationEXT @3254 DATA
    __glewBindFragDataLocationIndexed @3255 DATA
    __glewBindFragmentShaderATI @3256 DATA
    __glewBindFramebuffer @3257 DATA
    __glewBindFramebufferEXT @3258 DATA
    __glewBindImageTextureEXT @3259 DATA
    __glewBindLightParameterEXT @3260 DATA
    __glewBindMaterialParameterEXT @3261 DATA
    __glewBindMultiTextureEXT @3262 DATA
    __glewBindParameterEXT @3263 DATA
    __glewBindProgramARB @3264 DATA
    __glewBindProgramNV @3265 DATA
    __glewBindProgramPipeline @3266 DATA
    __glewBindRenderbuffer @3267 DATA
    __glewBindRenderbufferEXT @3268 DATA
    __glewBindSampler @3269 DATA
    __glewBindTexGenParameterEXT @3270 DATA
    __glewBindTextureEXT @3271 DATA
    __glewBindTextureUnitParameterEXT @3272 DATA
    __glewBindTransformFeedback @3273 DATA
    __glewBindTransformFeedbackNV @3274 DATA
    __glewBindVertexArray @3275 DATA
    __glewBindVertexArrayAPPLE @3276 DATA
    __glewBindVertexShaderEXT @3277 DATA
    __glewBindVideoCaptureStreamBufferNV @3278 DATA
    __glewBindVideoCaptureStreamTextureNV @3279 DATA
    __glewBinormalPointerEXT @3280 DATA
    __glewBlendColor @3281 DATA
    __glewBlendColorEXT @3282 DATA
    __glewBlendEquation @3283 DATA
    __glewBlendEquationEXT @3284 DATA
    __glewBlendEquationIndexedAMD @3285 DATA
    __glewBlendEquationSeparate @3286 DATA
    __glewBlendEquationSeparateEXT @3287 DATA
    __glewBlendEquationSeparateIndexedAMD @3288 DATA
    __glewBlendEquationSeparatei @3289 DATA
    __glewBlendEquationSeparateiARB @3290 DATA
    __glewBlendEquationi @3291 DATA
    __glewBlendEquationiARB @3292 DATA
    __glewBlendFuncIndexedAMD @3293 DATA
    __glewBlendFuncSeparate @3294 DATA
    __glewBlendFuncSeparateEXT @3295 DATA
    __glewBlendFuncSeparateIndexedAMD @3296 DATA
    __glewBlendFuncSeparatei @3297 DATA
    __glewBlendFuncSeparateiARB @3298 DATA
    __glewBlendFunci @3299 DATA
    __glewBlendFunciARB @3300 DATA
    __glewBlitFramebuffer @3301 DATA
    __glewBlitFramebufferEXT @3302 DATA
    __glewBufferAddressRangeNV @3303 DATA
    __glewBufferData @3304 DATA
    __glewBufferDataARB @3305 DATA
    __glewBufferParameteriAPPLE @3306 DATA
    __glewBufferRegionEnabledEXT @3307 DATA
    __glewBufferSubData @3308 DATA
    __glewBufferSubDataARB @3309 DATA
    __glewCheckFramebufferStatus @3310 DATA
    __glewCheckFramebufferStatusEXT @3311 DATA
    __glewCheckNamedFramebufferStatusEXT @3312 DATA
    __glewClampColor @3313 DATA
    __glewClampColorARB @3314 DATA
    __glewClearBufferfi @3315 DATA
    __glewClearBufferfv @3316 DATA
    __glewClearBufferiv @3317 DATA
    __glewClearBufferuiv @3318 DATA
    __glewClearColorIiEXT @3319 DATA
    __glewClearColorIuiEXT @3320 DATA
    __glewClearDepthdNV @3321 DATA
    __glewClearDepthf @3322 DATA
    __glewClearDepthfOES @3323 DATA
    __glewClientActiveTexture @3324 DATA
    __glewClientActiveTextureARB @3325 DATA
    __glewClientActiveVertexStreamATI @3326 DATA
    __glewClientAttribDefaultEXT @3327 DATA
    __glewClientWaitSync @3328 DATA
    __glewClipPlanefOES @3329 DATA
    __glewColor3fVertex3fSUN @3330 DATA
    __glewColor3fVertex3fvSUN @3331 DATA
    __glewColor3hNV @3332 DATA
    __glewColor3hvNV @3333 DATA
    __glewColor4fNormal3fVertex3fSUN @3334 DATA
    __glewColor4fNormal3fVertex3fvSUN @3335 DATA
    __glewColor4hNV @3336 DATA
    __glewColor4hvNV @3337 DATA
    __glewColor4ubVertex2fSUN @3338 DATA
    __glewColor4ubVertex2fvSUN @3339 DATA
    __glewColor4ubVertex3fSUN @3340 DATA
    __glewColor4ubVertex3fvSUN @3341 DATA
    __glewColorFormatNV @3342 DATA
    __glewColorFragmentOp1ATI @3343 DATA
    __glewColorFragmentOp2ATI @3344 DATA
    __glewColorFragmentOp3ATI @3345 DATA
    __glewColorMaskIndexedEXT @3346 DATA
    __glewColorMaski @3347 DATA
    __glewColorP3ui @3348 DATA
    __glewColorP3uiv @3349 DATA
    __glewColorP4ui @3350 DATA
    __glewColorP4uiv @3351 DATA
    __glewColorPointerEXT @3352 DATA
    __glewColorPointerListIBM @3353 DATA
    __glewColorPointervINTEL @3354 DATA
    __glewColorSubTable @3355 DATA
    __glewColorSubTableEXT @3356 DATA
    __glewColorTable @3357 DATA
    __glewColorTableEXT @3358 DATA
    __glewColorTableParameterfv @3359 DATA
    __glewColorTableParameterfvSGI @3360 DATA
    __glewColorTableParameteriv @3361 DATA
    __glewColorTableParameterivSGI @3362 DATA
    __glewColorTableSGI @3363 DATA
    __glewCombinerInputNV @3364 DATA
    __glewCombinerOutputNV @3365 DATA
    __glewCombinerParameterfNV @3366 DATA
    __glewCombinerParameterfvNV @3367 DATA
    __glewCombinerParameteriNV @3368 DATA
    __glewCombinerParameterivNV @3369 DATA
    __glewCombinerStageParameterfvNV @3370 DATA
    __glewCompileShader @3371 DATA
    __glewCompileShaderARB @3372 DATA
    __glewCompileShaderIncludeARB @3373 DATA
    __glewCompressedMultiTexImage1DEXT @3374 DATA
    __glewCompressedMultiTexImage2DEXT @3375 DATA
    __glewCompressedMultiTexImage3DEXT @3376 DATA
    __glewCompressedMultiTexSubImage1DEXT @3377 DATA
    __glewCompressedMultiTexSubImage2DEXT @3378 DATA
    __glewCompressedMultiTexSubImage3DEXT @3379 DATA
    __glewCompressedTexImage1D @3380 DATA
    __glewCompressedTexImage1DARB @3381 DATA
    __glewCompressedTexImage2D @3382 DATA
    __glewCompressedTexImage2DARB @3383 DATA
    __glewCompressedTexImage3D @3384 DATA
    __glewCompressedTexImage3DARB @3385 DATA
    __glewCompressedTexSubImage1D @3386 DATA
    __glewCompressedTexSubImage1DARB @3387 DATA
    __glewCompressedTexSubImage2D @3388 DATA
    __glewCompressedTexSubImage2DARB @3389 DATA
    __glewCompressedTexSubImage3D @3390 DATA
    __glewCompressedTexSubImage3DARB @3391 DATA
    __glewCompressedTextureImage1DEXT @3392 DATA
    __glewCompressedTextureImage2DEXT @3393 DATA
    __glewCompressedTextureImage3DEXT @3394 DATA
    __glewCompressedTextureSubImage1DEXT @3395 DATA
    __glewCompressedTextureSubImage2DEXT @3396 DATA
    __glewCompressedTextureSubImage3DEXT @3397 DATA
    __glewConvolutionFilter1D @3398 DATA
    __glewConvolutionFilter1DEXT @3399 DATA
    __glewConvolutionFilter2D @3400 DATA
    __glewConvolutionFilter2DEXT @3401 DATA
    __glewConvolutionParameterf @3402 DATA
    __glewConvolutionParameterfEXT @3403 DATA
    __glewConvolutionParameterfv @3404 DATA
    __glewConvolutionParameterfvEXT @3405 DATA
    __glewConvolutionParameteri @3406 DATA
    __glewConvolutionParameteriEXT @3407 DATA
    __glewConvolutionParameteriv @3408 DATA
    __glewConvolutionParameterivEXT @3409 DATA
    __glewCopyBufferSubData @3410 DATA
    __glewCopyColorSubTable @3411 DATA
    __glewCopyColorSubTableEXT @3412 DATA
    __glewCopyColorTable @3413 DATA
    __glewCopyColorTableSGI @3414 DATA
    __glewCopyConvolutionFilter1D @3415 DATA
    __glewCopyConvolutionFilter1DEXT @3416 DATA
    __glewCopyConvolutionFilter2D @3417 DATA
    __glewCopyConvolutionFilter2DEXT @3418 DATA
    __glewCopyImageSubDataNV @3419 DATA
    __glewCopyMultiTexImage1DEXT @3420 DATA
    __glewCopyMultiTexImage2DEXT @3421 DATA
    __glewCopyMultiTexSubImage1DEXT @3422 DATA
    __glewCopyMultiTexSubImage2DEXT @3423 DATA
    __glewCopyMultiTexSubImage3DEXT @3424 DATA
    __glewCopyTexImage1DEXT @3425 DATA
    __glewCopyTexImage2DEXT @3426 DATA
    __glewCopyTexSubImage1DEXT @3427 DATA
    __glewCopyTexSubImage2DEXT @3428 DATA
    __glewCopyTexSubImage3D @3429 DATA
    __glewCopyTexSubImage3DEXT @3430 DATA
    __glewCopyTextureImage1DEXT @3431 DATA
    __glewCopyTextureImage2DEXT @3432 DATA
    __glewCopyTextureSubImage1DEXT @3433 DATA
    __glewCopyTextureSubImage2DEXT @3434 DATA
    __glewCopyTextureSubImage3DEXT @3435 DATA
    __glewCreateProgram @3436 DATA
    __glewCreateProgramObjectARB @3437 DATA
    __glewCreateShader @3438 DATA
    __glewCreateShaderObjectARB @3439 DATA
    __glewCreateShaderProgramEXT @3440 DATA
    __glewCreateShaderProgramv @3441 DATA
    __glewCreateSyncFromCLeventARB @3442 DATA
    __glewCullParameterdvEXT @3443 DATA
    __glewCullParameterfvEXT @3444 DATA
    __glewCurrentPaletteMatrixARB @3445 DATA
    __glewDebugMessageCallbackAMD @3446 DATA
    __glewDebugMessageCallbackARB @3447 DATA
    __glewDebugMessageControlARB @3448 DATA
    __glewDebugMessageEnableAMD @3449 DATA
    __glewDebugMessageInsertAMD @3450 DATA
    __glewDebugMessageInsertARB @3451 DATA
    __glewDeleteAsyncMarkersSGIX @3452 DATA
    __glewDeleteBufferRegionEXT @3453 DATA
    __glewDeleteBuffers @3454 DATA
    __glewDeleteBuffersARB @3455 DATA
    __glewDeleteFencesAPPLE @3456 DATA
    __glewDeleteFencesNV @3457 DATA
    __glewDeleteFragmentShaderATI @3458 DATA
    __glewDeleteFramebuffers @3459 DATA
    __glewDeleteFramebuffersEXT @3460 DATA
    __glewDeleteNamedStringARB @3461 DATA
    __glewDeleteNamesAMD @3462 DATA
    __glewDeleteObjectARB @3463 DATA
    __glewDeleteOcclusionQueriesNV @3464 DATA
    __glewDeletePerfMonitorsAMD @3465 DATA
    __glewDeleteProgram @3466 DATA
    __glewDeleteProgramPipelines @3467 DATA
    __glewDeleteProgramsARB @3468 DATA
    __glewDeleteProgramsNV @3469 DATA
    __glewDeleteQueries @3470 DATA
    __glewDeleteQueriesARB @3471 DATA
    __glewDeleteRenderbuffers @3472 DATA
    __glewDeleteRenderbuffersEXT @3473 DATA
    __glewDeleteSamplers @3474 DATA
    __glewDeleteShader @3475 DATA
    __glewDeleteSync @3476 DATA
    __glewDeleteTexturesEXT @3477 DATA
    __glewDeleteTransformFeedbacks @3478 DATA
    __glewDeleteTransformFeedbacksNV @3479 DATA
    __glewDeleteVertexArrays @3480 DATA
    __glewDeleteVertexArraysAPPLE @3481 DATA
    __glewDeleteVertexShaderEXT @3482 DATA
    __glewDepthBoundsEXT @3483 DATA
    __glewDepthBoundsdNV @3484 DATA
    __glewDepthRangeArrayv @3485 DATA
    __glewDepthRangeIndexed @3486 DATA
    __glewDepthRangedNV @3487 DATA
    __glewDepthRangef @3488 DATA
    __glewDepthRangefOES @3489 DATA
    __glewDetachObjectARB @3490 DATA
    __glewDetachShader @3491 DATA
    __glewDetailTexFuncSGIS @3492 DATA
    __glewDisableClientStateIndexedEXT @3493 DATA
    __glewDisableClientStateiEXT @3494 DATA
    __glewDisableIndexedEXT @3495 DATA
    __glewDisableVariantClientStateEXT @3496 DATA
    __glewDisableVertexArrayAttribEXT @3497 DATA
    __glewDisableVertexArrayEXT @3498 DATA
    __glewDisableVertexAttribAPPLE @3499 DATA
    __glewDisableVertexAttribArray @3500 DATA
    __glewDisableVertexAttribArrayARB @3501 DATA
    __glewDisablei @3502 DATA
    __glewDrawArraysEXT @3503 DATA
    __glewDrawArraysIndirect @3504 DATA
    __glewDrawArraysInstanced @3505 DATA
    __glewDrawArraysInstancedARB @3506 DATA
    __glewDrawArraysInstancedEXT @3507 DATA
    __glewDrawBufferRegionEXT @3508 DATA
    __glewDrawBuffers @3509 DATA
    __glewDrawBuffersARB @3510 DATA
    __glewDrawBuffersATI @3511 DATA
    __glewDrawElementArrayAPPLE @3512 DATA
    __glewDrawElementArrayATI @3513 DATA
    __glewDrawElementsBaseVertex @3514 DATA
    __glewDrawElementsIndirect @3515 DATA
    __glewDrawElementsInstanced @3516 DATA
    __glewDrawElementsInstancedARB @3517 DATA
    __glewDrawElementsInstancedBaseVertex @3518 DATA
    __glewDrawElementsInstancedEXT @3519 DATA
    __glewDrawRangeElementArrayAPPLE @3520 DATA
    __glewDrawRangeElementArrayATI @3521 DATA
    __glewDrawRangeElements @3522 DATA
    __glewDrawRangeElementsBaseVertex @3523 DATA
    __glewDrawRangeElementsEXT @3524 DATA
    __glewDrawTransformFeedback @3525 DATA
    __glewDrawTransformFeedbackNV @3526 DATA
    __glewDrawTransformFeedbackStream @3527 DATA
    __glewEdgeFlagFormatNV @3528 DATA
    __glewEdgeFlagPointerEXT @3529 DATA
    __glewEdgeFlagPointerListIBM @3530 DATA
    __glewElementPointerAPPLE @3531 DATA
    __glewElementPointerATI @3532 DATA
    __glewEnableClientStateIndexedEXT @3533 DATA
    __glewEnableClientStateiEXT @3534 DATA
    __glewEnableIndexedEXT @3535 DATA
    __glewEnableVariantClientStateEXT @3536 DATA
    __glewEnableVertexArrayAttribEXT @3537 DATA
    __glewEnableVertexArrayEXT @3538 DATA
    __glewEnableVertexAttribAPPLE @3539 DATA
    __glewEnableVertexAttribArray @3540 DATA
    __glewEnableVertexAttribArrayARB @3541 DATA
    __glewEnablei @3542 DATA
    __glewEndConditionalRender @3543 DATA
    __glewEndConditionalRenderNV @3544 DATA
    __glewEndFragmentShaderATI @3545 DATA
    __glewEndOcclusionQueryNV @3546 DATA
    __glewEndPerfMonitorAMD @3547 DATA
    __glewEndQuery @3548 DATA
    __glewEndQueryARB @3549 DATA
    __glewEndQueryIndexed @3550 DATA
    __glewEndSceneEXT @3551 DATA
    __glewEndTransformFeedback @3552 DATA
    __glewEndTransformFeedbackEXT @3553 DATA
    __glewEndTransformFeedbackNV @3554 DATA
    __glewEndVertexShaderEXT @3555 DATA
    __glewEndVideoCaptureNV @3556 DATA
    __glewEvalMapsNV @3557 DATA
    __glewExecuteProgramNV @3558 DATA
    __glewExtractComponentEXT @3559 DATA
    __glewFenceSync @3560 DATA
    __glewFinalCombinerInputNV @3561 DATA
    __glewFinishAsyncSGIX @3562 DATA
    __glewFinishFenceAPPLE @3563 DATA
    __glewFinishFenceNV @3564 DATA
    __glewFinishObjectAPPLE @3565 DATA
    __glewFinishTextureSUNX @3566 DATA
    __glewFlushMappedBufferRange @3567 DATA
    __glewFlushMappedBufferRangeAPPLE @3568 DATA
    __glewFlushMappedNamedBufferRangeEXT @3569 DATA
    __glewFlushPixelDataRangeNV @3570 DATA
    __glewFlushRasterSGIX @3571 DATA
    __glewFlushVertexArrayRangeAPPLE @3572 DATA
    __glewFlushVertexArrayRangeNV @3573 DATA
    __glewFogCoordFormatNV @3574 DATA
    __glewFogCoordPointer @3575 DATA
    __glewFogCoordPointerEXT @3576 DATA
    __glewFogCoordPointerListIBM @3577 DATA
    __glewFogCoordd @3578 DATA
    __glewFogCoorddEXT @3579 DATA
    __glewFogCoorddv @3580 DATA
    __glewFogCoorddvEXT @3581 DATA
    __glewFogCoordf @3582 DATA
    __glewFogCoordfEXT @3583 DATA
    __glewFogCoordfv @3584 DATA
    __glewFogCoordfvEXT @3585 DATA
    __glewFogCoordhNV @3586 DATA
    __glewFogCoordhvNV @3587 DATA
    __glewFogFuncSGIS @3588 DATA
    __glewFragmentColorMaterialEXT @3589 DATA
    __glewFragmentColorMaterialSGIX @3590 DATA
    __glewFragmentLightModelfEXT @3591 DATA
    __glewFragmentLightModelfSGIX @3592 DATA
    __glewFragmentLightModelfvEXT @3593 DATA
    __glewFragmentLightModelfvSGIX @3594 DATA
    __glewFragmentLightModeliEXT @3595 DATA
    __glewFragmentLightModeliSGIX @3596 DATA
    __glewFragmentLightModelivEXT @3597 DATA
    __glewFragmentLightModelivSGIX @3598 DATA
    __glewFragmentLightfEXT @3599 DATA
    __glewFragmentLightfSGIX @3600 DATA
    __glewFragmentLightfvEXT @3601 DATA
    __glewFragmentLightfvSGIX @3602 DATA
    __glewFragmentLightiEXT @3603 DATA
    __glewFragmentLightiSGIX @3604 DATA
    __glewFragmentLightivEXT @3605 DATA
    __glewFragmentLightivSGIX @3606 DATA
    __glewFragmentMaterialfEXT @3607 DATA
    __glewFragmentMaterialfSGIX @3608 DATA
    __glewFragmentMaterialfvEXT @3609 DATA
    __glewFragmentMaterialfvSGIX @3610 DATA
    __glewFragmentMaterialiEXT @3611 DATA
    __glewFragmentMaterialiSGIX @3612 DATA
    __glewFragmentMaterialivEXT @3613 DATA
    __glewFragmentMaterialivSGIX @3614 DATA
    __glewFrameTerminatorGREMEDY @3615 DATA
    __glewFrameZoomSGIX @3616 DATA
    __glewFramebufferDrawBufferEXT @3617 DATA
    __glewFramebufferDrawBuffersEXT @3618 DATA
    __glewFramebufferReadBufferEXT @3619 DATA
    __glewFramebufferRenderbuffer @3620 DATA
    __glewFramebufferRenderbufferEXT @3621 DATA
    __glewFramebufferTexture @3622 DATA
    __glewFramebufferTexture1D @3623 DATA
    __glewFramebufferTexture1DEXT @3624 DATA
    __glewFramebufferTexture2D @3625 DATA
    __glewFramebufferTexture2DEXT @3626 DATA
    __glewFramebufferTexture3D @3627 DATA
    __glewFramebufferTexture3DEXT @3628 DATA
    __glewFramebufferTextureARB @3629 DATA
    __glewFramebufferTextureEXT @3630 DATA
    __glewFramebufferTextureFaceARB @3631 DATA
    __glewFramebufferTextureFaceEXT @3632 DATA
    __glewFramebufferTextureLayer @3633 DATA
    __glewFramebufferTextureLayerARB @3634 DATA
    __glewFramebufferTextureLayerEXT @3635 DATA
    __glewFreeObjectBufferATI @3636 DATA
    __glewFrustumfOES @3637 DATA
    __glewGenAsyncMarkersSGIX @3638 DATA
    __glewGenBuffers @3639 DATA
    __glewGenBuffersARB @3640 DATA
    __glewGenFencesAPPLE @3641 DATA
    __glewGenFencesNV @3642 DATA
    __glewGenFragmentShadersATI @3643 DATA
    __glewGenFramebuffers @3644 DATA
    __glewGenFramebuffersEXT @3645 DATA
    __glewGenNamesAMD @3646 DATA
    __glewGenOcclusionQueriesNV @3647 DATA
    __glewGenPerfMonitorsAMD @3648 DATA
    __glewGenProgramPipelines @3649 DATA
    __glewGenProgramsARB @3650 DATA
    __glewGenProgramsNV @3651 DATA
    __glewGenQueries @3652 DATA
    __glewGenQueriesARB @3653 DATA
    __glewGenRenderbuffers @3654 DATA
    __glewGenRenderbuffersEXT @3655 DATA
    __glewGenSamplers @3656 DATA
    __glewGenSymbolsEXT @3657 DATA
    __glewGenTexturesEXT @3658 DATA
    __glewGenTransformFeedbacks @3659 DATA
    __glewGenTransformFeedbacksNV @3660 DATA
    __glewGenVertexArrays @3661 DATA
    __glewGenVertexArraysAPPLE @3662 DATA
    __glewGenVertexShadersEXT @3663 DATA
    __glewGenerateMipmap @3664 DATA
    __glewGenerateMipmapEXT @3665 DATA
    __glewGenerateMultiTexMipmapEXT @3666 DATA
    __glewGenerateTextureMipmapEXT @3667 DATA
    __glewGetActiveAttrib @3668 DATA
    __glewGetActiveAttribARB @3669 DATA
    __glewGetActiveSubroutineName @3670 DATA
    __glewGetActiveSubroutineUniformName @3671 DATA
    __glewGetActiveSubroutineUniformiv @3672 DATA
    __glewGetActiveUniform @3673 DATA
    __glewGetActiveUniformARB @3674 DATA
    __glewGetActiveUniformBlockName @3675 DATA
    __glewGetActiveUniformBlockiv @3676 DATA
    __glewGetActiveUniformName @3677 DATA
    __glewGetActiveUniformsiv @3678 DATA
    __glewGetActiveVaryingNV @3679 DATA
    __glewGetArrayObjectfvATI @3680 DATA
    __glewGetArrayObjectivATI @3681 DATA
    __glewGetAttachedObjectsARB @3682 DATA
    __glewGetAttachedShaders @3683 DATA
    __glewGetAttribLocation @3684 DATA
    __glewGetAttribLocationARB @3685 DATA
    __glewGetBooleanIndexedvEXT @3686 DATA
    __glewGetBooleani_v @3687 DATA
    __glewGetBufferParameteri64v @3688 DATA
    __glewGetBufferParameteriv @3689 DATA
    __glewGetBufferParameterivARB @3690 DATA
    __glewGetBufferParameterui64vNV @3691 DATA
    __glewGetBufferPointerv @3692 DATA
    __glewGetBufferPointervARB @3693 DATA
    __glewGetBufferSubData @3694 DATA
    __glewGetBufferSubDataARB @3695 DATA
    __glewGetClipPlanefOES @3696 DATA
    __glewGetColorTable @3697 DATA
    __glewGetColorTableEXT @3698 DATA
    __glewGetColorTableParameterfv @3699 DATA
    __glewGetColorTableParameterfvEXT @3700 DATA
    __glewGetColorTableParameterfvSGI @3701 DATA
    __glewGetColorTableParameteriv @3702 DATA
    __glewGetColorTableParameterivEXT @3703 DATA
    __glewGetColorTableParameterivSGI @3704 DATA
    __glewGetColorTableSGI @3705 DATA
    __glewGetCombinerInputParameterfvNV @3706 DATA
    __glewGetCombinerInputParameterivNV @3707 DATA
    __glewGetCombinerOutputParameterfvNV @3708 DATA
    __glewGetCombinerOutputParameterivNV @3709 DATA
    __glewGetCombinerStageParameterfvNV @3710 DATA
    __glewGetCompressedMultiTexImageEXT @3711 DATA
    __glewGetCompressedTexImage @3712 DATA
    __glewGetCompressedTexImageARB @3713 DATA
    __glewGetCompressedTextureImageEXT @3714 DATA
    __glewGetConvolutionFilter @3715 DATA
    __glewGetConvolutionFilterEXT @3716 DATA
    __glewGetConvolutionParameterfv @3717 DATA
    __glewGetConvolutionParameterfvEXT @3718 DATA
    __glewGetConvolutionParameteriv @3719 DATA
    __glewGetConvolutionParameterivEXT @3720 DATA
    __glewGetDebugMessageLogAMD @3721 DATA
    __glewGetDebugMessageLogARB @3722 DATA
    __glewGetDetailTexFuncSGIS @3723 DATA
    __glewGetDoubleIndexedvEXT @3724 DATA
    __glewGetDoublei_v @3725 DATA
    __glewGetDoublei_vEXT @3726 DATA
    __glewGetFenceivNV @3727 DATA
    __glewGetFinalCombinerInputParameterfvNV @3728 DATA
    __glewGetFinalCombinerInputParameterivNV @3729 DATA
    __glewGetFloatIndexedvEXT @3730 DATA
    __glewGetFloati_v @3731 DATA
    __glewGetFloati_vEXT @3732 DATA
    __glewGetFogFuncSGIS @3733 DATA
    __glewGetFragDataIndex @3734 DATA
    __glewGetFragDataLocation @3735 DATA
    __glewGetFragDataLocationEXT @3736 DATA
    __glewGetFragmentLightfvEXT @3737 DATA
    __glewGetFragmentLightfvSGIX @3738 DATA
    __glewGetFragmentLightivEXT @3739 DATA
    __glewGetFragmentLightivSGIX @3740 DATA
    __glewGetFragmentMaterialfvEXT @3741 DATA
    __glewGetFragmentMaterialfvSGIX @3742 DATA
    __glewGetFragmentMaterialivEXT @3743 DATA
    __glewGetFragmentMaterialivSGIX @3744 DATA
    __glewGetFramebufferAttachmentParameteriv @3745 DATA
    __glewGetFramebufferAttachmentParameterivEXT @3746 DATA
    __glewGetFramebufferParameterivEXT @3747 DATA
    __glewGetHandleARB @3748 DATA
    __glewGetHistogram @3749 DATA
    __glewGetHistogramEXT @3750 DATA
    __glewGetHistogramParameterfv @3751 DATA
    __glewGetHistogramParameterfvEXT @3752 DATA
    __glewGetHistogramParameteriv @3753 DATA
    __glewGetHistogramParameterivEXT @3754 DATA
    __glewGetImageTransformParameterfvHP @3755 DATA
    __glewGetImageTransformParameterivHP @3756 DATA
    __glewGetInfoLogARB @3757 DATA
    __glewGetInteger64i_v @3758 DATA
    __glewGetInteger64v @3759 DATA
    __glewGetIntegerIndexedvEXT @3760 DATA
    __glewGetIntegeri_v @3761 DATA
    __glewGetIntegerui64i_vNV @3762 DATA
    __glewGetIntegerui64vNV @3763 DATA
    __glewGetInvariantBooleanvEXT @3764 DATA
    __glewGetInvariantFloatvEXT @3765 DATA
    __glewGetInvariantIntegervEXT @3766 DATA
    __glewGetLocalConstantBooleanvEXT @3767 DATA
    __glewGetLocalConstantFloatvEXT @3768 DATA
    __glewGetLocalConstantIntegervEXT @3769 DATA
    __glewGetMapAttribParameterfvNV @3770 DATA
    __glewGetMapAttribParameterivNV @3771 DATA
    __glewGetMapControlPointsNV @3772 DATA
    __glewGetMapParameterfvNV @3773 DATA
    __glewGetMapParameterivNV @3774 DATA
    __glewGetMinmax @3775 DATA
    __glewGetMinmaxEXT @3776 DATA
    __glewGetMinmaxParameterfv @3777 DATA
    __glewGetMinmaxParameterfvEXT @3778 DATA
    __glewGetMinmaxParameteriv @3779 DATA
    __glewGetMinmaxParameterivEXT @3780 DATA
    __glewGetMultiTexEnvfvEXT @3781 DATA
    __glewGetMultiTexEnvivEXT @3782 DATA
    __glewGetMultiTexGendvEXT @3783 DATA
    __glewGetMultiTexGenfvEXT @3784 DATA
    __glewGetMultiTexGenivEXT @3785 DATA
    __glewGetMultiTexImageEXT @3786 DATA
    __glewGetMultiTexLevelParameterfvEXT @3787 DATA
    __glewGetMultiTexLevelParameterivEXT @3788 DATA
    __glewGetMultiTexParameterIivEXT @3789 DATA
    __glewGetMultiTexParameterIuivEXT @3790 DATA
    __glewGetMultiTexParameterfvEXT @3791 DATA
    __glewGetMultiTexParameterivEXT @3792 DATA
    __glewGetMultisamplefv @3793 DATA
    __glewGetMultisamplefvNV @3794 DATA
    __glewGetNamedBufferParameterivEXT @3795 DATA
    __glewGetNamedBufferParameterui64vNV @3796 DATA
    __glewGetNamedBufferPointervEXT @3797 DATA
    __glewGetNamedBufferSubDataEXT @3798 DATA
    __glewGetNamedFramebufferAttachmentParameterivEXT @3799 DATA
    __glewGetNamedProgramLocalParameterIivEXT @3800 DATA
    __glewGetNamedProgramLocalParameterIuivEXT @3801 DATA
    __glewGetNamedProgramLocalParameterdvEXT @3802 DATA
    __glewGetNamedProgramLocalParameterfvEXT @3803 DATA
    __glewGetNamedProgramStringEXT @3804 DATA
    __glewGetNamedProgramivEXT @3805 DATA
    __glewGetNamedRenderbufferParameterivEXT @3806 DATA
    __glewGetNamedStringARB @3807 DATA
    __glewGetNamedStringivARB @3808 DATA
    __glewGetObjectBufferfvATI @3809 DATA
    __glewGetObjectBufferivATI @3810 DATA
    __glewGetObjectParameterfvARB @3811 DATA
    __glewGetObjectParameterivAPPLE @3812 DATA
    __glewGetObjectParameterivARB @3813 DATA
    __glewGetOcclusionQueryivNV @3814 DATA
    __glewGetOcclusionQueryuivNV @3815 DATA
    __glewGetPerfMonitorCounterDataAMD @3816 DATA
    __glewGetPerfMonitorCounterInfoAMD @3817 DATA
    __glewGetPerfMonitorCounterStringAMD @3818 DATA
    __glewGetPerfMonitorCountersAMD @3819 DATA
    __glewGetPerfMonitorGroupStringAMD @3820 DATA
    __glewGetPerfMonitorGroupsAMD @3821 DATA
    __glewGetPixelTransformParameterfvEXT @3822 DATA
    __glewGetPixelTransformParameterivEXT @3823 DATA
    __glewGetPointerIndexedvEXT @3824 DATA
    __glewGetPointeri_vEXT @3825 DATA
    __glewGetProgramBinary @3826 DATA
    __glewGetProgramEnvParameterdvARB @3827 DATA
    __glewGetProgramEnvParameterfvARB @3828 DATA
    __glewGetProgramInfoLog @3829 DATA
    __glewGetProgramLocalParameterdvARB @3830 DATA
    __glewGetProgramLocalParameterfvARB @3831 DATA
    __glewGetProgramNamedParameterdvNV @3832 DATA
    __glewGetProgramNamedParameterfvNV @3833 DATA
    __glewGetProgramParameterdvNV @3834 DATA
    __glewGetProgramParameterfvNV @3835 DATA
    __glewGetProgramPipelineInfoLog @3836 DATA
    __glewGetProgramPipelineiv @3837 DATA
    __glewGetProgramStageiv @3838 DATA
    __glewGetProgramStringARB @3839 DATA
    __glewGetProgramStringNV @3840 DATA
    __glewGetProgramiv @3841 DATA
    __glewGetProgramivARB @3842 DATA
    __glewGetProgramivNV @3843 DATA
    __glewGetQueryIndexediv @3844 DATA
    __glewGetQueryObjecti64v @3845 DATA
    __glewGetQueryObjecti64vEXT @3846 DATA
    __glewGetQueryObjectiv @3847 DATA
    __glewGetQueryObjectivARB @3848 DATA
    __glewGetQueryObjectui64v @3849 DATA
    __glewGetQueryObjectui64vEXT @3850 DATA
    __glewGetQueryObjectuiv @3851 DATA
    __glewGetQueryObjectuivARB @3852 DATA
    __glewGetQueryiv @3853 DATA
    __glewGetQueryivARB @3854 DATA
    __glewGetRenderbufferParameteriv @3855 DATA
    __glewGetRenderbufferParameterivEXT @3856 DATA
    __glewGetSamplerParameterIiv @3857 DATA
    __glewGetSamplerParameterIuiv @3858 DATA
    __glewGetSamplerParameterfv @3859 DATA
    __glewGetSamplerParameteriv @3860 DATA
    __glewGetSeparableFilter @3861 DATA
    __glewGetSeparableFilterEXT @3862 DATA
    __glewGetShaderInfoLog @3863 DATA
    __glewGetShaderPrecisionFormat @3864 DATA
    __glewGetShaderSource @3865 DATA
    __glewGetShaderSourceARB @3866 DATA
    __glewGetShaderiv @3867 DATA
    __glewGetSharpenTexFuncSGIS @3868 DATA
    __glewGetStringi @3869 DATA
    __glewGetSubroutineIndex @3870 DATA
    __glewGetSubroutineUniformLocation @3871 DATA
    __glewGetSynciv @3872 DATA
    __glewGetTexBumpParameterfvATI @3873 DATA
    __glewGetTexBumpParameterivATI @3874 DATA
    __glewGetTexFilterFuncSGIS @3875 DATA
    __glewGetTexParameterIiv @3876 DATA
    __glewGetTexParameterIivEXT @3877 DATA
    __glewGetTexParameterIuiv @3878 DATA
    __glewGetTexParameterIuivEXT @3879 DATA
    __glewGetTexParameterPointervAPPLE @3880 DATA
    __glewGetTextureImageEXT @3881 DATA
    __glewGetTextureLevelParameterfvEXT @3882 DATA
    __glewGetTextureLevelParameterivEXT @3883 DATA
    __glewGetTextureParameterIivEXT @3884 DATA
    __glewGetTextureParameterIuivEXT @3885 DATA
    __glewGetTextureParameterfvEXT @3886 DATA
    __glewGetTextureParameterivEXT @3887 DATA
    __glewGetTrackMatrixivNV @3888 DATA
    __glewGetTransformFeedbackVarying @3889 DATA
    __glewGetTransformFeedbackVaryingEXT @3890 DATA
    __glewGetTransformFeedbackVaryingNV @3891 DATA
    __glewGetUniformBlockIndex @3892 DATA
    __glewGetUniformBufferSizeEXT @3893 DATA
    __glewGetUniformIndices @3894 DATA
    __glewGetUniformLocation @3895 DATA
    __glewGetUniformLocationARB @3896 DATA
    __glewGetUniformOffsetEXT @3897 DATA
    __glewGetUniformSubroutineuiv @3898 DATA
    __glewGetUniformdv @3899 DATA
    __glewGetUniformfv @3900 DATA
    __glewGetUniformfvARB @3901 DATA
    __glewGetUniformi64vNV @3902 DATA
    __glewGetUniformiv @3903 DATA
    __glewGetUniformivARB @3904 DATA
    __glewGetUniformui64vNV @3905 DATA
    __glewGetUniformuiv @3906 DATA
    __glewGetUniformuivEXT @3907 DATA
    __glewGetVariantArrayObjectfvATI @3908 DATA
    __glewGetVariantArrayObjectivATI @3909 DATA
    __glewGetVariantBooleanvEXT @3910 DATA
    __glewGetVariantFloatvEXT @3911 DATA
    __glewGetVariantIntegervEXT @3912 DATA
    __glewGetVariantPointervEXT @3913 DATA
    __glewGetVaryingLocationNV @3914 DATA
    __glewGetVertexArrayIntegeri_vEXT @3915 DATA
    __glewGetVertexArrayIntegervEXT @3916 DATA
    __glewGetVertexArrayPointeri_vEXT @3917 DATA
    __glewGetVertexArrayPointervEXT @3918 DATA
    __glewGetVertexAttribArrayObjectfvATI @3919 DATA
    __glewGetVertexAttribArrayObjectivATI @3920 DATA
    __glewGetVertexAttribIiv @3921 DATA
    __glewGetVertexAttribIivEXT @3922 DATA
    __glewGetVertexAttribIuiv @3923 DATA
    __glewGetVertexAttribIuivEXT @3924 DATA
    __glewGetVertexAttribLdv @3925 DATA
    __glewGetVertexAttribLdvEXT @3926 DATA
    __glewGetVertexAttribLi64vNV @3927 DATA
    __glewGetVertexAttribLui64vNV @3928 DATA
    __glewGetVertexAttribPointerv @3929 DATA
    __glewGetVertexAttribPointervARB @3930 DATA
    __glewGetVertexAttribPointervNV @3931 DATA
    __glewGetVertexAttribdv @3932 DATA
    __glewGetVertexAttribdvARB @3933 DATA
    __glewGetVertexAttribdvNV @3934 DATA
    __glewGetVertexAttribfv @3935 DATA
    __glewGetVertexAttribfvARB @3936 DATA
    __glewGetVertexAttribfvNV @3937 DATA
    __glewGetVertexAttribiv @3938 DATA
    __glewGetVertexAttribivARB @3939 DATA
    __glewGetVertexAttribivNV @3940 DATA
    __glewGetVideoCaptureStreamdvNV @3941 DATA
    __glewGetVideoCaptureStreamfvNV @3942 DATA
    __glewGetVideoCaptureStreamivNV @3943 DATA
    __glewGetVideoCaptureivNV @3944 DATA
    __glewGetVideoi64vNV @3945 DATA
    __glewGetVideoivNV @3946 DATA
    __glewGetVideoui64vNV @3947 DATA
    __glewGetVideouivNV @3948 DATA
    __glewGetnColorTableARB @3949 DATA
    __glewGetnCompressedTexImageARB @3950 DATA
    __glewGetnConvolutionFilterARB @3951 DATA
    __glewGetnHistogramARB @3952 DATA
    __glewGetnMapdvARB @3953 DATA
    __glewGetnMapfvARB @3954 DATA
    __glewGetnMapivARB @3955 DATA
    __glewGetnMinmaxARB @3956 DATA
    __glewGetnPixelMapfvARB @3957 DATA
    __glewGetnPixelMapuivARB @3958 DATA
    __glewGetnPixelMapusvARB @3959 DATA
    __glewGetnPolygonStippleARB @3960 DATA
    __glewGetnSeparableFilterARB @3961 DATA
    __glewGetnTexImageARB @3962 DATA
    __glewGetnUniformdvARB @3963 DATA
    __glewGetnUniformfvARB @3964 DATA
    __glewGetnUniformivARB @3965 DATA
    __glewGetnUniformuivARB @3966 DATA
    __glewGlobalAlphaFactorbSUN @3967 DATA
    __glewGlobalAlphaFactordSUN @3968 DATA
    __glewGlobalAlphaFactorfSUN @3969 DATA
    __glewGlobalAlphaFactoriSUN @3970 DATA
    __glewGlobalAlphaFactorsSUN @3971 DATA
    __glewGlobalAlphaFactorubSUN @3972 DATA
    __glewGlobalAlphaFactoruiSUN @3973 DATA
    __glewGlobalAlphaFactorusSUN @3974 DATA
    __glewHistogram @3975 DATA
    __glewHistogramEXT @3976 DATA
    __glewImageTransformParameterfHP @3977 DATA
    __glewImageTransformParameterfvHP @3978 DATA
    __glewImageTransformParameteriHP @3979 DATA
    __glewImageTransformParameterivHP @3980 DATA
    __glewImportSyncEXT @3981 DATA
    __glewIndexFormatNV @3982 DATA
    __glewIndexFuncEXT @3983 DATA
    __glewIndexMaterialEXT @3984 DATA
    __glewIndexPointerEXT @3985 DATA
    __glewIndexPointerListIBM @3986 DATA
    __glewInsertComponentEXT @3987 DATA
    __glewIsAsyncMarkerSGIX @3988 DATA
    __glewIsBuffer @3989 DATA
    __glewIsBufferARB @3990 DATA
    __glewIsBufferResidentNV @3991 DATA
    __glewIsEnabledIndexedEXT @3992 DATA
    __glewIsEnabledi @3993 DATA
    __glewIsFenceAPPLE @3994 DATA
    __glewIsFenceNV @3995 DATA
    __glewIsFramebuffer @3996 DATA
    __glewIsFramebufferEXT @3997 DATA
    __glewIsNameAMD @3998 DATA
    __glewIsNamedBufferResidentNV @3999 DATA
    __glewIsNamedStringARB @4000 DATA
    __glewIsObjectBufferATI @4001 DATA
    __glewIsOcclusionQueryNV @4002 DATA
    __glewIsProgram @4003 DATA
    __glewIsProgramARB @4004 DATA
    __glewIsProgramNV @4005 DATA
    __glewIsProgramPipeline @4006 DATA
    __glewIsQuery @4007 DATA
    __glewIsQueryARB @4008 DATA
    __glewIsRenderbuffer @4009 DATA
    __glewIsRenderbufferEXT @4010 DATA
    __glewIsSampler @4011 DATA
    __glewIsShader @4012 DATA
    __glewIsSync @4013 DATA
    __glewIsTextureEXT @4014 DATA
    __glewIsTransformFeedback @4015 DATA
    __glewIsTransformFeedbackNV @4016 DATA
    __glewIsVariantEnabledEXT @4017 DATA
    __glewIsVertexArray @4018 DATA
    __glewIsVertexArrayAPPLE @4019 DATA
    __glewIsVertexAttribEnabledAPPLE @4020 DATA
    __glewLightEnviEXT @4021 DATA
    __glewLinkProgram @4022 DATA
    __glewLinkProgramARB @4023 DATA
    __glewLoadProgramNV @4024 DATA
    __glewLoadTransposeMatrixd @4025 DATA
    __glewLoadTransposeMatrixdARB @4026 DATA
    __glewLoadTransposeMatrixf @4027 DATA
    __glewLoadTransposeMatrixfARB @4028 DATA
    __glewLockArraysEXT @4029 DATA
    __glewMakeBufferNonResidentNV @4030 DATA
    __glewMakeBufferResidentNV @4031 DATA
    __glewMakeNamedBufferNonResidentNV @4032 DATA
    __glewMakeNamedBufferResidentNV @4033 DATA
    __glewMapBuffer @4034 DATA
    __glewMapBufferARB @4035 DATA
    __glewMapBufferRange @4036 DATA
    __glewMapControlPointsNV @4037 DATA
    __glewMapNamedBufferEXT @4038 DATA
    __glewMapNamedBufferRangeEXT @4039 DATA
    __glewMapObjectBufferATI @4040 DATA
    __glewMapParameterfvNV @4041 DATA
    __glewMapParameterivNV @4042 DATA
    __glewMapVertexAttrib1dAPPLE @4043 DATA
    __glewMapVertexAttrib1fAPPLE @4044 DATA
    __glewMapVertexAttrib2dAPPLE @4045 DATA
    __glewMapVertexAttrib2fAPPLE @4046 DATA
    __glewMatrixFrustumEXT @4047 DATA
    __glewMatrixIndexPointerARB @4048 DATA
    __glewMatrixIndexubvARB @4049 DATA
    __glewMatrixIndexuivARB @4050 DATA
    __glewMatrixIndexusvARB @4051 DATA
    __glewMatrixLoadIdentityEXT @4052 DATA
    __glewMatrixLoadTransposedEXT @4053 DATA
    __glewMatrixLoadTransposefEXT @4054 DATA
    __glewMatrixLoaddEXT @4055 DATA
    __glewMatrixLoadfEXT @4056 DATA
    __glewMatrixMultTransposedEXT @4057 DATA
    __glewMatrixMultTransposefEXT @4058 DATA
    __glewMatrixMultdEXT @4059 DATA
    __glewMatrixMultfEXT @4060 DATA
    __glewMatrixOrthoEXT @4061 DATA
    __glewMatrixPopEXT @4062 DATA
    __glewMatrixPushEXT @4063 DATA
    __glewMatrixRotatedEXT @4064 DATA
    __glewMatrixRotatefEXT @4065 DATA
    __glewMatrixScaledEXT @4066 DATA
    __glewMatrixScalefEXT @4067 DATA
    __glewMatrixTranslatedEXT @4068 DATA
    __glewMatrixTranslatefEXT @4069 DATA
    __glewMemoryBarrierEXT @4070 DATA
    __glewMinSampleShading @4071 DATA
    __glewMinSampleShadingARB @4072 DATA
    __glewMinmax @4073 DATA
    __glewMinmaxEXT @4074 DATA
    __glewMultTransposeMatrixd @4075 DATA
    __glewMultTransposeMatrixdARB @4076 DATA
    __glewMultTransposeMatrixf @4077 DATA
    __glewMultTransposeMatrixfARB @4078 DATA
    __glewMultiDrawArrays @4079 DATA
    __glewMultiDrawArraysEXT @4080 DATA
    __glewMultiDrawElementArrayAPPLE @4081 DATA
    __glewMultiDrawElements @4082 DATA
    __glewMultiDrawElementsBaseVertex @4083 DATA
    __glewMultiDrawElementsEXT @4084 DATA
    __glewMultiDrawRangeElementArrayAPPLE @4085 DATA
    __glewMultiModeDrawArraysIBM @4086 DATA
    __glewMultiModeDrawElementsIBM @4087 DATA
    __glewMultiTexBufferEXT @4088 DATA
    __glewMultiTexCoord1d @4089 DATA
    __glewMultiTexCoord1dARB @4090 DATA
    __glewMultiTexCoord1dv @4091 DATA
    __glewMultiTexCoord1dvARB @4092 DATA
    __glewMultiTexCoord1f @4093 DATA
    __glewMultiTexCoord1fARB @4094 DATA
    __glewMultiTexCoord1fv @4095 DATA
    __glewMultiTexCoord1fvARB @4096 DATA
    __glewMultiTexCoord1hNV @4097 DATA
    __glewMultiTexCoord1hvNV @4098 DATA
    __glewMultiTexCoord1i @4099 DATA
    __glewMultiTexCoord1iARB @4100 DATA
    __glewMultiTexCoord1iv @4101 DATA
    __glewMultiTexCoord1ivARB @4102 DATA
    __glewMultiTexCoord1s @4103 DATA
    __glewMultiTexCoord1sARB @4104 DATA
    __glewMultiTexCoord1sv @4105 DATA
    __glewMultiTexCoord1svARB @4106 DATA
    __glewMultiTexCoord2d @4107 DATA
    __glewMultiTexCoord2dARB @4108 DATA
    __glewMultiTexCoord2dv @4109 DATA
    __glewMultiTexCoord2dvARB @4110 DATA
    __glewMultiTexCoord2f @4111 DATA
    __glewMultiTexCoord2fARB @4112 DATA
    __glewMultiTexCoord2fv @4113 DATA
    __glewMultiTexCoord2fvARB @4114 DATA
    __glewMultiTexCoord2hNV @4115 DATA
    __glewMultiTexCoord2hvNV @4116 DATA
    __glewMultiTexCoord2i @4117 DATA
    __glewMultiTexCoord2iARB @4118 DATA
    __glewMultiTexCoord2iv @4119 DATA
    __glewMultiTexCoord2ivARB @4120 DATA
    __glewMultiTexCoord2s @4121 DATA
    __glewMultiTexCoord2sARB @4122 DATA
    __glewMultiTexCoord2sv @4123 DATA
    __glewMultiTexCoord2svARB @4124 DATA
    __glewMultiTexCoord3d @4125 DATA
    __glewMultiTexCoord3dARB @4126 DATA
    __glewMultiTexCoord3dv @4127 DATA
    __glewMultiTexCoord3dvARB @4128 DATA
    __glewMultiTexCoord3f @4129 DATA
    __glewMultiTexCoord3fARB @4130 DATA
    __glewMultiTexCoord3fv @4131 DATA
    __glewMultiTexCoord3fvARB @4132 DATA
    __glewMultiTexCoord3hNV @4133 DATA
    __glewMultiTexCoord3hvNV @4134 DATA
    __glewMultiTexCoord3i @4135 DATA
    __glewMultiTexCoord3iARB @4136 DATA
    __glewMultiTexCoord3iv @4137 DATA
    __glewMultiTexCoord3ivARB @4138 DATA
    __glewMultiTexCoord3s @4139 DATA
    __glewMultiTexCoord3sARB @4140 DATA
    __glewMultiTexCoord3sv @4141 DATA
    __glewMultiTexCoord3svARB @4142 DATA
    __glewMultiTexCoord4d @4143 DATA
    __glewMultiTexCoord4dARB @4144 DATA
    __glewMultiTexCoord4dv @4145 DATA
    __glewMultiTexCoord4dvARB @4146 DATA
    __glewMultiTexCoord4f @4147 DATA
    __glewMultiTexCoord4fARB @4148 DATA
    __glewMultiTexCoord4fv @4149 DATA
    __glewMultiTexCoord4fvARB @4150 DATA
    __glewMultiTexCoord4hNV @4151 DATA
    __glewMultiTexCoord4hvNV @4152 DATA
    __glewMultiTexCoord4i @4153 DATA
    __glewMultiTexCoord4iARB @4154 DATA
    __glewMultiTexCoord4iv @4155 DATA
    __glewMultiTexCoord4ivARB @4156 DATA
    __glewMultiTexCoord4s @4157 DATA
    __glewMultiTexCoord4sARB @4158 DATA
    __glewMultiTexCoord4sv @4159 DATA
    __glewMultiTexCoord4svARB @4160 DATA
    __glewMultiTexCoordP1ui @4161 DATA
    __glewMultiTexCoordP1uiv @4162 DATA
    __glewMultiTexCoordP2ui @4163 DATA
    __glewMultiTexCoordP2uiv @4164 DATA
    __glewMultiTexCoordP3ui @4165 DATA
    __glewMultiTexCoordP3uiv @4166 DATA
    __glewMultiTexCoordP4ui @4167 DATA
    __glewMultiTexCoordP4uiv @4168 DATA
    __glewMultiTexCoordPointerEXT @4169 DATA
    __glewMultiTexEnvfEXT @4170 DATA
    __glewMultiTexEnvfvEXT @4171 DATA
    __glewMultiTexEnviEXT @4172 DATA
    __glewMultiTexEnvivEXT @4173 DATA
    __glewMultiTexGendEXT @4174 DATA
    __glewMultiTexGendvEXT @4175 DATA
    __glewMultiTexGenfEXT @4176 DATA
    __glewMultiTexGenfvEXT @4177 DATA
    __glewMultiTexGeniEXT @4178 DATA
    __glewMultiTexGenivEXT @4179 DATA
    __glewMultiTexImage1DEXT @4180 DATA
    __glewMultiTexImage2DEXT @4181 DATA
    __glewMultiTexImage3DEXT @4182 DATA
    __glewMultiTexParameterIivEXT @4183 DATA
    __glewMultiTexParameterIuivEXT @4184 DATA
    __glewMultiTexParameterfEXT @4185 DATA
    __glewMultiTexParameterfvEXT @4186 DATA
    __glewMultiTexParameteriEXT @4187 DATA
    __glewMultiTexParameterivEXT @4188 DATA
    __glewMultiTexRenderbufferEXT @4189 DATA
    __glewMultiTexSubImage1DEXT @4190 DATA
    __glewMultiTexSubImage2DEXT @4191 DATA
    __glewMultiTexSubImage3DEXT @4192 DATA
    __glewNamedBufferDataEXT @4193 DATA
    __glewNamedBufferSubDataEXT @4194 DATA
    __glewNamedCopyBufferSubDataEXT @4195 DATA
    __glewNamedFramebufferRenderbufferEXT @4196 DATA
    __glewNamedFramebufferTexture1DEXT @4197 DATA
    __glewNamedFramebufferTexture2DEXT @4198 DATA
    __glewNamedFramebufferTexture3DEXT @4199 DATA
    __glewNamedFramebufferTextureEXT @4200 DATA
    __glewNamedFramebufferTextureFaceEXT @4201 DATA
    __glewNamedFramebufferTextureLayerEXT @4202 DATA
    __glewNamedProgramLocalParameter4dEXT @4203 DATA
    __glewNamedProgramLocalParameter4dvEXT @4204 DATA
    __glewNamedProgramLocalParameter4fEXT @4205 DATA
    __glewNamedProgramLocalParameter4fvEXT @4206 DATA
    __glewNamedProgramLocalParameterI4iEXT @4207 DATA
    __glewNamedProgramLocalParameterI4ivEXT @4208 DATA
    __glewNamedProgramLocalParameterI4uiEXT @4209 DATA
    __glewNamedProgramLocalParameterI4uivEXT @4210 DATA
    __glewNamedProgramLocalParameters4fvEXT @4211 DATA
    __glewNamedProgramLocalParametersI4ivEXT @4212 DATA
    __glewNamedProgramLocalParametersI4uivEXT @4213 DATA
    __glewNamedProgramStringEXT @4214 DATA
    __glewNamedRenderbufferStorageEXT @4215 DATA
    __glewNamedRenderbufferStorageMultisampleCoverageEXT @4216 DATA
    __glewNamedRenderbufferStorageMultisampleEXT @4217 DATA
    __glewNamedStringARB @4218 DATA
    __glewNewBufferRegionEXT @4219 DATA
    __glewNewObjectBufferATI @4220 DATA
    __glewNormal3fVertex3fSUN @4221 DATA
    __glewNormal3fVertex3fvSUN @4222 DATA
    __glewNormal3hNV @4223 DATA
    __glewNormal3hvNV @4224 DATA
    __glewNormalFormatNV @4225 DATA
    __glewNormalP3ui @4226 DATA
    __glewNormalP3uiv @4227 DATA
    __glewNormalPointerEXT @4228 DATA
    __glewNormalPointerListIBM @4229 DATA
    __glewNormalPointervINTEL @4230 DATA
    __glewNormalStream3bATI @4231 DATA
    __glewNormalStream3bvATI @4232 DATA
    __glewNormalStream3dATI @4233 DATA
    __glewNormalStream3dvATI @4234 DATA
    __glewNormalStream3fATI @4235 DATA
    __glewNormalStream3fvATI @4236 DATA
    __glewNormalStream3iATI @4237 DATA
    __glewNormalStream3ivATI @4238 DATA
    __glewNormalStream3sATI @4239 DATA
    __glewNormalStream3svATI @4240 DATA
    __glewObjectPurgeableAPPLE @4241 DATA
    __glewObjectUnpurgeableAPPLE @4242 DATA
    __glewOrthofOES @4243 DATA
    __glewPNTrianglesfATI @4244 DATA
    __glewPNTrianglesiATI @4245 DATA
    __glewPassTexCoordATI @4246 DATA
    __glewPatchParameterfv @4247 DATA
    __glewPatchParameteri @4248 DATA
    __glewPauseTransformFeedback @4249 DATA
    __glewPauseTransformFeedbackNV @4250 DATA
    __glewPixelDataRangeNV @4251 DATA
    __glewPixelTexGenSGIX @4252 DATA
    __glewPixelTransformParameterfEXT @4253 DATA
    __glewPixelTransformParameterfvEXT @4254 DATA
    __glewPixelTransformParameteriEXT @4255 DATA
    __glewPixelTransformParameterivEXT @4256 DATA
    __glewPointParameterf @4257 DATA
    __glewPointParameterfARB @4258 DATA
    __glewPointParameterfEXT @4259 DATA
    __glewPointParameterfv @4260 DATA
    __glewPointParameterfvARB @4261 DATA
    __glewPointParameterfvEXT @4262 DATA
    __glewPointParameteri @4263 DATA
    __glewPointParameteriNV @4264 DATA
    __glewPointParameteriv @4265 DATA
    __glewPointParameterivNV @4266 DATA
    __glewPollAsyncSGIX @4267 DATA
    __glewPolygonOffsetEXT @4268 DATA
    __glewPresentFrameDualFillNV @4269 DATA
    __glewPresentFrameKeyedNV @4270 DATA
    __glewPrimitiveRestartIndex @4271 DATA
    __glewPrimitiveRestartIndexNV @4272 DATA
    __glewPrimitiveRestartNV @4273 DATA
    __glewPrioritizeTexturesEXT @4274 DATA
    __glewProgramBinary @4275 DATA
    __glewProgramBufferParametersIivNV @4276 DATA
    __glewProgramBufferParametersIuivNV @4277 DATA
    __glewProgramBufferParametersfvNV @4278 DATA
    __glewProgramEnvParameter4dARB @4279 DATA
    __glewProgramEnvParameter4dvARB @4280 DATA
    __glewProgramEnvParameter4fARB @4281 DATA
    __glewProgramEnvParameter4fvARB @4282 DATA
    __glewProgramEnvParameterI4iNV @4283 DATA
    __glewProgramEnvParameterI4ivNV @4284 DATA
    __glewProgramEnvParameterI4uiNV @4285 DATA
    __glewProgramEnvParameterI4uivNV @4286 DATA
    __glewProgramEnvParameters4fvEXT @4287 DATA
    __glewProgramEnvParametersI4ivNV @4288 DATA
    __glewProgramEnvParametersI4uivNV @4289 DATA
    __glewProgramLocalParameter4dARB @4290 DATA
    __glewProgramLocalParameter4dvARB @4291 DATA
    __glewProgramLocalParameter4fARB @4292 DATA
    __glewProgramLocalParameter4fvARB @4293 DATA
    __glewProgramLocalParameterI4iNV @4294 DATA
    __glewProgramLocalParameterI4ivNV @4295 DATA
    __glewProgramLocalParameterI4uiNV @4296 DATA
    __glewProgramLocalParameterI4uivNV @4297 DATA
    __glewProgramLocalParameters4fvEXT @4298 DATA
    __glewProgramLocalParametersI4ivNV @4299 DATA
    __glewProgramLocalParametersI4uivNV @4300 DATA
    __glewProgramNamedParameter4dNV @4301 DATA
    __glewProgramNamedParameter4dvNV @4302 DATA
    __glewProgramNamedParameter4fNV @4303 DATA
    __glewProgramNamedParameter4fvNV @4304 DATA
    __glewProgramParameter4dNV @4305 DATA
    __glewProgramParameter4dvNV @4306 DATA
    __glewProgramParameter4fNV @4307 DATA
    __glewProgramParameter4fvNV @4308 DATA
    __glewProgramParameteri @4309 DATA
    __glewProgramParameteriARB @4310 DATA
    __glewProgramParameteriEXT @4311 DATA
    __glewProgramParameters4dvNV @4312 DATA
    __glewProgramParameters4fvNV @4313 DATA
    __glewProgramStringARB @4314 DATA
    __glewProgramUniform1d @4315 DATA
    __glewProgramUniform1dEXT @4316 DATA
    __glewProgramUniform1dv @4317 DATA
    __glewProgramUniform1dvEXT @4318 DATA
    __glewProgramUniform1f @4319 DATA
    __glewProgramUniform1fEXT @4320 DATA
    __glewProgramUniform1fv @4321 DATA
    __glewProgramUniform1fvEXT @4322 DATA
    __glewProgramUniform1i @4323 DATA
    __glewProgramUniform1i64NV @4324 DATA
    __glewProgramUniform1i64vNV @4325 DATA
    __glewProgramUniform1iEXT @4326 DATA
    __glewProgramUniform1iv @4327 DATA
    __glewProgramUniform1ivEXT @4328 DATA
    __glewProgramUniform1ui @4329 DATA
    __glewProgramUniform1ui64NV @4330 DATA
    __glewProgramUniform1ui64vNV @4331 DATA
    __glewProgramUniform1uiEXT @4332 DATA
    __glewProgramUniform1uiv @4333 DATA
    __glewProgramUniform1uivEXT @4334 DATA
    __glewProgramUniform2d @4335 DATA
    __glewProgramUniform2dEXT @4336 DATA
    __glewProgramUniform2dv @4337 DATA
    __glewProgramUniform2dvEXT @4338 DATA
    __glewProgramUniform2f @4339 DATA
    __glewProgramUniform2fEXT @4340 DATA
    __glewProgramUniform2fv @4341 DATA
    __glewProgramUniform2fvEXT @4342 DATA
    __glewProgramUniform2i @4343 DATA
    __glewProgramUniform2i64NV @4344 DATA
    __glewProgramUniform2i64vNV @4345 DATA
    __glewProgramUniform2iEXT @4346 DATA
    __glewProgramUniform2iv @4347 DATA
    __glewProgramUniform2ivEXT @4348 DATA
    __glewProgramUniform2ui @4349 DATA
    __glewProgramUniform2ui64NV @4350 DATA
    __glewProgramUniform2ui64vNV @4351 DATA
    __glewProgramUniform2uiEXT @4352 DATA
    __glewProgramUniform2uiv @4353 DATA
    __glewProgramUniform2uivEXT @4354 DATA
    __glewProgramUniform3d @4355 DATA
    __glewProgramUniform3dEXT @4356 DATA
    __glewProgramUniform3dv @4357 DATA
    __glewProgramUniform3dvEXT @4358 DATA
    __glewProgramUniform3f @4359 DATA
    __glewProgramUniform3fEXT @4360 DATA
    __glewProgramUniform3fv @4361 DATA
    __glewProgramUniform3fvEXT @4362 DATA
    __glewProgramUniform3i @4363 DATA
    __glewProgramUniform3i64NV @4364 DATA
    __glewProgramUniform3i64vNV @4365 DATA
    __glewProgramUniform3iEXT @4366 DATA
    __glewProgramUniform3iv @4367 DATA
    __glewProgramUniform3ivEXT @4368 DATA
    __glewProgramUniform3ui @4369 DATA
    __glewProgramUniform3ui64NV @4370 DATA
    __glewProgramUniform3ui64vNV @4371 DATA
    __glewProgramUniform3uiEXT @4372 DATA
    __glewProgramUniform3uiv @4373 DATA
    __glewProgramUniform3uivEXT @4374 DATA
    __glewProgramUniform4d @4375 DATA
    __glewProgramUniform4dEXT @4376 DATA
    __glewProgramUniform4dv @4377 DATA
    __glewProgramUniform4dvEXT @4378 DATA
    __glewProgramUniform4f @4379 DATA
    __glewProgramUniform4fEXT @4380 DATA
    __glewProgramUniform4fv @4381 DATA
    __glewProgramUniform4fvEXT @4382 DATA
    __glewProgramUniform4i @4383 DATA
    __glewProgramUniform4i64NV @4384 DATA
    __glewProgramUniform4i64vNV @4385 DATA
    __glewProgramUniform4iEXT @4386 DATA
    __glewProgramUniform4iv @4387 DATA
    __glewProgramUniform4ivEXT @4388 DATA
    __glewProgramUniform4ui @4389 DATA
    __glewProgramUniform4ui64NV @4390 DATA
    __glewProgramUniform4ui64vNV @4391 DATA
    __glewProgramUniform4uiEXT @4392 DATA
    __glewProgramUniform4uiv @4393 DATA
    __glewProgramUniform4uivEXT @4394 DATA
    __glewProgramUniformMatrix2dv @4395 DATA
    __glewProgramUniformMatrix2dvEXT @4396 DATA
    __glewProgramUniformMatrix2fv @4397 DATA
    __glewProgramUniformMatrix2fvEXT @4398 DATA
    __glewProgramUniformMatrix2x3dv @4399 DATA
    __glewProgramUniformMatrix2x3dvEXT @4400 DATA
    __glewProgramUniformMatrix2x3fv @4401 DATA
    __glewProgramUniformMatrix2x3fvEXT @4402 DATA
    __glewProgramUniformMatrix2x4dv @4403 DATA
    __glewProgramUniformMatrix2x4dvEXT @4404 DATA
    __glewProgramUniformMatrix2x4fv @4405 DATA
    __glewProgramUniformMatrix2x4fvEXT @4406 DATA
    __glewProgramUniformMatrix3dv @4407 DATA
    __glewProgramUniformMatrix3dvEXT @4408 DATA
    __glewProgramUniformMatrix3fv @4409 DATA
    __glewProgramUniformMatrix3fvEXT @4410 DATA
    __glewProgramUniformMatrix3x2dv @4411 DATA
    __glewProgramUniformMatrix3x2dvEXT @4412 DATA
    __glewProgramUniformMatrix3x2fv @4413 DATA
    __glewProgramUniformMatrix3x2fvEXT @4414 DATA
    __glewProgramUniformMatrix3x4dv @4415 DATA
    __glewProgramUniformMatrix3x4dvEXT @4416 DATA
    __glewProgramUniformMatrix3x4fv @4417 DATA
    __glewProgramUniformMatrix3x4fvEXT @4418 DATA
    __glewProgramUniformMatrix4dv @4419 DATA
    __glewProgramUniformMatrix4dvEXT @4420 DATA
    __glewProgramUniformMatrix4fv @4421 DATA
    __glewProgramUniformMatrix4fvEXT @4422 DATA
    __glewProgramUniformMatrix4x2dv @4423 DATA
    __glewProgramUniformMatrix4x2dvEXT @4424 DATA
    __glewProgramUniformMatrix4x2fv @4425 DATA
    __glewProgramUniformMatrix4x2fvEXT @4426 DATA
    __glewProgramUniformMatrix4x3dv @4427 DATA
    __glewProgramUniformMatrix4x3dvEXT @4428 DATA
    __glewProgramUniformMatrix4x3fv @4429 DATA
    __glewProgramUniformMatrix4x3fvEXT @4430 DATA
    __glewProgramUniformui64NV @4431 DATA
    __glewProgramUniformui64vNV @4432 DATA
    __glewProgramVertexLimitNV @4433 DATA
    __glewProvokingVertex @4434 DATA
    __glewProvokingVertexEXT @4435 DATA
    __glewPushClientAttribDefaultEXT @4436 DATA
    __glewQueryCounter @4437 DATA
    __glewReadBufferRegionEXT @4438 DATA
    __glewReadVideoPixelsSUN @4439 DATA
    __glewReadnPixelsARB @4440 DATA
    __glewReferencePlaneSGIX @4441 DATA
    __glewReleaseShaderCompiler @4442 DATA
    __glewRenderbufferStorage @4443 DATA
    __glewRenderbufferStorageEXT @4444 DATA
    __glewRenderbufferStorageMultisample @4445 DATA
    __glewRenderbufferStorageMultisampleCoverageNV @4446 DATA
    __glewRenderbufferStorageMultisampleEXT @4447 DATA
    __glewReplacementCodePointerSUN @4448 DATA
    __glewReplacementCodeubSUN @4449 DATA
    __glewReplacementCodeubvSUN @4450 DATA
    __glewReplacementCodeuiColor3fVertex3fSUN @4451 DATA
    __glewReplacementCodeuiColor3fVertex3fvSUN @4452 DATA
    __glewReplacementCodeuiColor4fNormal3fVertex3fSUN @4453 DATA
    __glewReplacementCodeuiColor4fNormal3fVertex3fvSUN @4454 DATA
    __glewReplacementCodeuiColor4ubVertex3fSUN @4455 DATA
    __glewReplacementCodeuiColor4ubVertex3fvSUN @4456 DATA
    __glewReplacementCodeuiNormal3fVertex3fSUN @4457 DATA
    __glewReplacementCodeuiNormal3fVertex3fvSUN @4458 DATA
    __glewReplacementCodeuiSUN @4459 DATA
    __glewReplacementCodeuiTexCoord2fColor4fNormal3fVertex3fSUN @4460 DATA
    __glewReplacementCodeuiTexCoord2fColor4fNormal3fVertex3fvSUN @4461 DATA
    __glewReplacementCodeuiTexCoord2fNormal3fVertex3fSUN @4462 DATA
    __glewReplacementCodeuiTexCoord2fNormal3fVertex3fvSUN @4463 DATA
    __glewReplacementCodeuiTexCoord2fVertex3fSUN @4464 DATA
    __glewReplacementCodeuiTexCoord2fVertex3fvSUN @4465 DATA
    __glewReplacementCodeuiVertex3fSUN @4466 DATA
    __glewReplacementCodeuiVertex3fvSUN @4467 DATA
    __glewReplacementCodeuivSUN @4468 DATA
    __glewReplacementCodeusSUN @4469 DATA
    __glewReplacementCodeusvSUN @4470 DATA
    __glewRequestResidentProgramsNV @4471 DATA
    __glewResetHistogram @4472 DATA
    __glewResetHistogramEXT @4473 DATA
    __glewResetMinmax @4474 DATA
    __glewResetMinmaxEXT @4475 DATA
    __glewResizeBuffersMESA @4476 DATA
    __glewResumeTransformFeedback @4477 DATA
    __glewResumeTransformFeedbackNV @4478 DATA
    __glewSampleCoverage @4479 DATA
    __glewSampleCoverageARB @4480 DATA
    __glewSampleMapATI @4481 DATA
    __glewSampleMaskEXT @4482 DATA
    __glewSampleMaskIndexedNV @4483 DATA
    __glewSampleMaskSGIS @4484 DATA
    __glewSampleMaski @4485 DATA
    __glewSamplePatternEXT @4486 DATA
    __glewSamplePatternSGIS @4487 DATA
    __glewSamplerParameterIiv @4488 DATA
    __glewSamplerParameterIuiv @4489 DATA
    __glewSamplerParameterf @4490 DATA
    __glewSamplerParameterfv @4491 DATA
    __glewSamplerParameteri @4492 DATA
    __glewSamplerParameteriv @4493 DATA
    __glewScissorArrayv @4494 DATA
    __glewScissorIndexed @4495 DATA
    __glewScissorIndexedv @4496 DATA
    __glewSecondaryColor3b @4497 DATA
    __glewSecondaryColor3bEXT @4498 DATA
    __glewSecondaryColor3bv @4499 DATA
    __glewSecondaryColor3bvEXT @4500 DATA
    __glewSecondaryColor3d @4501 DATA
    __glewSecondaryColor3dEXT @4502 DATA
    __glewSecondaryColor3dv @4503 DATA
    __glewSecondaryColor3dvEXT @4504 DATA
    __glewSecondaryColor3f @4505 DATA
    __glewSecondaryColor3fEXT @4506 DATA
    __glewSecondaryColor3fv @4507 DATA
    __glewSecondaryColor3fvEXT @4508 DATA
    __glewSecondaryColor3hNV @4509 DATA
    __glewSecondaryColor3hvNV @4510 DATA
    __glewSecondaryColor3i @4511 DATA
    __glewSecondaryColor3iEXT @4512 DATA
    __glewSecondaryColor3iv @4513 DATA
    __glewSecondaryColor3ivEXT @4514 DATA
    __glewSecondaryColor3s @4515 DATA
    __glewSecondaryColor3sEXT @4516 DATA
    __glewSecondaryColor3sv @4517 DATA
    __glewSecondaryColor3svEXT @4518 DATA
    __glewSecondaryColor3ub @4519 DATA
    __glewSecondaryColor3ubEXT @4520 DATA
    __glewSecondaryColor3ubv @4521 DATA
    __glewSecondaryColor3ubvEXT @4522 DATA
    __glewSecondaryColor3ui @4523 DATA
    __glewSecondaryColor3uiEXT @4524 DATA
    __glewSecondaryColor3uiv @4525 DATA
    __glewSecondaryColor3uivEXT @4526 DATA
    __glewSecondaryColor3us @4527 DATA
    __glewSecondaryColor3usEXT @4528 DATA
    __glewSecondaryColor3usv @4529 DATA
    __glewSecondaryColor3usvEXT @4530 DATA
    __glewSecondaryColorFormatNV @4531 DATA
    __glewSecondaryColorP3ui @4532 DATA
    __glewSecondaryColorP3uiv @4533 DATA
    __glewSecondaryColorPointer @4534 DATA
    __glewSecondaryColorPointerEXT @4535 DATA
    __glewSecondaryColorPointerListIBM @4536 DATA
    __glewSelectPerfMonitorCountersAMD @4537 DATA
    __glewSeparableFilter2D @4538 DATA
    __glewSeparableFilter2DEXT @4539 DATA
    __glewSetFenceAPPLE @4540 DATA
    __glewSetFenceNV @4541 DATA
    __glewSetFragmentShaderConstantATI @4542 DATA
    __glewSetInvariantEXT @4543 DATA
    __glewSetLocalConstantEXT @4544 DATA
    __glewSetMultisamplefvAMD @4545 DATA
    __glewShaderBinary @4546 DATA
    __glewShaderOp1EXT @4547 DATA
    __glewShaderOp2EXT @4548 DATA
    __glewShaderOp3EXT @4549 DATA
    __glewShaderSource @4550 DATA
    __glewShaderSourceARB @4551 DATA
    __glewSharpenTexFuncSGIS @4552 DATA
    __glewSpriteParameterfSGIX @4553 DATA
    __glewSpriteParameterfvSGIX @4554 DATA
    __glewSpriteParameteriSGIX @4555 DATA
    __glewSpriteParameterivSGIX @4556 DATA
    __glewStencilFuncSeparate @4557 DATA
    __glewStencilFuncSeparateATI @4558 DATA
    __glewStencilMaskSeparate @4559 DATA
    __glewStencilOpSeparate @4560 DATA
    __glewStencilOpSeparateATI @4561 DATA
    __glewStringMarkerGREMEDY @4562 DATA
    __glewSwizzleEXT @4563 DATA
    __glewTagSampleBufferSGIX @4564 DATA
    __glewTangentPointerEXT @4565 DATA
    __glewTbufferMask3DFX @4566 DATA
    __glewTessellationFactorAMD @4567 DATA
    __glewTessellationModeAMD @4568 DATA
    __glewTestFenceAPPLE @4569 DATA
    __glewTestFenceNV @4570 DATA
    __glewTestObjectAPPLE @4571 DATA
    __glewTexBuffer @4572 DATA
    __glewTexBufferARB @4573 DATA
    __glewTexBufferEXT @4574 DATA
    __glewTexBumpParameterfvATI @4575 DATA
    __glewTexBumpParameterivATI @4576 DATA
    __glewTexCoord1hNV @4577 DATA
    __glewTexCoord1hvNV @4578 DATA
    __glewTexCoord2fColor3fVertex3fSUN @4579 DATA
    __glewTexCoord2fColor3fVertex3fvSUN @4580 DATA
    __glewTexCoord2fColor4fNormal3fVertex3fSUN @4581 DATA
    __glewTexCoord2fColor4fNormal3fVertex3fvSUN @4582 DATA
    __glewTexCoord2fColor4ubVertex3fSUN @4583 DATA
    __glewTexCoord2fColor4ubVertex3fvSUN @4584 DATA
    __glewTexCoord2fNormal3fVertex3fSUN @4585 DATA
    __glewTexCoord2fNormal3fVertex3fvSUN @4586 DATA
    __glewTexCoord2fVertex3fSUN @4587 DATA
    __glewTexCoord2fVertex3fvSUN @4588 DATA
    __glewTexCoord2hNV @4589 DATA
    __glewTexCoord2hvNV @4590 DATA
    __glewTexCoord3hNV @4591 DATA
    __glewTexCoord3hvNV @4592 DATA
    __glewTexCoord4fColor4fNormal3fVertex4fSUN @4593 DATA
    __glewTexCoord4fColor4fNormal3fVertex4fvSUN @4594 DATA
    __glewTexCoord4fVertex4fSUN @4595 DATA
    __glewTexCoord4fVertex4fvSUN @4596 DATA
    __glewTexCoord4hNV @4597 DATA
    __glewTexCoord4hvNV @4598 DATA
    __glewTexCoordFormatNV @4599 DATA
    __glewTexCoordP1ui @4600 DATA
    __glewTexCoordP1uiv @4601 DATA
    __glewTexCoordP2ui @4602 DATA
    __glewTexCoordP2uiv @4603 DATA
    __glewTexCoordP3ui @4604 DATA
    __glewTexCoordP3uiv @4605 DATA
    __glewTexCoordP4ui @4606 DATA
    __glewTexCoordP4uiv @4607 DATA
    __glewTexCoordPointerEXT @4608 DATA
    __glewTexCoordPointerListIBM @4609 DATA
    __glewTexCoordPointervINTEL @4610 DATA
    __glewTexFilterFuncSGIS @4611 DATA
    __glewTexImage2DMultisample @4612 DATA
    __glewTexImage2DMultisampleCoverageNV @4613 DATA
    __glewTexImage3D @4614 DATA
    __glewTexImage3DEXT @4615 DATA
    __glewTexImage3DMultisample @4616 DATA
    __glewTexImage3DMultisampleCoverageNV @4617 DATA
    __glewTexImage4DSGIS @4618 DATA
    __glewTexParameterIiv @4619 DATA
    __glewTexParameterIivEXT @4620 DATA
    __glewTexParameterIuiv @4621 DATA
    __glewTexParameterIuivEXT @4622 DATA
    __glewTexRenderbufferNV @4623 DATA
    __glewTexScissorFuncINTEL @4624 DATA
    __glewTexScissorINTEL @4625 DATA
    __glewTexSubImage1DEXT @4626 DATA
    __glewTexSubImage2DEXT @4627 DATA
    __glewTexSubImage3D @4628 DATA
    __glewTexSubImage3DEXT @4629 DATA
    __glewTexSubImage4DSGIS @4630 DATA
    __glewTextureBarrierNV @4631 DATA
    __glewTextureBufferEXT @4632 DATA
    __glewTextureFogSGIX @4633 DATA
    __glewTextureImage1DEXT @4634 DATA
    __glewTextureImage2DEXT @4635 DATA
    __glewTextureImage2DMultisampleCoverageNV @4636 DATA
    __glewTextureImage2DMultisampleNV @4637 DATA
    __glewTextureImage3DEXT @4638 DATA
    __glewTextureImage3DMultisampleCoverageNV @4639 DATA
    __glewTextureImage3DMultisampleNV @4640 DATA
    __glewTextureLightEXT @4641 DATA
    __glewTextureMaterialEXT @4642 DATA
    __glewTextureNormalEXT @4643 DATA
    __glewTextureParameterIivEXT @4644 DATA
    __glewTextureParameterIuivEXT @4645 DATA
    __glewTextureParameterfEXT @4646 DATA
    __glewTextureParameterfvEXT @4647 DATA
    __glewTextureParameteriEXT @4648 DATA
    __glewTextureParameterivEXT @4649 DATA
    __glewTextureRangeAPPLE @4650 DATA
    __glewTextureRenderbufferEXT @4651 DATA
    __glewTextureSubImage1DEXT @4652 DATA
    __glewTextureSubImage2DEXT @4653 DATA
    __glewTextureSubImage3DEXT @4654 DATA
    __glewTrackMatrixNV @4655 DATA
    __glewTransformFeedbackAttribsNV @4656 DATA
    __glewTransformFeedbackVaryings @4657 DATA
    __glewTransformFeedbackVaryingsEXT @4658 DATA
    __glewTransformFeedbackVaryingsNV @4659 DATA
    __glewUniform1d @4660 DATA
    __glewUniform1dv @4661 DATA
    __glewUniform1f @4662 DATA
    __glewUniform1fARB @4663 DATA
    __glewUniform1fv @4664 DATA
    __glewUniform1fvARB @4665 DATA
    __glewUniform1i @4666 DATA
    __glewUniform1i64NV @4667 DATA
    __glewUniform1i64vNV @4668 DATA
    __glewUniform1iARB @4669 DATA
    __glewUniform1iv @4670 DATA
    __glewUniform1ivARB @4671 DATA
    __glewUniform1ui @4672 DATA
    __glewUniform1ui64NV @4673 DATA
    __glewUniform1ui64vNV @4674 DATA
    __glewUniform1uiEXT @4675 DATA
    __glewUniform1uiv @4676 DATA
    __glewUniform1uivEXT @4677 DATA
    __glewUniform2d @4678 DATA
    __glewUniform2dv @4679 DATA
    __glewUniform2f @4680 DATA
    __glewUniform2fARB @4681 DATA
    __glewUniform2fv @4682 DATA
    __glewUniform2fvARB @4683 DATA
    __glewUniform2i @4684 DATA
    __glewUniform2i64NV @4685 DATA
    __glewUniform2i64vNV @4686 DATA
    __glewUniform2iARB @4687 DATA
    __glewUniform2iv @4688 DATA
    __glewUniform2ivARB @4689 DATA
    __glewUniform2ui @4690 DATA
    __glewUniform2ui64NV @4691 DATA
    __glewUniform2ui64vNV @4692 DATA
    __glewUniform2uiEXT @4693 DATA
    __glewUniform2uiv @4694 DATA
    __glewUniform2uivEXT @4695 DATA
    __glewUniform3d @4696 DATA
    __glewUniform3dv @4697 DATA
    __glewUniform3f @4698 DATA
    __glewUniform3fARB @4699 DATA
    __glewUniform3fv @4700 DATA
    __glewUniform3fvARB @4701 DATA
    __glewUniform3i @4702 DATA
    __glewUniform3i64NV @4703 DATA
    __glewUniform3i64vNV @4704 DATA
    __glewUniform3iARB @4705 DATA
    __glewUniform3iv @4706 DATA
    __glewUniform3ivARB @4707 DATA
    __glewUniform3ui @4708 DATA
    __glewUniform3ui64NV @4709 DATA
    __glewUniform3ui64vNV @4710 DATA
    __glewUniform3uiEXT @4711 DATA
    __glewUniform3uiv @4712 DATA
    __glewUniform3uivEXT @4713 DATA
    __glewUniform4d @4714 DATA
    __glewUniform4dv @4715 DATA
    __glewUniform4f @4716 DATA
    __glewUniform4fARB @4717 DATA
    __glewUniform4fv @4718 DATA
    __glewUniform4fvARB @4719 DATA
    __glewUniform4i @4720 DATA
    __glewUniform4i64NV @4721 DATA
    __glewUniform4i64vNV @4722 DATA
    __glewUniform4iARB @4723 DATA
    __glewUniform4iv @4724 DATA
    __glewUniform4ivARB @4725 DATA
    __glewUniform4ui @4726 DATA
    __glewUniform4ui64NV @4727 DATA
    __glewUniform4ui64vNV @4728 DATA
    __glewUniform4uiEXT @4729 DATA
    __glewUniform4uiv @4730 DATA
    __glewUniform4uivEXT @4731 DATA
    __glewUniformBlockBinding @4732 DATA
    __glewUniformBufferEXT @4733 DATA
    __glewUniformMatrix2dv @4734 DATA
    __glewUniformMatrix2fv @4735 DATA
    __glewUniformMatrix2fvARB @4736 DATA
    __glewUniformMatrix2x3dv @4737 DATA
    __glewUniformMatrix2x3fv @4738 DATA
    __glewUniformMatrix2x4dv @4739 DATA
    __glewUniformMatrix2x4fv @4740 DATA
    __glewUniformMatrix3dv @4741 DATA
    __glewUniformMatrix3fv @4742 DATA
    __glewUniformMatrix3fvARB @4743 DATA
    __glewUniformMatrix3x2dv @4744 DATA
    __glewUniformMatrix3x2fv @4745 DATA
    __glewUniformMatrix3x4dv @4746 DATA
    __glewUniformMatrix3x4fv @4747 DATA
    __glewUniformMatrix4dv @4748 DATA
    __glewUniformMatrix4fv @4749 DATA
    __glewUniformMatrix4fvARB @4750 DATA
    __glewUniformMatrix4x2dv @4751 DATA
    __glewUniformMatrix4x2fv @4752 DATA
    __glewUniformMatrix4x3dv @4753 DATA
    __glewUniformMatrix4x3fv @4754 DATA
    __glewUniformSubroutinesuiv @4755 DATA
    __glewUniformui64NV @4756 DATA
    __glewUniformui64vNV @4757 DATA
    __glewUnlockArraysEXT @4758 DATA
    __glewUnmapBuffer @4759 DATA
    __glewUnmapBufferARB @4760 DATA
    __glewUnmapNamedBufferEXT @4761 DATA
    __glewUnmapObjectBufferATI @4762 DATA
    __glewUpdateObjectBufferATI @4763 DATA
    __glewUseProgram @4764 DATA
    __glewUseProgramObjectARB @4765 DATA
    __glewUseProgramStages @4766 DATA
    __glewUseShaderProgramEXT @4767 DATA
    __glewVDPAUFiniNV @4768 DATA
    __glewVDPAUGetSurfaceivNV @4769 DATA
    __glewVDPAUInitNV @4770 DATA
    __glewVDPAUIsSurfaceNV @4771 DATA
    __glewVDPAUMapSurfacesNV @4772 DATA
    __glewVDPAURegisterOutputSurfaceNV @4773 DATA
    __glewVDPAURegisterVideoSurfaceNV @4774 DATA
    __glewVDPAUSurfaceAccessNV @4775 DATA
    __glewVDPAUUnmapSurfacesNV @4776 DATA
    __glewVDPAUUnregisterSurfaceNV @4777 DATA
    __glewValidateProgram @4778 DATA
    __glewValidateProgramARB @4779 DATA
    __glewValidateProgramPipeline @4780 DATA
    __glewVariantArrayObjectATI @4781 DATA
    __glewVariantPointerEXT @4782 DATA
    __glewVariantbvEXT @4783 DATA
    __glewVariantdvEXT @4784 DATA
    __glewVariantfvEXT @4785 DATA
    __glewVariantivEXT @4786 DATA
    __glewVariantsvEXT @4787 DATA
    __glewVariantubvEXT @4788 DATA
    __glewVariantuivEXT @4789 DATA
    __glewVariantusvEXT @4790 DATA
    __glewVertex2hNV @4791 DATA
    __glewVertex2hvNV @4792 DATA
    __glewVertex3hNV @4793 DATA
    __glewVertex3hvNV @4794 DATA
    __glewVertex4hNV @4795 DATA
    __glewVertex4hvNV @4796 DATA
    __glewVertexArrayColorOffsetEXT @4797 DATA
    __glewVertexArrayEdgeFlagOffsetEXT @4798 DATA
    __glewVertexArrayFogCoordOffsetEXT @4799 DATA
    __glewVertexArrayIndexOffsetEXT @4800 DATA
    __glewVertexArrayMultiTexCoordOffsetEXT @4801 DATA
    __glewVertexArrayNormalOffsetEXT @4802 DATA
    __glewVertexArrayParameteriAPPLE @4803 DATA
    __glewVertexArrayRangeAPPLE @4804 DATA
    __glewVertexArrayRangeNV @4805 DATA
    __glewVertexArraySecondaryColorOffsetEXT @4806 DATA
    __glewVertexArrayTexCoordOffsetEXT @4807 DATA
    __glewVertexArrayVertexAttribIOffsetEXT @4808 DATA
    __glewVertexArrayVertexAttribLOffsetEXT @4809 DATA
    __glewVertexArrayVertexAttribOffsetEXT @4810 DATA
    __glewVertexArrayVertexOffsetEXT @4811 DATA
    __glewVertexAttrib1d @4812 DATA
    __glewVertexAttrib1dARB @4813 DATA
    __glewVertexAttrib1dNV @4814 DATA
    __glewVertexAttrib1dv @4815 DATA
    __glewVertexAttrib1dvARB @4816 DATA
    __glewVertexAttrib1dvNV @4817 DATA
    __glewVertexAttrib1f @4818 DATA
    __glewVertexAttrib1fARB @4819 DATA
    __glewVertexAttrib1fNV @4820 DATA
    __glewVertexAttrib1fv @4821 DATA
    __glewVertexAttrib1fvARB @4822 DATA
    __glewVertexAttrib1fvNV @4823 DATA
    __glewVertexAttrib1hNV @4824 DATA
    __glewVertexAttrib1hvNV @4825 DATA
    __glewVertexAttrib1s @4826 DATA
    __glewVertexAttrib1sARB @4827 DATA
    __glewVertexAttrib1sNV @4828 DATA
    __glewVertexAttrib1sv @4829 DATA
    __glewVertexAttrib1svARB @4830 DATA
    __glewVertexAttrib1svNV @4831 DATA
    __glewVertexAttrib2d @4832 DATA
    __glewVertexAttrib2dARB @4833 DATA
    __glewVertexAttrib2dNV @4834 DATA
    __glewVertexAttrib2dv @4835 DATA
    __glewVertexAttrib2dvARB @4836 DATA
    __glewVertexAttrib2dvNV @4837 DATA
    __glewVertexAttrib2f @4838 DATA
    __glewVertexAttrib2fARB @4839 DATA
    __glewVertexAttrib2fNV @4840 DATA
    __glewVertexAttrib2fv @4841 DATA
    __glewVertexAttrib2fvARB @4842 DATA
    __glewVertexAttrib2fvNV @4843 DATA
    __glewVertexAttrib2hNV @4844 DATA
    __glewVertexAttrib2hvNV @4845 DATA
    __glewVertexAttrib2s @4846 DATA
    __glewVertexAttrib2sARB @4847 DATA
    __glewVertexAttrib2sNV @4848 DATA
    __glewVertexAttrib2sv @4849 DATA
    __glewVertexAttrib2svARB @4850 DATA
    __glewVertexAttrib2svNV @4851 DATA
    __glewVertexAttrib3d @4852 DATA
    __glewVertexAttrib3dARB @4853 DATA
    __glewVertexAttrib3dNV @4854 DATA
    __glewVertexAttrib3dv @4855 DATA
    __glewVertexAttrib3dvARB @4856 DATA
    __glewVertexAttrib3dvNV @4857 DATA
    __glewVertexAttrib3f @4858 DATA
    __glewVertexAttrib3fARB @4859 DATA
    __glewVertexAttrib3fNV @4860 DATA
    __glewVertexAttrib3fv @4861 DATA
    __glewVertexAttrib3fvARB @4862 DATA
    __glewVertexAttrib3fvNV @4863 DATA
    __glewVertexAttrib3hNV @4864 DATA
    __glewVertexAttrib3hvNV @4865 DATA
    __glewVertexAttrib3s @4866 DATA
    __glewVertexAttrib3sARB @4867 DATA
    __glewVertexAttrib3sNV @4868 DATA
    __glewVertexAttrib3sv @4869 DATA
    __glewVertexAttrib3svARB @4870 DATA
    __glewVertexAttrib3svNV @4871 DATA
    __glewVertexAttrib4Nbv @4872 DATA
    __glewVertexAttrib4NbvARB @4873 DATA
    __glewVertexAttrib4Niv @4874 DATA
    __glewVertexAttrib4NivARB @4875 DATA
    __glewVertexAttrib4Nsv @4876 DATA
    __glewVertexAttrib4NsvARB @4877 DATA
    __glewVertexAttrib4Nub @4878 DATA
    __glewVertexAttrib4NubARB @4879 DATA
    __glewVertexAttrib4Nubv @4880 DATA
    __glewVertexAttrib4NubvARB @4881 DATA
    __glewVertexAttrib4Nuiv @4882 DATA
    __glewVertexAttrib4NuivARB @4883 DATA
    __glewVertexAttrib4Nusv @4884 DATA
    __glewVertexAttrib4NusvARB @4885 DATA
    __glewVertexAttrib4bv @4886 DATA
    __glewVertexAttrib4bvARB @4887 DATA
    __glewVertexAttrib4d @4888 DATA
    __glewVertexAttrib4dARB @4889 DATA
    __glewVertexAttrib4dNV @4890 DATA
    __glewVertexAttrib4dv @4891 DATA
    __glewVertexAttrib4dvARB @4892 DATA
    __glewVertexAttrib4dvNV @4893 DATA
    __glewVertexAttrib4f @4894 DATA
    __glewVertexAttrib4fARB @4895 DATA
    __glewVertexAttrib4fNV @4896 DATA
    __glewVertexAttrib4fv @4897 DATA
    __glewVertexAttrib4fvARB @4898 DATA
    __glewVertexAttrib4fvNV @4899 DATA
    __glewVertexAttrib4hNV @4900 DATA
    __glewVertexAttrib4hvNV @4901 DATA
    __glewVertexAttrib4iv @4902 DATA
    __glewVertexAttrib4ivARB @4903 DATA
    __glewVertexAttrib4s @4904 DATA
    __glewVertexAttrib4sARB @4905 DATA
    __glewVertexAttrib4sNV @4906 DATA
    __glewVertexAttrib4sv @4907 DATA
    __glewVertexAttrib4svARB @4908 DATA
    __glewVertexAttrib4svNV @4909 DATA
    __glewVertexAttrib4ubNV @4910 DATA
    __glewVertexAttrib4ubv @4911 DATA
    __glewVertexAttrib4ubvARB @4912 DATA
    __glewVertexAttrib4ubvNV @4913 DATA
    __glewVertexAttrib4uiv @4914 DATA
    __glewVertexAttrib4uivARB @4915 DATA
    __glewVertexAttrib4usv @4916 DATA
    __glewVertexAttrib4usvARB @4917 DATA
    __glewVertexAttribArrayObjectATI @4918 DATA
    __glewVertexAttribDivisor @4919 DATA
    __glewVertexAttribDivisorARB @4920 DATA
    __glewVertexAttribFormatNV @4921 DATA
    __glewVertexAttribI1i @4922 DATA
    __glewVertexAttribI1iEXT @4923 DATA
    __glewVertexAttribI1iv @4924 DATA
    __glewVertexAttribI1ivEXT @4925 DATA
    __glewVertexAttribI1ui @4926 DATA
    __glewVertexAttribI1uiEXT @4927 DATA
    __glewVertexAttribI1uiv @4928 DATA
    __glewVertexAttribI1uivEXT @4929 DATA
    __glewVertexAttribI2i @4930 DATA
    __glewVertexAttribI2iEXT @4931 DATA
    __glewVertexAttribI2iv @4932 DATA
    __glewVertexAttribI2ivEXT @4933 DATA
    __glewVertexAttribI2ui @4934 DATA
    __glewVertexAttribI2uiEXT @4935 DATA
    __glewVertexAttribI2uiv @4936 DATA
    __glewVertexAttribI2uivEXT @4937 DATA
    __glewVertexAttribI3i @4938 DATA
    __glewVertexAttribI3iEXT @4939 DATA
    __glewVertexAttribI3iv @4940 DATA
    __glewVertexAttribI3ivEXT @4941 DATA
    __glewVertexAttribI3ui @4942 DATA
    __glewVertexAttribI3uiEXT @4943 DATA
    __glewVertexAttribI3uiv @4944 DATA
    __glewVertexAttribI3uivEXT @4945 DATA
    __glewVertexAttribI4bv @4946 DATA
    __glewVertexAttribI4bvEXT @4947 DATA
    __glewVertexAttribI4i @4948 DATA
    __glewVertexAttribI4iEXT @4949 DATA
    __glewVertexAttribI4iv @4950 DATA
    __glewVertexAttribI4ivEXT @4951 DATA
    __glewVertexAttribI4sv @4952 DATA
    __glewVertexAttribI4svEXT @4953 DATA
    __glewVertexAttribI4ubv @4954 DATA
    __glewVertexAttribI4ubvEXT @4955 DATA
    __glewVertexAttribI4ui @4956 DATA
    __glewVertexAttribI4uiEXT @4957 DATA
    __glewVertexAttribI4uiv @4958 DATA
    __glewVertexAttribI4uivEXT @4959 DATA
    __glewVertexAttribI4usv @4960 DATA
    __glewVertexAttribI4usvEXT @4961 DATA
    __glewVertexAttribIFormatNV @4962 DATA
    __glewVertexAttribIPointer @4963 DATA
    __glewVertexAttribIPointerEXT @4964 DATA
    __glewVertexAttribL1d @4965 DATA
    __glewVertexAttribL1dEXT @4966 DATA
    __glewVertexAttribL1dv @4967 DATA
    __glewVertexAttribL1dvEXT @4968 DATA
    __glewVertexAttribL1i64NV @4969 DATA
    __glewVertexAttribL1i64vNV @4970 DATA
    __glewVertexAttribL1ui64NV @4971 DATA
    __glewVertexAttribL1ui64vNV @4972 DATA
    __glewVertexAttribL2d @4973 DATA
    __glewVertexAttribL2dEXT @4974 DATA
    __glewVertexAttribL2dv @4975 DATA
    __glewVertexAttribL2dvEXT @4976 DATA
    __glewVertexAttribL2i64NV @4977 DATA
    __glewVertexAttribL2i64vNV @4978 DATA
    __glewVertexAttribL2ui64NV @4979 DATA
    __glewVertexAttribL2ui64vNV @4980 DATA
    __glewVertexAttribL3d @4981 DATA
    __glewVertexAttribL3dEXT @4982 DATA
    __glewVertexAttribL3dv @4983 DATA
    __glewVertexAttribL3dvEXT @4984 DATA
    __glewVertexAttribL3i64NV @4985 DATA
    __glewVertexAttribL3i64vNV @4986 DATA
    __glewVertexAttribL3ui64NV @4987 DATA
    __glewVertexAttribL3ui64vNV @4988 DATA
    __glewVertexAttribL4d @4989 DATA
    __glewVertexAttribL4dEXT @4990 DATA
    __glewVertexAttribL4dv @4991 DATA
    __glewVertexAttribL4dvEXT @4992 DATA
    __glewVertexAttribL4i64NV @4993 DATA
    __glewVertexAttribL4i64vNV @4994 DATA
    __glewVertexAttribL4ui64NV @4995 DATA
    __glewVertexAttribL4ui64vNV @4996 DATA
    __glewVertexAttribLFormatNV @4997 DATA
    __glewVertexAttribLPointer @4998 DATA
    __glewVertexAttribLPointerEXT @4999 DATA
    __glewVertexAttribP1ui @5000 DATA
    __glewVertexAttribP1uiv @5001 DATA
    __glewVertexAttribP2ui @5002 DATA
    __glewVertexAttribP2uiv @5003 DATA
    __glewVertexAttribP3ui @5004 DATA
    __glewVertexAttribP3uiv @5005 DATA
    __glewVertexAttribP4ui @5006 DATA
    __glewVertexAttribP4uiv @5007 DATA
    __glewVertexAttribPointer @5008 DATA
    __glewVertexAttribPointerARB @5009 DATA
    __glewVertexAttribPointerNV @5010 DATA
    __glewVertexAttribs1dvNV @5011 DATA
    __glewVertexAttribs1fvNV @5012 DATA
    __glewVertexAttribs1hvNV @5013 DATA
    __glewVertexAttribs1svNV @5014 DATA
    __glewVertexAttribs2dvNV @5015 DATA
    __glewVertexAttribs2fvNV @5016 DATA
    __glewVertexAttribs2hvNV @5017 DATA
    __glewVertexAttribs2svNV @5018 DATA
    __glewVertexAttribs3dvNV @5019 DATA
    __glewVertexAttribs3fvNV @5020 DATA
    __glewVertexAttribs3hvNV @5021 DATA
    __glewVertexAttribs3svNV @5022 DATA
    __glewVertexAttribs4dvNV @5023 DATA
    __glewVertexAttribs4fvNV @5024 DATA
    __glewVertexAttribs4hvNV @5025 DATA
    __glewVertexAttribs4svNV @5026 DATA
    __glewVertexAttribs4ubvNV @5027 DATA
    __glewVertexBlendARB @5028 DATA
    __glewVertexBlendEnvfATI @5029 DATA
    __glewVertexBlendEnviATI @5030 DATA
    __glewVertexFormatNV @5031 DATA
    __glewVertexP2ui @5032 DATA
    __glewVertexP2uiv @5033 DATA
    __glewVertexP3ui @5034 DATA
    __glewVertexP3uiv @5035 DATA
    __glewVertexP4ui @5036 DATA
    __glewVertexP4uiv @5037 DATA
    __glewVertexPointerEXT @5038 DATA
    __glewVertexPointerListIBM @5039 DATA
    __glewVertexPointervINTEL @5040 DATA
    __glewVertexStream2dATI @5041 DATA
    __glewVertexStream2dvATI @5042 DATA
    __glewVertexStream2fATI @5043 DATA
    __glewVertexStream2fvATI @5044 DATA
    __glewVertexStream2iATI @5045 DATA
    __glewVertexStream2ivATI @5046 DATA
    __glewVertexStream2sATI @5047 DATA
    __glewVertexStream2svATI @5048 DATA
    __glewVertexStream3dATI @5049 DATA
    __glewVertexStream3dvATI @5050 DATA
    __glewVertexStream3fATI @5051 DATA
    __glewVertexStream3fvATI @5052 DATA
    __glewVertexStream3iATI @5053 DATA
    __glewVertexStream3ivATI @5054 DATA
    __glewVertexStream3sATI @5055 DATA
    __glewVertexStream3svATI @5056 DATA
    __glewVertexStream4dATI @5057 DATA
    __glewVertexStream4dvATI @5058 DATA
    __glewVertexStream4fATI @5059 DATA
    __glewVertexStream4fvATI @5060 DATA
    __glewVertexStream4iATI @5061 DATA
    __glewVertexStream4ivATI @5062 DATA
    __glewVertexStream4sATI @5063 DATA
    __glewVertexStream4svATI @5064 DATA
    __glewVertexWeightPointerEXT @5065 DATA
    __glewVertexWeightfEXT @5066 DATA
    __glewVertexWeightfvEXT @5067 DATA
    __glewVertexWeighthNV @5068 DATA
    __glewVertexWeighthvNV @5069 DATA
    __glewVideoCaptureNV @5070 DATA
    __glewVideoCaptureStreamParameterdvNV @5071 DATA
    __glewVideoCaptureStreamParameterfvNV @5072 DATA
    __glewVideoCaptureStreamParameterivNV @5073 DATA
    __glewViewportArrayv @5074 DATA
    __glewViewportIndexedf @5075 DATA
    __glewViewportIndexedfv @5076 DATA
    __glewWaitSync @5077 DATA
    __glewWeightPointerARB @5078 DATA
    __glewWeightbvARB @5079 DATA
    __glewWeightdvARB @5080 DATA
    __glewWeightfvARB @5081 DATA
    __glewWeightivARB @5082 DATA
    __glewWeightsvARB @5083 DATA
    __glewWeightubvARB @5084 DATA
    __glewWeightuivARB @5085 DATA
    __glewWeightusvARB @5086 DATA
    __glewWindowPos2d @5087 DATA
    __glewWindowPos2dARB @5088 DATA
    __glewWindowPos2dMESA @5089 DATA
    __glewWindowPos2dv @5090 DATA
    __glewWindowPos2dvARB @5091 DATA
    __glewWindowPos2dvMESA @5092 DATA
    __glewWindowPos2f @5093 DATA
    __glewWindowPos2fARB @5094 DATA
    __glewWindowPos2fMESA @5095 DATA
    __glewWindowPos2fv @5096 DATA
    __glewWindowPos2fvARB @5097 DATA
    __glewWindowPos2fvMESA @5098 DATA
    __glewWindowPos2i @5099 DATA
    __glewWindowPos2iARB @5100 DATA
    __glewWindowPos2iMESA @5101 DATA
    __glewWindowPos2iv @5102 DATA
    __glewWindowPos2ivARB @5103 DATA
    __glewWindowPos2ivMESA @5104 DATA
    __glewWindowPos2s @5105 DATA
    __glewWindowPos2sARB @5106 DATA
    __glewWindowPos2sMESA @5107 DATA
    __glewWindowPos2sv @5108 DATA
    __glewWindowPos2svARB @5109 DATA
    __glewWindowPos2svMESA @5110 DATA
    __glewWindowPos3d @5111 DATA
    __glewWindowPos3dARB @5112 DATA
    __glewWindowPos3dMESA @5113 DATA
    __glewWindowPos3dv @5114 DATA
    __glewWindowPos3dvARB @5115 DATA
    __glewWindowPos3dvMESA @5116 DATA
    __glewWindowPos3f @5117 DATA
    __glewWindowPos3fARB @5118 DATA
    __glewWindowPos3fMESA @5119 DATA
    __glewWindowPos3fv @5120 DATA
    __glewWindowPos3fvARB @5121 DATA
    __glewWindowPos3fvMESA @5122 DATA
    __glewWindowPos3i @5123 DATA
    __glewWindowPos3iARB @5124 DATA
    __glewWindowPos3iMESA @5125 DATA
    __glewWindowPos3iv @5126 DATA
    __glewWindowPos3ivARB @5127 DATA
    __glewWindowPos3ivMESA @5128 DATA
    __glewWindowPos3s @5129 DATA
    __glewWindowPos3sARB @5130 DATA
    __glewWindowPos3sMESA @5131 DATA
    __glewWindowPos3sv @5132 DATA
    __glewWindowPos3svARB @5133 DATA
    __glewWindowPos3svMESA @5134 DATA
    __glewWindowPos4dMESA @5135 DATA
    __glewWindowPos4dvMESA @5136 DATA
    __glewWindowPos4fMESA @5137 DATA
    __glewWindowPos4fvMESA @5138 DATA
    __glewWindowPos4iMESA @5139 DATA
    __glewWindowPos4ivMESA @5140 DATA
    __glewWindowPos4sMESA @5141 DATA
    __glewWindowPos4svMESA @5142 DATA
    __glewWriteMaskEXT @5143 DATA
    __wglewAllocateMemoryNV @5144 DATA
    __wglewAssociateImageBufferEventsI3D @5145 DATA
    __wglewBeginFrameTrackingI3D @5146 DATA
    __wglewBindDisplayColorTableEXT @5147 DATA
    __wglewBindSwapBarrierNV @5148 DATA
    __wglewBindTexImageARB @5149 DATA
    __wglewBindVideoCaptureDeviceNV @5150 DATA
    __wglewBindVideoDeviceNV @5151 DATA
    __wglewBindVideoImageNV @5152 DATA
    __wglewBlitContextFramebufferAMD @5153 DATA
    __wglewChoosePixelFormatARB @5154 DATA
    __wglewChoosePixelFormatEXT @5155 DATA
    __wglewCopyImageSubDataNV @5156 DATA
    __wglewCreateAffinityDCNV @5157 DATA
    __wglewCreateAssociatedContextAMD @5158 DATA
    __wglewCreateAssociatedContextAttribsAMD @5159 DATA
    __wglewCreateBufferRegionARB @5160 DATA
    __wglewCreateContextAttribsARB @5161 DATA
    __wglewCreateDisplayColorTableEXT @5162 DATA
    __wglewCreateImageBufferI3D @5163 DATA
    __wglewCreatePbufferARB @5164 DATA
    __wglewCreatePbufferEXT @5165 DATA
    __wglewDXCloseDeviceNV @5166 DATA
    __wglewDXLockObjectsNV @5167 DATA
    __wglewDXObjectAccessNV @5168 DATA
    __wglewDXOpenDeviceNV @5169 DATA
    __wglewDXRegisterObjectNV @5170 DATA
    __wglewDXSetResourceShareHandleNV @5171 DATA
    __wglewDXUnlockObjectsNV @5172 DATA
    __wglewDXUnregisterObjectNV @5173 DATA
    __wglewDeleteAssociatedContextAMD @5174 DATA
    __wglewDeleteBufferRegionARB @5175 DATA
    __wglewDeleteDCNV @5176 DATA
    __wglewDestroyDisplayColorTableEXT @5177 DATA
    __wglewDestroyImageBufferI3D @5178 DATA
    __wglewDestroyPbufferARB @5179 DATA
    __wglewDestroyPbufferEXT @5180 DATA
    __wglewDisableFrameLockI3D @5181 DATA
    __wglewDisableGenlockI3D @5182 DATA
    __wglewEnableFrameLockI3D @5183 DATA
    __wglewEnableGenlockI3D @5184 DATA
    __wglewEndFrameTrackingI3D @5185 DATA
    __wglewEnumGpuDevicesNV @5186 DATA
    __wglewEnumGpusFromAffinityDCNV @5187 DATA
    __wglewEnumGpusNV @5188 DATA
    __wglewEnumerateVideoCaptureDevicesNV @5189 DATA
    __wglewEnumerateVideoDevicesNV @5190 DATA
    __wglewFreeMemoryNV @5191 DATA
    __wglewGenlockSampleRateI3D @5192 DATA
    __wglewGenlockSourceDelayI3D @5193 DATA
    __wglewGenlockSourceEdgeI3D @5194 DATA
    __wglewGenlockSourceI3D @5195 DATA
    __wglewGetContextGPUIDAMD @5196 DATA
    __wglewGetCurrentAssociatedContextAMD @5197 DATA
    __wglewGetCurrentReadDCARB @5198 DATA
    __wglewGetCurrentReadDCEXT @5199 DATA
    __wglewGetDigitalVideoParametersI3D @5200 DATA
    __wglewGetExtensionsStringARB @5201 DATA
    __wglewGetExtensionsStringEXT @5202 DATA
    __wglewGetFrameUsageI3D @5203 DATA
    __wglewGetGPUIDsAMD @5204 DATA
    __wglewGetGPUInfoAMD @5205 DATA
    __wglewGetGammaTableI3D @5206 DATA
    __wglewGetGammaTableParametersI3D @5207 DATA
    __wglewGetGenlockSampleRateI3D @5208 DATA
    __wglewGetGenlockSourceDelayI3D @5209 DATA
    __wglewGetGenlockSourceEdgeI3D @5210 DATA
    __wglewGetGenlockSourceI3D @5211 DATA
    __wglewGetMscRateOML @5212 DATA
    __wglewGetPbufferDCARB @5213 DATA
    __wglewGetPbufferDCEXT @5214 DATA
    __wglewGetPixelFormatAttribfvARB @5215 DATA
    __wglewGetPixelFormatAttribfvEXT @5216 DATA
    __wglewGetPixelFormatAttribivARB @5217 DATA
    __wglewGetPixelFormatAttribivEXT @5218 DATA
    __wglewGetSwapIntervalEXT @5219 DATA
    __wglewGetSyncValuesOML @5220 DATA
    __wglewGetVideoDeviceNV @5221 DATA
    __wglewGetVideoInfoNV @5222 DATA
    __wglewIsEnabledFrameLockI3D @5223 DATA
    __wglewIsEnabledGenlockI3D @5224 DATA
    __wglewJoinSwapGroupNV @5225 DATA
    __wglewLoadDisplayColorTableEXT @5226 DATA
    __wglewLockVideoCaptureDeviceNV @5227 DATA
    __wglewMakeAssociatedContextCurrentAMD @5228 DATA
    __wglewMakeContextCurrentARB @5229 DATA
    __wglewMakeContextCurrentEXT @5230 DATA
    __wglewQueryCurrentContextNV @5231 DATA
    __wglewQueryFrameCountNV @5232 DATA
    __wglewQueryFrameLockMasterI3D @5233 DATA
    __wglewQueryFrameTrackingI3D @5234 DATA
    __wglewQueryGenlockMaxSourceDelayI3D @5235 DATA
    __wglewQueryMaxSwapGroupsNV @5236 DATA
    __wglewQueryPbufferARB @5237 DATA
    __wglewQueryPbufferEXT @5238 DATA
    __wglewQuerySwapGroupNV @5239 DATA
    __wglewQueryVideoCaptureDeviceNV @5240 DATA
    __wglewReleaseImageBufferEventsI3D @5241 DATA
    __wglewReleasePbufferDCARB @5242 DATA
    __wglewReleasePbufferDCEXT @5243 DATA
    __wglewReleaseTexImageARB @5244 DATA
    __wglewReleaseVideoCaptureDeviceNV @5245 DATA
    __wglewReleaseVideoDeviceNV @5246 DATA
    __wglewReleaseVideoImageNV @5247 DATA
    __wglewResetFrameCountNV @5248 DATA
    __wglewRestoreBufferRegionARB @5249 DATA
    __wglewSaveBufferRegionARB @5250 DATA
    __wglewSendPbufferToVideoNV @5251 DATA
    __wglewSetDigitalVideoParametersI3D @5252 DATA
    __wglewSetGammaTableI3D @5253 DATA
    __wglewSetGammaTableParametersI3D @5254 DATA
    __wglewSetPbufferAttribARB @5255 DATA
    __wglewSetStereoEmitterState3DL @5256 DATA
    __wglewSwapBuffersMscOML @5257 DATA
    __wglewSwapIntervalEXT @5258 DATA
    __wglewSwapLayerBuffersMscOML @5259 DATA
    __wglewWaitForMscOML @5260 DATA
    __wglewWaitForSbcOML @5261 DATA
    _get_output_format @5262
    af_autofitter_service @5263 DATA
    af_cjk_script_class @5264 DATA
    af_dummy_script_class @5265 DATA
    af_glyph_hints_dump_edges @5266
    af_glyph_hints_dump_points @5267
    af_glyph_hints_dump_segments @5268
    af_indic_script_class @5269 DATA
    af_latin_script_class @5270 DATA
    afm_parser_funcs @5271 DATA
    autofit_module_class @5272 DATA
    b2Vec2_zero @5273 DATA
    b2_defaultFilter @5274 DATA
    b2_defaultListener @5275 DATA
    b2_gjkCalls @5276 DATA
    b2_gjkIters @5277 DATA
    b2_gjkMaxIters @5278 DATA
    b2_toiCalls @5279 DATA
    b2_toiIters @5280 DATA
    b2_toiMaxIters @5281 DATA
    b2_toiMaxRootIters @5282 DATA
    b2_toiRootIters @5283 DATA
    b2_version @5284 DATA
    bdf_cmap_class @5285 DATA
    bdf_driver_class @5286 DATA
    cff_cmap_encoding_class_rec @5287 DATA
    cff_cmap_unicode_class_rec @5288 DATA
    cff_driver_class @5289 DATA
    ft_bitmap_glyph_class @5290 DATA
    ft_corner_is_flat @5291
    ft_corner_orientation @5292
    ft_glyphslot_alloc_bitmap @5293
    ft_glyphslot_free_bitmap @5294
    ft_glyphslot_set_bitmap @5295
    ft_grays_raster @5296 DATA
    ft_highpow2 @5297
    ft_lzwstate_done @5298
    ft_lzwstate_init @5299
    ft_lzwstate_io @5300
    ft_lzwstate_reset @5301
    ft_mem_alloc @5302
    ft_mem_dup @5303
    ft_mem_free @5304
    ft_mem_qalloc @5305
    ft_mem_qrealloc @5306
    ft_mem_realloc @5307
    ft_mem_strcpyn @5308
    ft_mem_strdup @5309
    ft_module_get_service @5310
    ft_outline_glyph_class @5311 DATA
    ft_raster1_renderer_class @5312 DATA
    ft_raster5_renderer_class @5313 DATA
    ft_service_list_lookup @5314
    ft_smooth_lcd_renderer_class @5315 DATA
    ft_smooth_lcdv_renderer_class @5316 DATA
    ft_smooth_renderer_class @5317 DATA
    ft_standard_raster @5318 DATA
    ft_stub_set_char_sizes @5319
    ft_stub_set_pixel_sizes @5320
    ft_synthesize_vertical_metrics @5321
    ft_validator_error @5322
    ft_validator_init @5323
    ft_validator_run @5324
    glewExperimental @5325 DATA
    glewGetErrorString @5326
    glewGetExtension @5327
    glewGetString @5328
    glewInit @5329
    glewIsSupported @5330
    jcopy_block_row @5331
    jcopy_sample_rows @5332
    jdiv_round_up @5333
    jinit_arith_encoder @5334
    jinit_c_coef_controller @5335
    jinit_c_main_controller @5336
    jinit_c_master_control @5337
    jinit_c_prep_controller @5338
    jinit_color_converter @5339
    jinit_compress_master @5340
    jinit_downsampler @5341
    jinit_forward_dct @5342
    jinit_huff_encoder @5343
    jinit_marker_writer @5344
    jinit_memory_mgr @5345
    jpeg_CreateCompress @5346
    jpeg_abort @5347
    jpeg_abort_compress @5348
    jpeg_add_quant_table @5349
    jpeg_alloc_huff_table @5350
    jpeg_alloc_quant_table @5351
    jpeg_aritab @5352 DATA
    jpeg_calc_jpeg_dimensions @5353
    jpeg_default_colorspace @5354
    jpeg_default_qtables @5355
    jpeg_destroy @5356
    jpeg_destroy_compress @5357
    jpeg_fdct_10x10 @5358
    jpeg_fdct_10x5 @5359
    jpeg_fdct_11x11 @5360
    jpeg_fdct_12x12 @5361
    jpeg_fdct_12x6 @5362
    jpeg_fdct_13x13 @5363
    jpeg_fdct_14x14 @5364
    jpeg_fdct_14x7 @5365
    jpeg_fdct_15x15 @5366
    jpeg_fdct_16x16 @5367
    jpeg_fdct_16x8 @5368
    jpeg_fdct_1x1 @5369
    jpeg_fdct_1x2 @5370
    jpeg_fdct_2x1 @5371
    jpeg_fdct_2x2 @5372
    jpeg_fdct_2x4 @5373
    jpeg_fdct_3x3 @5374
    jpeg_fdct_3x6 @5375
    jpeg_fdct_4x2 @5376
    jpeg_fdct_4x4 @5377
    jpeg_fdct_4x8 @5378
    jpeg_fdct_5x10 @5379
    jpeg_fdct_5x5 @5380
    jpeg_fdct_6x12 @5381
    jpeg_fdct_6x3 @5382
    jpeg_fdct_6x6 @5383
    jpeg_fdct_7x14 @5384
    jpeg_fdct_7x7 @5385
    jpeg_fdct_8x16 @5386
    jpeg_fdct_8x4 @5387
    jpeg_fdct_9x9 @5388
    jpeg_fdct_float @5389
    jpeg_fdct_ifast @5390
    jpeg_fdct_islow @5391
    jpeg_finish_compress @5392
    jpeg_free_large @5393
    jpeg_free_small @5394
    jpeg_get_large @5395
    jpeg_get_small @5396
    jpeg_mem_available @5397
    jpeg_mem_dest @5398
    jpeg_mem_init @5399
    jpeg_mem_term @5400
    jpeg_natural_order @5401 DATA
    jpeg_natural_order2 @5402 DATA
    jpeg_natural_order3 @5403 DATA
    jpeg_natural_order4 @5404 DATA
    jpeg_natural_order5 @5405 DATA
    jpeg_natural_order6 @5406 DATA
    jpeg_natural_order7 @5407 DATA
    jpeg_open_backing_store @5408
    jpeg_quality_scaling @5409
    jpeg_set_colorspace @5410
    jpeg_set_defaults @5411
    jpeg_set_linear_quality @5412
    jpeg_set_quality @5413
    jpeg_simple_progression @5414
    jpeg_start_compress @5415
    jpeg_std_error @5416
    jpeg_std_message_table @5417 DATA
    jpeg_stdio_dest @5418
    jpeg_suppress_tables @5419
    jpeg_write_m_byte @5420
    jpeg_write_m_header @5421
    jpeg_write_marker @5422
    jpeg_write_raw_data @5423
    jpeg_write_scanlines @5424
    jpeg_write_tables @5425
    jround_up @5426
    jzero_far @5427
    pcf_cmap_class @5428 DATA
    pcf_driver_class @5429 DATA
    pfr_cmap_class_rec @5430 DATA
    pfr_driver_class @5431 DATA
    pfr_metrics_service_rec @5432 DATA
    ps_hints_apply @5433
    ps_parser_funcs @5434 DATA
    ps_table_funcs @5435 DATA
    psaux_module_class @5436 DATA
    pshinter_module_class @5437 DATA
    psnames_module_class @5438 DATA
    sfnt_module_class @5439 DATA
    stbi_convert_iphone_png_to_rgb @5440
    stbi_failure_reason @5441
    stbi_hdr_to_ldr_gamma @5442
    stbi_hdr_to_ldr_scale @5443
    stbi_image_free @5444
    stbi_info @5445
    stbi_info_from_callbacks @5446
    stbi_info_from_file @5447
    stbi_info_from_memory @5448
    stbi_is_hdr @5449
    stbi_is_hdr_from_callbacks @5450
    stbi_is_hdr_from_file @5451
    stbi_is_hdr_from_memory @5452
    stbi_ldr_to_hdr_gamma @5453
    stbi_ldr_to_hdr_scale @5454
    stbi_load @5455
    stbi_load_from_callbacks @5456
    stbi_load_from_file @5457
    stbi_load_from_memory @5458
    stbi_loadf @5459
    stbi_loadf_from_callbacks @5460
    stbi_loadf_from_file @5461
    stbi_loadf_from_memory @5462
    stbi_png_partial @5463 DATA
    stbi_set_unpremultiply_on_load @5464
    stbi_write_bmp @5465
    stbi_write_png @5466
    stbi_write_tga @5467
    stbi_zlib_decode_buffer @5468
    stbi_zlib_decode_malloc @5469
    stbi_zlib_decode_malloc_guesssize @5470
    stbi_zlib_decode_noheader_buffer @5471
    stbi_zlib_decode_noheader_malloc @5472
    t1_builder_funcs @5473 DATA
    t1_cmap_classes @5474 DATA
    t1_cmap_custom_class_rec @5475 DATA
    t1_cmap_expert_class_rec @5476 DATA
    t1_cmap_standard_class_rec @5477 DATA
    t1_cmap_unicode_class_rec @5478 DATA
    t1_decoder_funcs @5479 DATA
    t1_driver_class @5480 DATA
    t1cid_driver_class @5481 DATA
    t42_driver_class @5482 DATA
    tt_cmap0_class_rec @5483 DATA
    tt_cmap10_class_rec @5484 DATA
    tt_cmap12_class_rec @5485 DATA
    tt_cmap13_class_rec @5486 DATA
    tt_cmap14_class_rec @5487 DATA
    tt_cmap2_class_rec @5488 DATA
    tt_cmap4_class_rec @5489 DATA
    tt_cmap6_class_rec @5490 DATA
    tt_cmap8_class_rec @5491 DATA
    tt_default_graphics_state @5492 DATA
    tt_driver_class @5493 DATA
    wglewContextInit @5494
    wglewGetExtension @5495
    wglewIsSupported @5496
    winfnt_driver_class @5497 DATA
