EXPORTS
    FT_Activate_Size @1
    FT_Add_Default_Modules @2
    FT_Add_Module @3
    FT_Alloc @4
    FT_Angle_Diff @5
    FT_Atan2 @6
    FT_Attach_File @7
    FT_Attach_Stream @8
    FT_Bitmap_Convert @9
    FT_Bitmap_Copy @10
    FT_Bitmap_Done @11
    FT_Bitmap_Embolden @12
    FT_Bitmap_New @13
    FT_CMap_Done @14
    FT_CMap_New @15
    FT_CeilFix @16
    FT_Cos @17
    FT_DivFix @18
    FT_Done_Face @19
    FT_Done_FreeType @20
    FT_Done_Glyph @21
    FT_Done_GlyphSlot @22
    FT_Done_Library @23
    FT_Done_Memory @24
    FT_Done_Size @25
    FT_Face_GetCharVariantIndex @26
    FT_Face_GetCharVariantIsDefault @27
    FT_Face_GetCharsOfVariant @28
    FT_Face_GetVariantSelectors @29
    FT_Face_GetVariantsOfChar @30
    FT_FloorFix @31
    FT_Free @32
    FT_Get_Advance @33
    FT_Get_Advances @34
    FT_Get_CMap_Format @35
    FT_Get_CMap_Language_ID @36
    FT_Get_Char_Index @37
    FT_Get_Charmap_Index @38
    FT_Get_First_Char @39
    FT_Get_Glyph @40
    FT_Get_Glyph_Name @41
    FT_Get_Kerning @42
    FT_Get_Module @43
    FT_Get_Module_Interface @44
    FT_Get_Name_Index @45
    FT_Get_Next_Char @46
    FT_Get_Postscript_Name @47
    FT_Get_Renderer @48
    FT_Get_Sfnt_Name @49
    FT_Get_Sfnt_Name_Count @50
    FT_Get_Sfnt_Table @51
    FT_Get_SubGlyph_Info @52
    FT_Get_Track_Kerning @53
    FT_Get_TrueType_Engine_Type @54
    FT_GlyphLoader_Add @55
    FT_GlyphLoader_CheckPoints @56
    FT_GlyphLoader_CheckSubGlyphs @57
    FT_GlyphLoader_CopyPoints @58
    FT_GlyphLoader_CreateExtra @59
    FT_GlyphLoader_Done @60
    FT_GlyphLoader_New @61
    FT_GlyphLoader_Prepare @62
    FT_GlyphLoader_Reset @63
    FT_GlyphLoader_Rewind @64
    FT_GlyphSlot_Own_Bitmap @65
    FT_Glyph_Copy @66
    FT_Glyph_Get_CBox @67
    FT_Glyph_To_Bitmap @68
    FT_Glyph_Transform @69
    FT_Init_FreeType @70
    FT_Library_Version @71
    FT_List_Add @72
    FT_List_Finalize @73
    FT_List_Find @74
    FT_List_Insert @75
    FT_List_Iterate @76
    FT_List_Remove @77
    FT_List_Up @78
    FT_Load_Char @79
    FT_Load_Glyph @80
    FT_Load_Sfnt_Table @81
    FT_Lookup_Renderer @82
    FT_Match_Size @83
    FT_Matrix_Invert @84
    FT_Matrix_Multiply @85
    FT_Matrix_Multiply_Scaled @86
    FT_MulDiv @87
    FT_MulDiv_No_Round @88
    FT_MulFix @89
    FT_New_Face @90
    FT_New_GlyphSlot @91
    FT_New_Library @92
    FT_New_Memory @93
    FT_New_Memory_Face @94
    FT_New_Size @95
    FT_Open_Face @96
    FT_Outline_Check @97
    FT_Outline_Copy @98
    FT_Outline_Decompose @99
    FT_Outline_Done @100
    FT_Outline_Done_Internal @101
    FT_Outline_Embolden @102
    FT_Outline_Get_Bitmap @103
    FT_Outline_Get_CBox @104
    FT_Outline_Get_Orientation @105
    FT_Outline_New @106
    FT_Outline_New_Internal @107
    FT_Outline_Render @108
    FT_Outline_Reverse @109
    FT_Outline_Transform @110
    FT_Outline_Translate @111
    FT_QAlloc @112
    FT_QRealloc @113
    FT_Raccess_Get_DataOffsets @114
    FT_Raccess_Get_HeaderInfo @115
    FT_Raccess_Guess @116
    FT_Realloc @117
    FT_Reference_Face @118
    FT_Reference_Library @119
    FT_Remove_Module @120
    FT_Render_Glyph @121
    FT_Render_Glyph_Internal @122
    FT_Request_Metrics @123
    FT_Request_Size @124
    FT_RoundFix @125
    FT_Select_Charmap @126
    FT_Select_Metrics @127
    FT_Select_Size @128
    FT_Set_Char_Size @129
    FT_Set_Charmap @130
    FT_Set_Debug_Hook @131
    FT_Set_Pixel_Sizes @132
    FT_Set_Renderer @133
    FT_Set_Transform @134
    FT_Sfnt_Table_Info @135
    FT_Sin @136
    FT_Sqrt32 @137
    FT_SqrtFixed @138
    FT_Stream_Close @139
    FT_Stream_EnterFrame @140
    FT_Stream_ExitFrame @141
    FT_Stream_ExtractFrame @142
    FT_Stream_Free @143
    FT_Stream_GetChar @144
    FT_Stream_GetLong @145
    FT_Stream_GetLongLE @146
    FT_Stream_GetOffset @147
    FT_Stream_GetShort @148
    FT_Stream_GetShortLE @149
    FT_Stream_New @150
    FT_Stream_Open @151
    FT_Stream_OpenGzip @152
    FT_Stream_OpenLZW @153
    FT_Stream_OpenMemory @154
    FT_Stream_Pos @155
    FT_Stream_Read @156
    FT_Stream_ReadAt @157
    FT_Stream_ReadChar @158
    FT_Stream_ReadFields @159
    FT_Stream_ReadLong @160
    FT_Stream_ReadLongLE @161
    FT_Stream_ReadOffset @162
    FT_Stream_ReadShort @163
    FT_Stream_ReadShortLE @164
    FT_Stream_ReleaseFrame @165
    FT_Stream_Seek @166
    FT_Stream_Skip @167
    FT_Stream_TryRead @168
    FT_Tan @169
    FT_Vector_From_Polar @170
    FT_Vector_Length @171
    FT_Vector_Polarize @172
    FT_Vector_Rotate @173
    FT_Vector_Transform @174
    FT_Vector_Transform_Scaled @175
    FT_Vector_Unit @176
    TT_New_Context @177
    TT_RunIns @178
    _Z10b2DistanceP16b2DistanceOutputP14b2SimplexCachePK15b2DistanceInput @179
    _Z10b2DistanceRK6b2Vec2S1_ @180
    _Z11stbi__crc32Phi @181
    _Z13b2MixFrictionff @182
    _Z13b2TestOverlapPK7b2ShapeiS1_iRK11b2TransformS4_ @183
    _Z13b2TestOverlapRK6b2AABBS1_ @184
    _Z14b2PairLessThanRK6b2PairS1_ @185
    _Z14b2TimeOfImpactP11b2TOIOutputPK10b2TOIInput @186
    _Z15stbi_loadf_mainP4stbiPiS1_S1_i @187
    _Z16b2CollideCirclesP10b2ManifoldPK13b2CircleShapeRK11b2TransformS3_S6_ @188
    _Z16b2GetPointStatesP12b2PointStateS0_PK10b2ManifoldS3_ @189
    _Z16b2MixRestitutionff @190
    _Z17b2CollidePolygonsP10b2ManifoldPK14b2PolygonShapeRK11b2TransformS3_S6_ @191
    _Z17b2DistanceSquaredRK6b2Vec2S1_ @192
    _Z18stbi_zlib_compressPhiPii @193
    _Z19b2ClipSegmentToLineP12b2ClipVertexPKS_RK6b2Vec2fi @194
    _Z21stbi_write_png_to_memPhiiiiPi @195
    _Z22b2CollideEdgeAndCircleP10b2ManifoldPK11b2EdgeShapeRK11b2TransformPK13b2CircleShapeS6_ @196
    _Z23b2CollideEdgeAndPolygonP10b2ManifoldPK11b2EdgeShapeRK11b2TransformPK14b2PolygonShapeS6_ @197
    _Z25b2CollidePolygonAndCircleP10b2ManifoldPK14b2PolygonShapeRK11b2TransformPK13b2CircleShapeS6_ @198
    _Z44stbi_zlib_decode_malloc_guesssize_headerflagPKciiPii @199
    _Z5b2AbsIfET_S0_ @200
    _Z5b2AbsIiET_S0_ @201
    _Z5b2AbsRK6b2Vec2 @202
    _Z5b2DotRK6b2Vec2S1_ @203
    _Z5b2DotRK6b2Vec3S1_ @204
    _Z5b2LogPKcz @205
    _Z5b2MaxIfET_S0_S0_ @206
    _Z5b2MaxIiET_S0_S0_ @207
    _Z5b2MaxRK6b2Vec2S1_ @208
    _Z5b2MinIfET_S0_S0_ @209
    _Z5b2MinIiET_S0_S0_ @210
    _Z5b2MinRK6b2Vec2S1_ @211
    _Z5b2MulRK11b2TransformRK6b2Vec2 @212
    _Z5b2MulRK5b2RotRK6b2Vec2 @213
    _Z5b2MulRK7b2Mat22RK6b2Vec2 @214
    _Z5b2MulRK7b2Mat33RK6b2Vec3 @215
    _Z6b2FreePv @216
    _Z6b2MulTRK11b2TransformRK6b2Vec2 @217
    _Z6b2MulTRK11b2TransformS1_ @218
    _Z6b2MulTRK5b2RotRK6b2Vec2 @219
    _Z6b2MulTRK5b2RotS1_ @220
    _Z6b2SwapIfEvRT_S1_ @221
    _Z7b2Alloci @222
    _Z7b2ClampIfET_S0_S0_S0_ @223
    _Z7b2CrossRK6b2Vec2S1_ @224
    _Z7b2CrossRK6b2Vec2f @225
    _Z7b2CrossRK6b2Vec3S1_ @226
    _Z7b2CrossfRK6b2Vec2 @227
    _Z7b2Mul22RK7b2Mat33RK6b2Vec2 @228
    _Z9b2IsValidf @229
    _ZN10b2ManifoldC1Ev @230
    _ZN10b2MassDataC1Ev @231
    _ZN10b2TOIInputC1Ev @232
    _ZN11b2EdgeShape3SetERK6b2Vec2S2_ @233
    _ZN11b2EdgeShapeC1Ev @234
    _ZN11b2EdgeShapeD0Ev @235
    _ZN11b2EdgeShapeD1Ev @236
    _ZN11b2EdgeShapeaSERKS_ @237
    _ZN11b2GearJoint23InitVelocityConstraintsERK12b2SolverData @238
    _ZN11b2GearJoint24SolvePositionConstraintsERK12b2SolverData @239
    _ZN11b2GearJoint24SolveVelocityConstraintsERK12b2SolverData @240
    _ZN11b2GearJoint4DumpEv @241
    _ZN11b2GearJoint8SetRatioEf @242
    _ZN11b2GearJointC1EPK14b2GearJointDef @243
    _ZN11b2GearJointC2EPK14b2GearJointDef @244
    _ZN11b2GearJointD0Ev @245
    _ZN11b2GearJointD1Ev @246
    _ZN11b2RopeJoint23InitVelocityConstraintsERK12b2SolverData @247
    _ZN11b2RopeJoint24SolvePositionConstraintsERK12b2SolverData @248
    _ZN11b2RopeJoint24SolveVelocityConstraintsERK12b2SolverData @249
    _ZN11b2RopeJoint4DumpEv @250
    _ZN11b2RopeJointC1EPK14b2RopeJointDef @251
    _ZN11b2RopeJointC2EPK14b2RopeJointDef @252
    _ZN11b2RopeJointD0Ev @253
    _ZN11b2RopeJointD1Ev @254
    _ZN11b2TransformC1Ev @255
    _ZN11b2WeldJoint23InitVelocityConstraintsERK12b2SolverData @256
    _ZN11b2WeldJoint24SolvePositionConstraintsERK12b2SolverData @257
    _ZN11b2WeldJoint24SolveVelocityConstraintsERK12b2SolverData @258
    _ZN11b2WeldJoint4DumpEv @259
    _ZN11b2WeldJointC1EPK14b2WeldJointDef @260
    _ZN11b2WeldJointC2EPK14b2WeldJointDef @261
    _ZN11b2WeldJointD0Ev @262
    _ZN11b2WeldJointD1Ev @263
    _ZN12b2BroadPhase10BufferMoveEi @264
    _ZN12b2BroadPhase10TouchProxyEi @265
    _ZN12b2BroadPhase11CreateProxyERK6b2AABBPv @266
    _ZN12b2BroadPhase11UpdatePairsI16b2ContactManagerEEvPT_ @267
    _ZN12b2BroadPhase12DestroyProxyEi @268
    _ZN12b2BroadPhase12UnBufferMoveEi @269
    _ZN12b2BroadPhase13QueryCallbackEi @270
    _ZN12b2BroadPhase9MoveProxyEiRK6b2AABBRK6b2Vec2 @271
    _ZN12b2BroadPhaseC1Ev @272
    _ZN12b2BroadPhaseC2Ev @273
    _ZN12b2BroadPhaseD1Ev @274
    _ZN12b2BroadPhaseD2Ev @275
    _ZN12b2ChainShape10CreateLoopEPK6b2Vec2i @276
    _ZN12b2ChainShape11CreateChainEPK6b2Vec2i @277
    _ZN12b2ChainShape13SetNextVertexERK6b2Vec2 @278
    _ZN12b2ChainShape13SetPrevVertexERK6b2Vec2 @279
    _ZN12b2ChainShapeC1Ev @280
    _ZN12b2ChainShapeD0Ev @281
    _ZN12b2ChainShapeD1Ev @282
    _ZN12b2ChainShapeD2Ev @283
    _ZN12b2ClipVertexC1Ev @284
    _ZN12b2EPCollider21ComputeEdgeSeparationEv @285
    _ZN12b2EPCollider24ComputePolygonSeparationEv @286
    _ZN12b2EPCollider7CollideEP10b2ManifoldPK11b2EdgeShapeRK11b2TransformPK14b2PolygonShapeS7_ @287
    _ZN12b2EPColliderC1Ev @288
    _ZN12b2FixtureDefC1Ev @289
    _ZN12b2MouseJoint11SetMaxForceEf @290
    _ZN12b2MouseJoint12SetFrequencyEf @291
    _ZN12b2MouseJoint15SetDampingRatioEf @292
    _ZN12b2MouseJoint23InitVelocityConstraintsERK12b2SolverData @293
    _ZN12b2MouseJoint24SolvePositionConstraintsERK12b2SolverData @294
    _ZN12b2MouseJoint24SolveVelocityConstraintsERK12b2SolverData @295
    _ZN12b2MouseJoint4DumpEv @296
    _ZN12b2MouseJoint9SetTargetERK6b2Vec2 @297
    _ZN12b2MouseJointC1EPK15b2MouseJointDef @298
    _ZN12b2MouseJointC2EPK15b2MouseJointDef @299
    _ZN12b2MouseJointD0Ev @300
    _ZN12b2MouseJointD1Ev @301
    _ZN12b2WheelJoint11EnableMotorEb @302
    _ZN12b2WheelJoint13SetMotorSpeedEf @303
    _ZN12b2WheelJoint17SetMaxMotorTorqueEf @304
    _ZN12b2WheelJoint23InitVelocityConstraintsERK12b2SolverData @305
    _ZN12b2WheelJoint24SolvePositionConstraintsERK12b2SolverData @306
    _ZN12b2WheelJoint24SolveVelocityConstraintsERK12b2SolverData @307
    _ZN12b2WheelJoint4DumpEv @308
    _ZN12b2WheelJointC1EPK15b2WheelJointDef @309
    _ZN12b2WheelJointC2EPK15b2WheelJointDef @310
    _ZN12b2WheelJointD0Ev @311
    _ZN12b2WheelJointD1Ev @312
    _ZN13b2DynamicTree10InsertLeafEi @313
    _ZN13b2DynamicTree10RemoveLeafEi @314
    _ZN13b2DynamicTree11CreateProxyERK6b2AABBPv @315
    _ZN13b2DynamicTree12AllocateNodeEv @316
    _ZN13b2DynamicTree12DestroyProxyEi @317
    _ZN13b2DynamicTree15RebuildBottomUpEv @318
    _ZN13b2DynamicTree7BalanceEi @319
    _ZN13b2DynamicTree8FreeNodeEi @320
    _ZN13b2DynamicTree9MoveProxyEiRK6b2AABBRK6b2Vec2 @321
    _ZN13b2DynamicTreeC1Ev @322
    _ZN13b2DynamicTreeC2Ev @323
    _ZN13b2DynamicTreeD1Ev @324
    _ZN13b2DynamicTreeD2Ev @325
    _ZN13b2PulleyJoint23InitVelocityConstraintsERK12b2SolverData @326
    _ZN13b2PulleyJoint24SolvePositionConstraintsERK12b2SolverData @327
    _ZN13b2PulleyJoint24SolveVelocityConstraintsERK12b2SolverData @328
    _ZN13b2PulleyJoint4DumpEv @329
    _ZN13b2PulleyJointC1EPK16b2PulleyJointDef @330
    _ZN13b2PulleyJointC2EPK16b2PulleyJointDef @331
    _ZN13b2PulleyJointD0Ev @332
    _ZN13b2PulleyJointD1Ev @333
    _ZN13b2TempPolygonC1Ev @334
    _ZN14b2PolygonShape3SetEPK6b2Vec2i @335
    _ZN14b2PolygonShape8SetAsBoxEff @336
    _ZN14b2PolygonShape8SetAsBoxEffRK6b2Vec2f @337
    _ZN14b2PolygonShapeC1Ev @338
    _ZN14b2PolygonShapeD0Ev @339
    _ZN14b2PolygonShapeD1Ev @340
    _ZN14b2PolygonShapeaSERKS_ @341
    _ZN14b2RayCastInputC1Ev @342
    _ZN14b2WeldJointDef10InitializeEP6b2BodyS1_RK6b2Vec2 @343
    _ZN15b2CircleContact6CreateEP9b2FixtureiS1_iP16b2BlockAllocator @344
    _ZN15b2CircleContact7DestroyEP9b2ContactP16b2BlockAllocator @345
    _ZN15b2CircleContact8EvaluateEP10b2ManifoldRK11b2TransformS4_ @346
    _ZN15b2CircleContactC1EP9b2FixtureS1_ @347
    _ZN15b2CircleContactC2EP9b2FixtureS1_ @348
    _ZN15b2CircleContactD0Ev @349
    _ZN15b2CircleContactD1Ev @350
    _ZN15b2ContactFilter13ShouldCollideEP9b2FixtureS1_ @351
    _ZN15b2ContactFilterC1Ev @352
    _ZN15b2ContactFilterD0Ev @353
    _ZN15b2ContactFilterD1Ev @354
    _ZN15b2ContactSolver13StoreImpulsesEv @355
    _ZN15b2ContactSolver24SolvePositionConstraintsEv @356
    _ZN15b2ContactSolver24SolveVelocityConstraintsEv @357
    _ZN15b2ContactSolver27SolveTOIPositionConstraintsEii @358
    _ZN15b2ContactSolver29InitializeVelocityConstraintsEv @359
    _ZN15b2ContactSolver9WarmStartEv @360
    _ZN15b2ContactSolverC1EP18b2ContactSolverDef @361
    _ZN15b2ContactSolverC2EP18b2ContactSolverDef @362
    _ZN15b2ContactSolverD1Ev @363
    _ZN15b2ContactSolverD2Ev @364
    _ZN15b2DistanceInputC1Ev @365
    _ZN15b2DistanceJoint23InitVelocityConstraintsERK12b2SolverData @366
    _ZN15b2DistanceJoint24SolvePositionConstraintsERK12b2SolverData @367
    _ZN15b2DistanceJoint24SolveVelocityConstraintsERK12b2SolverData @368
    _ZN15b2DistanceJoint4DumpEv @369
    _ZN15b2DistanceJointC1EPK18b2DistanceJointDef @370
    _ZN15b2DistanceJointC2EPK18b2DistanceJointDef @371
    _ZN15b2DistanceJointD0Ev @372
    _ZN15b2DistanceJointD1Ev @373
    _ZN15b2DistanceProxy3SetEPK7b2Shapei @374
    _ZN15b2DistanceProxyC1Ev @375
    _ZN15b2FrictionJoint11SetMaxForceEf @376
    _ZN15b2FrictionJoint12SetMaxTorqueEf @377
    _ZN15b2FrictionJoint23InitVelocityConstraintsERK12b2SolverData @378
    _ZN15b2FrictionJoint24SolvePositionConstraintsERK12b2SolverData @379
    _ZN15b2FrictionJoint24SolveVelocityConstraintsERK12b2SolverData @380
    _ZN15b2FrictionJoint4DumpEv @381
    _ZN15b2FrictionJointC1EPK18b2FrictionJointDef @382
    _ZN15b2FrictionJointC2EPK18b2FrictionJointDef @383
    _ZN15b2FrictionJointD0Ev @384
    _ZN15b2FrictionJointD1Ev @385
    _ZN15b2GrowableStackIiLi256EE3PopEv @386
    _ZN15b2GrowableStackIiLi256EE4PushERKi @387
    _ZN15b2GrowableStackIiLi256EE8GetCountEv @388
    _ZN15b2GrowableStackIiLi256EEC1Ev @389
    _ZN15b2GrowableStackIiLi256EED1Ev @390
    _ZN15b2ManifoldPointC1Ev @391
    _ZN15b2RayCastOutputC1Ev @392
    _ZN15b2ReferenceFaceC1Ev @393
    _ZN15b2RevoluteJoint11EnableLimitEb @394
    _ZN15b2RevoluteJoint11EnableMotorEb @395
    _ZN15b2RevoluteJoint13SetMotorSpeedEf @396
    _ZN15b2RevoluteJoint17SetMaxMotorTorqueEf @397
    _ZN15b2RevoluteJoint23InitVelocityConstraintsERK12b2SolverData @398
    _ZN15b2RevoluteJoint24SolvePositionConstraintsERK12b2SolverData @399
    _ZN15b2RevoluteJoint24SolveVelocityConstraintsERK12b2SolverData @400
    _ZN15b2RevoluteJoint4DumpEv @401
    _ZN15b2RevoluteJoint9SetLimitsEff @402
    _ZN15b2RevoluteJointC1EPK18b2RevoluteJointDef @403
    _ZN15b2RevoluteJointC2EPK18b2RevoluteJointDef @404
    _ZN15b2RevoluteJointD0Ev @405
    _ZN15b2RevoluteJointD1Ev @406
    _ZN15b2SimplexVertexC1Ev @407
    _ZN15b2WheelJointDef10InitializeEP6b2BodyS1_RK6b2Vec2S4_ @408
    _ZN15b2WorldManifold10InitializeEPK10b2ManifoldRK11b2TransformfS5_f @409
    _ZN15b2WorldManifoldC1Ev @410
    _ZN16b2BlockAllocator12s_blockSizesE @411 DATA
    _ZN16b2BlockAllocator17s_blockSizeLookupE @412 DATA
    _ZN16b2BlockAllocator28s_blockSizeLookupInitializedE @413 DATA
    _ZN16b2BlockAllocator4FreeEPvi @414
    _ZN16b2BlockAllocator5ClearEv @415
    _ZN16b2BlockAllocator8AllocateEi @416
    _ZN16b2BlockAllocatorC1Ev @417
    _ZN16b2BlockAllocatorC2Ev @418
    _ZN16b2BlockAllocatorD1Ev @419
    _ZN16b2BlockAllocatorD2Ev @420
    _ZN16b2ContactManager15FindNewContactsEv @421
    _ZN16b2ContactManager7AddPairEPvS0_ @422
    _ZN16b2ContactManager7CollideEv @423
    _ZN16b2ContactManager7DestroyEP9b2Contact @424
    _ZN16b2ContactManagerC1Ev @425
    _ZN16b2ContactManagerC2Ev @426
    _ZN16b2ContactManagerD1Ev @427
    _ZN16b2DistanceOutputC1Ev @428
    _ZN16b2PolygonContact6CreateEP9b2FixtureiS1_iP16b2BlockAllocator @429
    _ZN16b2PolygonContact7DestroyEP9b2ContactP16b2BlockAllocator @430
    _ZN16b2PolygonContact8EvaluateEP10b2ManifoldRK11b2TransformS4_ @431
    _ZN16b2PolygonContactC1EP9b2FixtureS1_ @432
    _ZN16b2PolygonContactC2EP9b2FixtureS1_ @433
    _ZN16b2PolygonContactD0Ev @434
    _ZN16b2PolygonContactD1Ev @435
    _ZN16b2PrismaticJoint11EnableLimitEb @436
    _ZN16b2PrismaticJoint11EnableMotorEb @437
    _ZN16b2PrismaticJoint13SetMotorSpeedEf @438
    _ZN16b2PrismaticJoint16SetMaxMotorForceEf @439
    _ZN16b2PrismaticJoint23InitVelocityConstraintsERK12b2SolverData @440
    _ZN16b2PrismaticJoint24SolvePositionConstraintsERK12b2SolverData @441
    _ZN16b2PrismaticJoint24SolveVelocityConstraintsERK12b2SolverData @442
    _ZN16b2PrismaticJoint4DumpEv @443
    _ZN16b2PrismaticJoint9SetLimitsEff @444
    _ZN16b2PrismaticJointC1EPK19b2PrismaticJointDef @445
    _ZN16b2PrismaticJointC2EPK19b2PrismaticJointDef @446
    _ZN16b2PrismaticJointD0Ev @447
    _ZN16b2PrismaticJointD1Ev @448
    _ZN16b2PulleyJointDef10InitializeEP6b2BodyS1_RK6b2Vec2S4_S4_S4_f @449
    _ZN16b2StackAllocator4FreeEPv @450
    _ZN16b2StackAllocator8AllocateEi @451
    _ZN16b2StackAllocatorC1Ev @452
    _ZN16b2StackAllocatorC2Ev @453
    _ZN16b2StackAllocatorD1Ev @454
    _ZN16b2StackAllocatorD2Ev @455
    _ZN17b2ContactListener10EndContactEP9b2Contact @456
    _ZN17b2ContactListener12BeginContactEP9b2Contact @457
    _ZN17b2ContactListener8PreSolveEP9b2ContactPK10b2Manifold @458
    _ZN17b2ContactListener9PostSolveEP9b2ContactPK16b2ContactImpulse @459
    _ZN17b2ContactListenerC1Ev @460
    _ZN17b2ContactListenerC2Ev @461
    _ZN17b2ContactListenerD0Ev @462
    _ZN17b2ContactListenerD1Ev @463
    _ZN17b2ContactListenerD2Ev @464
    _ZN18b2DistanceJointDef10InitializeEP6b2BodyS1_RK6b2Vec2S4_ @465
    _ZN18b2FrictionJointDef10InitializeEP6b2BodyS1_RK6b2Vec2 @466
    _ZN18b2RevoluteJointDef10InitializeEP6b2BodyS1_RK6b2Vec2 @467
    _ZN19b2PrismaticJointDef10InitializeEP6b2BodyS1_RK6b2Vec2S4_ @468
    _ZN19b2WorldQueryWrapper13QueryCallbackEi @469
    _ZN20b2SeparationFunction10InitializeEPK14b2SimplexCachePK15b2DistanceProxyRK7b2SweepS5_S8_f @470
    _ZN20b2SeparationFunctionC1Ev @471
    _ZN21b2DestructionListenerC2Ev @472
    _ZN21b2DestructionListenerD0Ev @473
    _ZN21b2DestructionListenerD1Ev @474
    _ZN21b2DestructionListenerD2Ev @475
    _ZN21b2WorldRayCastWrapper15RayCastCallbackERK14b2RayCastInputi @476
    _ZN22b2EdgeAndCircleContact6CreateEP9b2FixtureiS1_iP16b2BlockAllocator @477
    _ZN22b2EdgeAndCircleContact7DestroyEP9b2ContactP16b2BlockAllocator @478
    _ZN22b2EdgeAndCircleContact8EvaluateEP10b2ManifoldRK11b2TransformS4_ @479
    _ZN22b2EdgeAndCircleContactC1EP9b2FixtureS1_ @480
    _ZN22b2EdgeAndCircleContactC2EP9b2FixtureS1_ @481
    _ZN22b2EdgeAndCircleContactD0Ev @482
    _ZN22b2EdgeAndCircleContactD1Ev @483
    _ZN23b2ChainAndCircleContact6CreateEP9b2FixtureiS1_iP16b2BlockAllocator @484
    _ZN23b2ChainAndCircleContact7DestroyEP9b2ContactP16b2BlockAllocator @485
    _ZN23b2ChainAndCircleContact8EvaluateEP10b2ManifoldRK11b2TransformS4_ @486
    _ZN23b2ChainAndCircleContactC1EP9b2FixtureiS1_i @487
    _ZN23b2ChainAndCircleContactC2EP9b2FixtureiS1_i @488
    _ZN23b2ChainAndCircleContactD0Ev @489
    _ZN23b2ChainAndCircleContactD1Ev @490
    _ZN23b2EdgeAndPolygonContact6CreateEP9b2FixtureiS1_iP16b2BlockAllocator @491
    _ZN23b2EdgeAndPolygonContact7DestroyEP9b2ContactP16b2BlockAllocator @492
    _ZN23b2EdgeAndPolygonContact8EvaluateEP10b2ManifoldRK11b2TransformS4_ @493
    _ZN23b2EdgeAndPolygonContactC1EP9b2FixtureS1_ @494
    _ZN23b2EdgeAndPolygonContactC2EP9b2FixtureS1_ @495
    _ZN23b2EdgeAndPolygonContactD0Ev @496
    _ZN23b2EdgeAndPolygonContactD1Ev @497
    _ZN24b2ChainAndPolygonContact6CreateEP9b2FixtureiS1_iP16b2BlockAllocator @498
    _ZN24b2ChainAndPolygonContact7DestroyEP9b2ContactP16b2BlockAllocator @499
    _ZN24b2ChainAndPolygonContact8EvaluateEP10b2ManifoldRK11b2TransformS4_ @500
    _ZN24b2ChainAndPolygonContactC1EP9b2FixtureiS1_i @501
    _ZN24b2ChainAndPolygonContactC2EP9b2FixtureiS1_i @502
    _ZN24b2ChainAndPolygonContactD0Ev @503
    _ZN24b2ChainAndPolygonContactD1Ev @504
    _ZN24b2PositionSolverManifold10InitializeEP27b2ContactPositionConstraintRK11b2TransformS4_i @505
    _ZN24b2PositionSolverManifoldC1Ev @506
    _ZN25b2PolygonAndCircleContact6CreateEP9b2FixtureiS1_iP16b2BlockAllocator @507
    _ZN25b2PolygonAndCircleContact7DestroyEP9b2ContactP16b2BlockAllocator @508
    _ZN25b2PolygonAndCircleContact8EvaluateEP10b2ManifoldRK11b2TransformS4_ @509
    _ZN25b2PolygonAndCircleContactC1EP9b2FixtureS1_ @510
    _ZN25b2PolygonAndCircleContactC2EP9b2FixtureS1_ @511
    _ZN25b2PolygonAndCircleContactD0Ev @512
    _ZN25b2PolygonAndCircleContactD1Ev @513
    _ZN2sf10GlResource15ensureGlContextEv @514
    _ZN2sf10GlResourceC1Ev @515
    _ZN2sf10GlResourceC2Ev @516
    _ZN2sf10GlResourceD1Ev @517
    _ZN2sf10GlResourceD2Ev @518
    _ZN2sf11NonCopyableC2Ev @519
    _ZN2sf11SoundBuffer10initializeERNS_4priv9SoundFileE @520
    _ZN2sf11SoundBuffer12loadFromFileERKSs @521
    _ZN2sf11SoundBuffer14loadFromMemoryEPKvj @522
    _ZN2sf11SoundBuffer14loadFromStreamERNS_11InputStreamE @523
    _ZN2sf11SoundBuffer15loadFromSamplesEPKsjjj @524
    _ZN2sf11SoundBuffer6updateEjj @525
    _ZN2sf11SoundBufferC1ERKS0_ @526
    _ZN2sf11SoundBufferC1Ev @527
    _ZN2sf11SoundBufferC2ERKS0_ @528
    _ZN2sf11SoundBufferC2Ev @529
    _ZN2sf11SoundBufferD1Ev @530
    _ZN2sf11SoundBufferD2Ev @531
    _ZN2sf11SoundBufferaSERKS0_ @532
    _ZN2sf11SoundSource11setPositionERKNS_7Vector3IfEE @533
    _ZN2sf11SoundSource11setPositionEfff @534
    _ZN2sf11SoundSource14setAttenuationEf @535
    _ZN2sf11SoundSource14setMinDistanceEf @536
    _ZN2sf11SoundSource21setRelativeToListenerEb @537
    _ZN2sf11SoundSource8setPitchEf @538
    _ZN2sf11SoundSource9setVolumeEf @539
    _ZN2sf11SoundSourceC1ERKS0_ @540
    _ZN2sf11SoundSourceC1Ev @541
    _ZN2sf11SoundSourceC2ERKS0_ @542
    _ZN2sf11SoundSourceC2Ev @543
    _ZN2sf11SoundSourceD0Ev @544
    _ZN2sf11SoundSourceD1Ev @545
    _ZN2sf11SoundSourceD2Ev @546
    _ZN2sf11SoundStream10clearQueueEv @547
    _ZN2sf11SoundStream10initializeEjj @548
    _ZN2sf11SoundStream10streamDataEv @549
    _ZN2sf11SoundStream16setPlayingOffsetENS_4TimeE @550
    _ZN2sf11SoundStream17fillAndPushBufferEj @551
    _ZN2sf11SoundStream4playEv @552
    _ZN2sf11SoundStream4stopEv @553
    _ZN2sf11SoundStream5pauseEv @554
    _ZN2sf11SoundStream7setLoopEb @555
    _ZN2sf11SoundStream9fillQueueEv @556
    _ZN2sf11SoundStreamC1Ev @557
    _ZN2sf11SoundStreamC2Ev @558
    _ZN2sf11SoundStreamD0Ev @559
    _ZN2sf11SoundStreamD1Ev @560
    _ZN2sf11SoundStreamD2Ev @561
    _ZN2sf11ThreadLocal8setValueEPv @562
    _ZN2sf11ThreadLocalC1EPv @563
    _ZN2sf11ThreadLocalC2EPv @564
    _ZN2sf11ThreadLocalD1Ev @565
    _ZN2sf11ThreadLocalD2Ev @566
    _ZN2sf11VertexArray16setPrimitiveTypeENS_13PrimitiveTypeE @567
    _ZN2sf11VertexArray5clearEv @568
    _ZN2sf11VertexArray6appendERKNS_6VertexE @569
    _ZN2sf11VertexArray6resizeEj @570
    _ZN2sf11VertexArrayC1ENS_13PrimitiveTypeEj @571
    _ZN2sf11VertexArrayC1Ev @572
    _ZN2sf11VertexArrayC2ENS_13PrimitiveTypeEj @573
    _ZN2sf11VertexArrayC2Ev @574
    _ZN2sf11VertexArrayD0Ev @575
    _ZN2sf11VertexArrayD1Ev @576
    _ZN2sf11VertexArrayixEj @577
    _ZN2sf12RenderStates7DefaultE @578 DATA
    _ZN2sf12RenderStatesC1ENS_9BlendModeE @579
    _ZN2sf12RenderStatesC1ENS_9BlendModeERKNS_9TransformEPKNS_7TextureEPKNS_6ShaderE @580
    _ZN2sf12RenderStatesC1EPKNS_6ShaderE @581
    _ZN2sf12RenderStatesC1EPKNS_7TextureE @582
    _ZN2sf12RenderStatesC1ERKNS_9TransformE @583
    _ZN2sf12RenderStatesC1Ev @584
    _ZN2sf12RenderStatesC2ENS_9BlendModeE @585
    _ZN2sf12RenderStatesC2ENS_9BlendModeERKNS_9TransformEPKNS_7TextureEPKNS_6ShaderE @586
    _ZN2sf12RenderStatesC2EPKNS_6ShaderE @587
    _ZN2sf12RenderStatesC2EPKNS_7TextureE @588
    _ZN2sf12RenderStatesC2ERKNS_9TransformE @589
    _ZN2sf12RenderStatesC2Ev @590
    _ZN2sf12RenderTarget10initializeEv @591
    _ZN2sf12RenderTarget11StatesCacheC1Ev @592
    _ZN2sf12RenderTarget11applyShaderEPKNS_6ShaderE @593
    _ZN2sf12RenderTarget11popGLStatesEv @594
    _ZN2sf12RenderTarget12applyTextureEPKNS_7TextureE @595
    _ZN2sf12RenderTarget12pushGLStatesEv @596
    _ZN2sf12RenderTarget13resetGLStatesEv @597
    _ZN2sf12RenderTarget14applyBlendModeENS_9BlendModeE @598
    _ZN2sf12RenderTarget14applyTransformERKNS_9TransformE @599
    _ZN2sf12RenderTarget16applyCurrentViewEv @600
    _ZN2sf12RenderTarget4drawEPKNS_6VertexEjNS_13PrimitiveTypeERKNS_12RenderStatesE @601
    _ZN2sf12RenderTarget4drawERKNS_8DrawableERKNS_12RenderStatesE @602
    _ZN2sf12RenderTarget5clearERKNS_5ColorE @603
    _ZN2sf12RenderTarget7setViewERKNS_4ViewE @604
    _ZN2sf12RenderTargetC1Ev @605
    _ZN2sf12RenderTargetC2Ev @606
    _ZN2sf12RenderTargetD0Ev @607
    _ZN2sf12RenderTargetD1Ev @608
    _ZN2sf12RenderTargetD2Ev @609
    _ZN2sf12microsecondsEx @610
    _ZN2sf12millisecondsEi @611
    _ZN2sf13Transformable11setPositionERKNS_7Vector2IfEE @612
    _ZN2sf13Transformable11setPositionEff @613
    _ZN2sf13Transformable11setRotationEf @614
    _ZN2sf13Transformable4moveERKNS_7Vector2IfEE @615
    _ZN2sf13Transformable4moveEff @616
    _ZN2sf13Transformable5scaleERKNS_7Vector2IfEE @617
    _ZN2sf13Transformable5scaleEff @618
    _ZN2sf13Transformable6rotateEf @619
    _ZN2sf13Transformable8setScaleERKNS_7Vector2IfEE @620
    _ZN2sf13Transformable8setScaleEff @621
    _ZN2sf13Transformable9setOriginERKNS_7Vector2IfEE @622
    _ZN2sf13Transformable9setOriginEff @623
    _ZN2sf13TransformableC1Ev @624
    _ZN2sf13TransformableC2Ev @625
    _ZN2sf13TransformableD0Ev @626
    _ZN2sf13TransformableD1Ev @627
    _ZN2sf13TransformableD2Ev @628
    _ZN2sf14RectangleShape7setSizeERKNS_7Vector2IfEE @629
    _ZN2sf14RectangleShapeC1ERKNS_7Vector2IfEE @630
    _ZN2sf14RectangleShapeC2ERKNS_7Vector2IfEE @631
    _ZN2sf14RectangleShapeD0Ev @632
    _ZN2sf14RectangleShapeD1Ev @633
    _ZN2sf14ThreadLocalPtrINS_4priv9GlContextEEC1EPS2_ @634
    _ZN2sf14ThreadLocalPtrINS_4priv9GlContextEED1Ev @635
    _ZN2sf14ThreadLocalPtrINS_4priv9GlContextEEaSEPS2_ @636
    _ZN2sf15ContextSettingsC1Ejjjjj @637
    _ZN2sf3UtfILj16EE6decodeIPtEET_S4_S4_Rjj @638
    _ZN2sf3UtfILj16EE7toUtf32IPtPjEET0_T_S6_S5_ @639
    _ZN2sf3UtfILj32EE10decodeAnsiIcEEjT_RKSt6locale @640
    _ZN2sf3UtfILj32EE10decodeWideIwEEjT_ @641
    _ZN2sf3UtfILj32EE10encodeAnsiISt20back_insert_iteratorISsEEET_jS5_cRKSt6locale @642
    _ZN2sf3UtfILj32EE10encodeWideISt20back_insert_iteratorISbIwSt11char_traitsIwESaIwEEEEET_jS9_w @643
    _ZN2sf3UtfILj32EE6toAnsiIN9__gnu_cxx17__normal_iteratorIPKjSbIjSt11char_traitsIjESaIjEEEESt20back_insert_iteratorISsEEET0_T_SF_SE_cRKSt6locale @644
    _ZN2sf3UtfILj32EE6toWideIN9__gnu_cxx17__normal_iteratorIPKjSbIjSt11char_traitsIjESaIjEEEESt20back_insert_iteratorISbIwS7_IwESaIwEEEEET0_T_SI_SH_w @645
    _ZN2sf3UtfILj32EE8fromAnsiIN9__gnu_cxx17__normal_iteratorIPKcSsEESt20back_insert_iteratorISbIjSt11char_traitsIjESaIjEEEEET0_T_SF_SE_RKSt6locale @646
    _ZN2sf3UtfILj32EE8fromAnsiIPKcSt20back_insert_iteratorISbIjSt11char_traitsIjESaIjEEEEET0_T_SC_SB_RKSt6locale @647
    _ZN2sf3UtfILj32EE8fromWideIN9__gnu_cxx17__normal_iteratorIPKwSbIwSt11char_traitsIwESaIwEEEESt20back_insert_iteratorISbIjS7_IjESaIjEEEEET0_T_SI_SH_ @648
    _ZN2sf3UtfILj32EE8fromWideIPKwSt20back_insert_iteratorISbIjSt11char_traitsIjESaIjEEEEET0_T_SC_SB_ @649
    _ZN2sf3errEv @650
    _ZN2sf4Font12loadFromFileERKSs @651
    _ZN2sf4Font14loadFromMemoryEPKvj @652
    _ZN2sf4Font14loadFromStreamERNS_11InputStreamE @653
    _ZN2sf4Font3RowC1Ejj @654
    _ZN2sf4Font4PageC1ERKS1_ @655
    _ZN2sf4Font4PageC1Ev @656
    _ZN2sf4Font4PageC2Ev @657
    _ZN2sf4Font4PageD1Ev @658
    _ZN2sf4Font7cleanupEv @659
    _ZN2sf4FontC1ERKS0_ @660
    _ZN2sf4FontC1Ev @661
    _ZN2sf4FontC2ERKS0_ @662
    _ZN2sf4FontC2Ev @663
    _ZN2sf4FontD1Ev @664
    _ZN2sf4FontD2Ev @665
    _ZN2sf4FontaSERKS0_ @666
    _ZN2sf4LockC1ERNS_5MutexE @667
    _ZN2sf4LockC2ERNS_5MutexE @668
    _ZN2sf4LockD1Ev @669
    _ZN2sf4LockD2Ev @670
    _ZN2sf4RectIfEC1Effff @671
    _ZN2sf4RectIfEC1Ev @672
    _ZN2sf4RectIiEC1Eiiii @673
    _ZN2sf4RectIiEC1Ev @674
    _ZN2sf4Text14updateGeometryEv @675
    _ZN2sf4Text16setCharacterSizeEj @676
    _ZN2sf4Text7setFontERKNS_4FontE @677
    _ZN2sf4Text8setColorERKNS_5ColorE @678
    _ZN2sf4Text8setStyleEj @679
    _ZN2sf4Text9setStringERKNS_6StringE @680
    _ZN2sf4TextC1ERKNS_6StringERKNS_4FontEj @681
    _ZN2sf4TextC1Ev @682
    _ZN2sf4TextC2ERKNS_6StringERKNS_4FontEj @683
    _ZN2sf4TextC2Ev @684
    _ZN2sf4TextD0Ev @685
    _ZN2sf4TextD1Ev @686
    _ZN2sf4Time4ZeroE @687 DATA
    _ZN2sf4TimeC1Ev @688
    _ZN2sf4TimeC1Ex @689
    _ZN2sf4TimeC2Ev @690
    _ZN2sf4TimeC2Ex @691
    _ZN2sf4View11setRotationEf @692
    _ZN2sf4View11setViewportERKNS_4RectIfEE @693
    _ZN2sf4View4moveERKNS_7Vector2IfEE @694
    _ZN2sf4View4moveEff @695
    _ZN2sf4View4zoomEf @696
    _ZN2sf4View5resetERKNS_4RectIfEE @697
    _ZN2sf4View6rotateEf @698
    _ZN2sf4View7setSizeERKNS_7Vector2IfEE @699
    _ZN2sf4View7setSizeEff @700
    _ZN2sf4View9setCenterERKNS_7Vector2IfEE @701
    _ZN2sf4View9setCenterEff @702
    _ZN2sf4ViewC1ERKNS_4RectIfEE @703
    _ZN2sf4ViewC1ERKNS_7Vector2IfEES4_ @704
    _ZN2sf4ViewC1Ev @705
    _ZN2sf4ViewC2ERKNS_4RectIfEE @706
    _ZN2sf4ViewC2ERKNS_7Vector2IfEES4_ @707
    _ZN2sf4ViewC2Ev @708
    _ZN2sf4priv10ThreadFuncC2Ev @709
    _ZN2sf4priv10ThreadFuncD0Ev @710
    _ZN2sf4priv10ThreadFuncD1Ev @711
    _ZN2sf4priv10ThreadFuncD2Ev @712
    _ZN2sf4priv10ThreadImpl10entryPointEPv@4 @713
    _ZN2sf4priv10ThreadImpl4waitEv @714
    _ZN2sf4priv10ThreadImpl9terminateEv @715
    _ZN2sf4priv10ThreadImplC1EPNS_6ThreadE @716
    _ZN2sf4priv10ThreadImplC2EPNS_6ThreadE @717
    _ZN2sf4priv10ThreadImplD1Ev @718
    _ZN2sf4priv10ThreadImplD2Ev @719
    _ZN2sf4priv10WglContext11makeCurrentEv @720
    _ZN2sf4priv10WglContext13createContextEPS1_jRKNS_15ContextSettingsE @721
    _ZN2sf4priv10WglContext22setVerticalSyncEnabledEb @722
    _ZN2sf4priv10WglContext7displayEv @723
    _ZN2sf4priv10WglContextC1EPS1_ @724
    _ZN2sf4priv10WglContextC1EPS1_RKNS_15ContextSettingsEPKNS0_10WindowImplEj @725
    _ZN2sf4priv10WglContextC1EPS1_RKNS_15ContextSettingsEjj @726
    _ZN2sf4priv10WglContextC2EPS1_ @727
    _ZN2sf4priv10WglContextC2EPS1_RKNS_15ContextSettingsEPKNS0_10WindowImplEj @728
    _ZN2sf4priv10WglContextC2EPS1_RKNS_15ContextSettingsEjj @729
    _ZN2sf4priv10WglContextD0Ev @730
    _ZN2sf4priv10WglContextD1Ev @731
    _ZN2sf4priv10WglContextD2Ev @732
    _ZN2sf4priv10WindowImpl20setJoystickThresholdEf @733
    _ZN2sf4priv10WindowImpl21processJoystickEventsEv @734
    _ZN2sf4priv10WindowImpl6createENS_9VideoModeERKNS_6StringEjRKNS_15ContextSettingsE @735
    _ZN2sf4priv10WindowImpl6createEP6HWND__ @736
    _ZN2sf4priv10WindowImpl8popEventERNS_5EventEb @737
    _ZN2sf4priv10WindowImpl9pushEventERKNS_5EventE @738
    _ZN2sf4priv10WindowImplC1Ev @739
    _ZN2sf4priv10WindowImplC2Ev @740
    _ZN2sf4priv10WindowImplD0Ev @741
    _ZN2sf4priv10WindowImplD1Ev @742
    _ZN2sf4priv10WindowImplD2Ev @743
    _ZN2sf4priv11AudioDevice20isExtensionSupportedERKSs @744
    _ZN2sf4priv11AudioDevice25getFormatFromChannelCountEj @745
    _ZN2sf4priv11AudioDeviceC1Ev @746
    _ZN2sf4priv11AudioDeviceC2Ev @747
    _ZN2sf4priv11AudioDeviceD1Ev @748
    _ZN2sf4priv11AudioDeviceD2Ev @749
    _ZN2sf4priv11ImageLoader11getInstanceEv @750
    _ZN2sf4priv11ImageLoader15saveImageToFileERKSsRKSt6vectorIhSaIhEERKNS_7Vector2IjEE @751
    _ZN2sf4priv11ImageLoader17loadImageFromFileERKSsRSt6vectorIhSaIhEERNS_7Vector2IjEE @752
    _ZN2sf4priv11ImageLoader19loadImageFromMemoryEPKvjRSt6vectorIhSaIhEERNS_7Vector2IjEE @753
    _ZN2sf4priv11ImageLoader19loadImageFromStreamERNS_11InputStreamERSt6vectorIhSaIhEERNS_7Vector2IjEE @754
    _ZN2sf4priv11ImageLoader8writeJpgERKSsRKSt6vectorIhSaIhEEjj @755
    _ZN2sf4priv11ImageLoaderC1Ev @756
    _ZN2sf4priv11ImageLoaderC2Ev @757
    _ZN2sf4priv11ImageLoaderD1Ev @758
    _ZN2sf4priv11ImageLoaderD2Ev @759
    _ZN2sf4priv12JoystickCapsC1Ev @760
    _ZN2sf4priv12JoystickImpl10initializeEv @761
    _ZN2sf4priv12JoystickImpl11isConnectedEj @762
    _ZN2sf4priv12JoystickImpl4openEj @763
    _ZN2sf4priv12JoystickImpl5closeEv @764
    _ZN2sf4priv12JoystickImpl6updateEv @765
    _ZN2sf4priv12JoystickImpl7cleanupEv @766
    _ZN2sf4priv12TextureSaverC1Ev @767
    _ZN2sf4priv12TextureSaverC2Ev @768
    _ZN2sf4priv12TextureSaverD1Ev @769
    _ZN2sf4priv12TextureSaverD2Ev @770
    _ZN2sf4priv12alCheckErrorERKSsj @771
    _ZN2sf4priv12ensureALInitEv @772
    _ZN2sf4priv12glCheckErrorEPKcj @773
    _ZN2sf4priv13JoystickStateC1Ev @774
    _ZN2sf4priv13VideoModeImpl14getDesktopModeEv @775
    _ZN2sf4priv13VideoModeImpl18getFullscreenModesEv @776
    _ZN2sf4priv14ensureGlewInitEv @777
    _ZN2sf4priv15JoystickManager11getInstanceEv @778
    _ZN2sf4priv15JoystickManager4ItemC1Ev @779
    _ZN2sf4priv15JoystickManager6updateEv @780
    _ZN2sf4priv15JoystickManagerC1Ev @781
    _ZN2sf4priv15JoystickManagerC2Ev @782
    _ZN2sf4priv15JoystickManagerD1Ev @783
    _ZN2sf4priv15JoystickManagerD2Ev @784
    _ZN2sf4priv15ThreadLocalImpl8setValueEPv @785
    _ZN2sf4priv15ThreadLocalImplC1Ev @786
    _ZN2sf4priv15ThreadLocalImplC2Ev @787
    _ZN2sf4priv15ThreadLocalImplD1Ev @788
    _ZN2sf4priv15ThreadLocalImplD2Ev @789
    _ZN2sf4priv15WindowImplWin3210setVisibleEb @790
    _ZN2sf4priv15WindowImplWin3211setPositionERKNS_7Vector2IiEE @791
    _ZN2sf4priv15WindowImplWin3212processEventEjjl @792
    _ZN2sf4priv15WindowImplWin3213globalOnEventEP6HWND__jjl@16 @793
    _ZN2sf4priv15WindowImplWin3213processEventsEv @794
    _ZN2sf4priv15WindowImplWin3217hasUnicodeSupportEv @795
    _ZN2sf4priv15WindowImplWin3218switchToFullscreenERKNS_9VideoModeE @796
    _ZN2sf4priv15WindowImplWin3218virtualKeyCodeToSFEjl @797
    _ZN2sf4priv15WindowImplWin3219registerWindowClassEv @798
    _ZN2sf4priv15WindowImplWin3219setKeyRepeatEnabledEb @799
    _ZN2sf4priv15WindowImplWin3221setMouseCursorVisibleEb @800
    _ZN2sf4priv15WindowImplWin327cleanupEv @801
    _ZN2sf4priv15WindowImplWin327setIconEjjPKh @802
    _ZN2sf4priv15WindowImplWin327setSizeERKNS_7Vector2IjEE @803
    _ZN2sf4priv15WindowImplWin328setTitleERKNS_6StringE @804
    _ZN2sf4priv15WindowImplWin32C1ENS_9VideoModeERKNS_6StringEjRKNS_15ContextSettingsE @805
    _ZN2sf4priv15WindowImplWin32C1EP6HWND__ @806
    _ZN2sf4priv15WindowImplWin32C2ENS_9VideoModeERKNS_6StringEjRKNS_15ContextSettingsE @807
    _ZN2sf4priv15WindowImplWin32C2EP6HWND__ @808
    _ZN2sf4priv15WindowImplWin32D0Ev @809
    _ZN2sf4priv15WindowImplWin32D1Ev @810
    _ZN2sf4priv15WindowImplWin32D2Ev @811
    _ZN2sf4priv16ThreadMemberFuncINS_11SoundStreamEE3runEv @812
    _ZN2sf4priv16ThreadMemberFuncINS_11SoundStreamEEC1EMS2_FvvEPS2_ @813
    _ZN2sf4priv16ThreadMemberFuncINS_11SoundStreamEED0Ev @814
    _ZN2sf4priv16ThreadMemberFuncINS_11SoundStreamEED1Ev @815
    _ZN2sf4priv9ClockImpl14getCurrentTimeEv @816
    _ZN2sf4priv9GlContext10globalInitEv @817
    _ZN2sf4priv9GlContext10initializeEv @818
    _ZN2sf4priv9GlContext13ensureContextEv @819
    _ZN2sf4priv9GlContext13globalCleanupEv @820
    _ZN2sf4priv9GlContext14evaluateFormatEjRKNS_15ContextSettingsEiiii @821
    _ZN2sf4priv9GlContext6createERKNS_15ContextSettingsEPKNS0_10WindowImplEj @822
    _ZN2sf4priv9GlContext6createERKNS_15ContextSettingsEjj @823
    _ZN2sf4priv9GlContext6createEv @824
    _ZN2sf4priv9GlContext9setActiveEb @825
    _ZN2sf4priv9GlContextC1Ev @826
    _ZN2sf4priv9GlContextC2Ev @827
    _ZN2sf4priv9GlContextD0Ev @828
    _ZN2sf4priv9GlContextD1Ev @829
    _ZN2sf4priv9GlContextD2Ev @830
    _ZN2sf4priv9MutexImpl4lockEv @831
    _ZN2sf4priv9MutexImpl6unlockEv @832
    _ZN2sf4priv9MutexImplC1Ev @833
    _ZN2sf4priv9MutexImplC2Ev @834
    _ZN2sf4priv9MutexImplD1Ev @835
    _ZN2sf4priv9MutexImplD2Ev @836
    _ZN2sf4priv9SoundFile10initializeE7SF_INFO @837
    _ZN2sf4priv9SoundFile21getFormatFromFilenameERKSs @838
    _ZN2sf4priv9SoundFile4readEPsj @839
    _ZN2sf4priv9SoundFile4seekENS_4TimeE @840
    _ZN2sf4priv9SoundFile5writeEPKsj @841
    _ZN2sf4priv9SoundFile6Memory4readEPvxS3_ @842
    _ZN2sf4priv9SoundFile6Memory4seekExiPv @843
    _ZN2sf4priv9SoundFile6Memory4tellEPv @844
    _ZN2sf4priv9SoundFile6Memory9getLengthEPv @845
    _ZN2sf4priv9SoundFile6Stream4readEPvxS3_ @846
    _ZN2sf4priv9SoundFile6Stream4seekExiPv @847
    _ZN2sf4priv9SoundFile6Stream4tellEPv @848
    _ZN2sf4priv9SoundFile6Stream9getLengthEPv @849
    _ZN2sf4priv9SoundFile8openReadEPKvj @850
    _ZN2sf4priv9SoundFile8openReadERKSs @851
    _ZN2sf4priv9SoundFile8openReadERNS_11InputStreamE @852
    _ZN2sf4priv9SoundFile9openWriteERKSsjj @853
    _ZN2sf4priv9SoundFileC1Ev @854
    _ZN2sf4priv9SoundFileC2Ev @855
    _ZN2sf4priv9SoundFileD1Ev @856
    _ZN2sf4priv9SoundFileD2Ev @857
    _ZN2sf4priv9sleepImplENS_4TimeE @858
    _ZN2sf5Clock7restartEv @859
    _ZN2sf5ClockC1Ev @860
    _ZN2sf5ClockC2Ev @861
    _ZN2sf5Color11TransparentE @862 DATA
    _ZN2sf5Color3RedE @863 DATA
    _ZN2sf5Color4BlueE @864 DATA
    _ZN2sf5Color4CyanE @865 DATA
    _ZN2sf5Color5BlackE @866 DATA
    _ZN2sf5Color5GreenE @867 DATA
    _ZN2sf5Color5WhiteE @868 DATA
    _ZN2sf5Color6YellowE @869 DATA
    _ZN2sf5Color7MagentaE @870 DATA
    _ZN2sf5ColorC1Ehhhh @871
    _ZN2sf5ColorC1Ev @872
    _ZN2sf5ColorC2Ehhhh @873
    _ZN2sf5ColorC2Ev @874
    _ZN2sf5GlyphC1Ev @875
    _ZN2sf5Image12loadFromFileERKSs @876
    _ZN2sf5Image14flipVerticallyEv @877
    _ZN2sf5Image14loadFromMemoryEPKvj @878
    _ZN2sf5Image14loadFromStreamERNS_11InputStreamE @879
    _ZN2sf5Image16flipHorizontallyEv @880
    _ZN2sf5Image19createMaskFromColorERKNS_5ColorEh @881
    _ZN2sf5Image4copyERKS0_jjRKNS_4RectIiEEb @882
    _ZN2sf5Image6createEjjPKh @883
    _ZN2sf5Image6createEjjRKNS_5ColorE @884
    _ZN2sf5Image8setPixelEjjRKNS_5ColorE @885
    _ZN2sf5ImageC1ERKS0_ @886
    _ZN2sf5ImageC1Ev @887
    _ZN2sf5ImageC2Ev @888
    _ZN2sf5ImageD1Ev @889
    _ZN2sf5Music10initializeEv @890
    _ZN2sf5Music12openFromFileERKSs @891
    _ZN2sf5Music14openFromMemoryEPKvj @892
    _ZN2sf5Music14openFromStreamERNS_11InputStreamE @893
    _ZN2sf5Music6onSeekENS_4TimeE @894
    _ZN2sf5Music9onGetDataERNS_11SoundStream5ChunkE @895
    _ZN2sf5MusicC1Ev @896
    _ZN2sf5MusicC2Ev @897
    _ZN2sf5MusicD0Ev @898
    _ZN2sf5MusicD1Ev @899
    _ZN2sf5MusicD2Ev @900
    _ZN2sf5Mutex4lockEv @901
    _ZN2sf5Mutex6unlockEv @902
    _ZN2sf5MutexC1Ev @903
    _ZN2sf5MutexC2Ev @904
    _ZN2sf5MutexD1Ev @905
    _ZN2sf5MutexD2Ev @906
    _ZN2sf5Shape10setTextureEPKNS_7TextureEb @907
    _ZN2sf5Shape12setFillColorERKNS_5ColorE @908
    _ZN2sf5Shape13updateOutlineEv @909
    _ZN2sf5Shape14setTextureRectERKNS_4RectIiEE @910
    _ZN2sf5Shape15setOutlineColorERKNS_5ColorE @911
    _ZN2sf5Shape15updateTexCoordsEv @912
    _ZN2sf5Shape16updateFillColorsEv @913
    _ZN2sf5Shape19setOutlineThicknessEf @914
    _ZN2sf5Shape19updateOutlineColorsEv @915
    _ZN2sf5Shape6updateEv @916
    _ZN2sf5ShapeC1Ev @917
    _ZN2sf5ShapeC2Ev @918
    _ZN2sf5ShapeD0Ev @919
    _ZN2sf5ShapeD1Ev @920
    _ZN2sf5ShapeD2Ev @921
    _ZN2sf5Sound11resetBufferEv @922
    _ZN2sf5Sound16setPlayingOffsetENS_4TimeE @923
    _ZN2sf5Sound4playEv @924
    _ZN2sf5Sound4stopEv @925
    _ZN2sf5Sound5pauseEv @926
    _ZN2sf5Sound7setLoopEb @927
    _ZN2sf5Sound9setBufferERKNS_11SoundBufferE @928
    _ZN2sf5SoundC1ERKNS_11SoundBufferE @929
    _ZN2sf5SoundC1ERKS0_ @930
    _ZN2sf5SoundC1Ev @931
    _ZN2sf5SoundC2ERKNS_11SoundBufferE @932
    _ZN2sf5SoundC2ERKS0_ @933
    _ZN2sf5SoundC2Ev @934
    _ZN2sf5SoundD0Ev @935
    _ZN2sf5SoundD1Ev @936
    _ZN2sf5SoundD2Ev @937
    _ZN2sf5SoundaSERKS0_ @938
    _ZN2sf5sleepENS_4TimeE @939
    _ZN2sf6Shader11isAvailableEv @940
    _ZN2sf6Shader12loadFromFileERKSsNS0_4TypeE @941
    _ZN2sf6Shader12loadFromFileERKSsS2_ @942
    _ZN2sf6Shader12setParameterERKSsNS0_18CurrentTextureTypeE @943
    _ZN2sf6Shader12setParameterERKSsRKNS_5ColorE @944
    _ZN2sf6Shader12setParameterERKSsRKNS_7TextureE @945
    _ZN2sf6Shader12setParameterERKSsRKNS_7Vector2IfEE @946
    _ZN2sf6Shader12setParameterERKSsRKNS_7Vector3IfEE @947
    _ZN2sf6Shader12setParameterERKSsRKNS_9TransformE @948
    _ZN2sf6Shader12setParameterERKSsf @949
    _ZN2sf6Shader12setParameterERKSsff @950
    _ZN2sf6Shader12setParameterERKSsfff @951
    _ZN2sf6Shader12setParameterERKSsffff @952
    _ZN2sf6Shader14CurrentTextureE @953 DATA
    _ZN2sf6Shader14loadFromMemoryERKSsNS0_4TypeE @954
    _ZN2sf6Shader14loadFromMemoryERKSsS2_ @955
    _ZN2sf6Shader14loadFromStreamERNS_11InputStreamENS0_4TypeE @956
    _ZN2sf6Shader14loadFromStreamERNS_11InputStreamES2_ @957
    _ZN2sf6Shader16getParamLocationERKSs @958
    _ZN2sf6Shader4bindEPKS0_ @959
    _ZN2sf6Shader7compileEPKcS2_ @960
    _ZN2sf6ShaderC1Ev @961
    _ZN2sf6ShaderC2Ev @962
    _ZN2sf6ShaderD1Ev @963
    _ZN2sf6ShaderD2Ev @964
    _ZN2sf6String10InvalidPosE @965 DATA
    _ZN2sf6String3endEv @966
    _ZN2sf6String5beginEv @967
    _ZN2sf6String5clearEv @968
    _ZN2sf6String5eraseEjj @969
    _ZN2sf6String6insertEjRKS0_ @970
    _ZN2sf6StringC1EPKcRKSt6locale @971
    _ZN2sf6StringC1EPKj @972
    _ZN2sf6StringC1EPKw @973
    _ZN2sf6StringC1ERKS0_ @974
    _ZN2sf6StringC1ERKSbIjSt11char_traitsIjESaIjEE @975
    _ZN2sf6StringC1ERKSbIwSt11char_traitsIwESaIwEE @976
    _ZN2sf6StringC1ERKSsRKSt6locale @977
    _ZN2sf6StringC1EcRKSt6locale @978
    _ZN2sf6StringC1Ej @979
    _ZN2sf6StringC1Ev @980
    _ZN2sf6StringC1Ew @981
    _ZN2sf6StringC2EPKcRKSt6locale @982
    _ZN2sf6StringC2EPKj @983
    _ZN2sf6StringC2EPKw @984
    _ZN2sf6StringC2ERKS0_ @985
    _ZN2sf6StringC2ERKSbIjSt11char_traitsIjESaIjEE @986
    _ZN2sf6StringC2ERKSbIwSt11char_traitsIwESaIwEE @987
    _ZN2sf6StringC2ERKSsRKSt6locale @988
    _ZN2sf6StringC2EcRKSt6locale @989
    _ZN2sf6StringC2Ej @990
    _ZN2sf6StringC2Ev @991
    _ZN2sf6StringC2Ew @992
    _ZN2sf6StringD1Ev @993
    _ZN2sf6StringaSERKS0_ @994
    _ZN2sf6StringixEj @995
    _ZN2sf6StringpLERKS0_ @996
    _ZN2sf6Thread3runEv @997
    _ZN2sf6Thread4waitEv @998
    _ZN2sf6Thread6launchEv @999
    _ZN2sf6Thread9terminateEv @1000
    _ZN2sf6ThreadC1INS_11SoundStreamEEEMT_FvvEPS3_ @1001
    _ZN2sf6ThreadD1Ev @1002
    _ZN2sf6ThreadD2Ev @1003
    _ZN2sf6VertexC1ERKNS_7Vector2IfEE @1004
    _ZN2sf6VertexC1ERKNS_7Vector2IfEERKNS_5ColorE @1005
    _ZN2sf6VertexC1ERKNS_7Vector2IfEERKNS_5ColorES4_ @1006
    _ZN2sf6VertexC1ERKNS_7Vector2IfEES4_ @1007
    _ZN2sf6VertexC1Ev @1008
    _ZN2sf6VertexC2ERKNS_7Vector2IfEE @1009
    _ZN2sf6VertexC2ERKNS_7Vector2IfEERKNS_5ColorE @1010
    _ZN2sf6VertexC2ERKNS_7Vector2IfEERKNS_5ColorES4_ @1011
    _ZN2sf6VertexC2ERKNS_7Vector2IfEES4_ @1012
    _ZN2sf6VertexC2Ev @1013
    _ZN2sf6Window10initializeEv @1014
    _ZN2sf6Window10setVisibleEb @1015
    _ZN2sf6Window11filterEventERKNS_5EventE @1016
    _ZN2sf6Window11setPositionERKNS_7Vector2IiEE @1017
    _ZN2sf6Window17setFramerateLimitEj @1018
    _ZN2sf6Window19setKeyRepeatEnabledEb @1019
    _ZN2sf6Window20setJoystickThresholdEf @1020
    _ZN2sf6Window21setMouseCursorVisibleEb @1021
    _ZN2sf6Window22setVerticalSyncEnabledEb @1022
    _ZN2sf6Window5closeEv @1023
    _ZN2sf6Window6createENS_9VideoModeERKNS_6StringEjRKNS_15ContextSettingsE @1024
    _ZN2sf6Window6createEP6HWND__RKNS_15ContextSettingsE @1025
    _ZN2sf6Window7displayEv @1026
    _ZN2sf6Window7setIconEjjPKh @1027
    _ZN2sf6Window7setSizeENS_7Vector2IjEE @1028
    _ZN2sf6Window8onCreateEv @1029
    _ZN2sf6Window8onResizeEv @1030
    _ZN2sf6Window8setTitleERKNS_6StringE @1031
    _ZN2sf6Window9pollEventERNS_5EventE @1032
    _ZN2sf6Window9waitEventERNS_5EventE @1033
    _ZN2sf6WindowC1ENS_9VideoModeERKNS_6StringEjRKNS_15ContextSettingsE @1034
    _ZN2sf6WindowC1EP6HWND__RKNS_15ContextSettingsE @1035
    _ZN2sf6WindowC1Ev @1036
    _ZN2sf6WindowC2ENS_9VideoModeERKNS_6StringEjRKNS_15ContextSettingsE @1037
    _ZN2sf6WindowC2EP6HWND__RKNS_15ContextSettingsE @1038
    _ZN2sf6WindowC2Ev @1039
    _ZN2sf6WindowD0Ev @1040
    _ZN2sf6WindowD1Ev @1041
    _ZN2sf6WindowD2Ev @1042
    _ZN2sf7Texture11setRepeatedEb @1043
    _ZN2sf7Texture12getValidSizeEj @1044
    _ZN2sf7Texture12loadFromFileERKSsRKNS_4RectIiEE @1045
    _ZN2sf7Texture13loadFromImageERKNS_5ImageERKNS_4RectIiEE @1046
    _ZN2sf7Texture14getMaximumSizeEv @1047
    _ZN2sf7Texture14loadFromMemoryEPKvjRKNS_4RectIiEE @1048
    _ZN2sf7Texture14loadFromStreamERNS_11InputStreamERKNS_4RectIiEE @1049
    _ZN2sf7Texture4bindEPKS0_NS0_14CoordinateTypeE @1050
    _ZN2sf7Texture6createEjj @1051
    _ZN2sf7Texture6updateEPKh @1052
    _ZN2sf7Texture6updateEPKhjjjj @1053
    _ZN2sf7Texture6updateERKNS_5ImageE @1054
    _ZN2sf7Texture6updateERKNS_5ImageEjj @1055
    _ZN2sf7Texture6updateERKNS_6WindowE @1056
    _ZN2sf7Texture6updateERKNS_6WindowEjj @1057
    _ZN2sf7Texture9setSmoothEb @1058
    _ZN2sf7TextureC1ERKS0_ @1059
    _ZN2sf7TextureC1Ev @1060
    _ZN2sf7TextureC2ERKS0_ @1061
    _ZN2sf7TextureC2Ev @1062
    _ZN2sf7TextureD1Ev @1063
    _ZN2sf7TextureD2Ev @1064
    _ZN2sf7TextureaSERKS0_ @1065
    _ZN2sf7Vector2IfEC1Eff @1066
    _ZN2sf7Vector2IfEC1Ev @1067
    _ZN2sf7Vector2IiEC1Eii @1068
    _ZN2sf7Vector2IiEC1Ev @1069
    _ZN2sf7Vector2IjEC1Ejj @1070
    _ZN2sf7Vector3IfEC1Ev @1071
    _ZN2sf7secondsEf @1072
    _ZN2sf8DrawableC2Ev @1073
    _ZN2sf8DrawableD0Ev @1074
    _ZN2sf8DrawableD1Ev @1075
    _ZN2sf8DrawableD2Ev @1076
    _ZN2sf9Transform5scaleERKNS_7Vector2IfEE @1077
    _ZN2sf9Transform5scaleERKNS_7Vector2IfEES4_ @1078
    _ZN2sf9Transform5scaleEff @1079
    _ZN2sf9Transform5scaleEffff @1080
    _ZN2sf9Transform6rotateEf @1081
    _ZN2sf9Transform6rotateEfRKNS_7Vector2IfEE @1082
    _ZN2sf9Transform6rotateEfff @1083
    _ZN2sf9Transform7combineERKS0_ @1084
    _ZN2sf9Transform8IdentityE @1085 DATA
    _ZN2sf9Transform9translateERKNS_7Vector2IfEE @1086
    _ZN2sf9Transform9translateEff @1087
    _ZN2sf9TransformC1Efffffffff @1088
    _ZN2sf9TransformC1Ev @1089
    _ZN2sf9TransformC2Efffffffff @1090
    _ZN2sf9TransformC2Ev @1091
    _ZN2sf9VideoMode14getDesktopModeEv @1092
    _ZN2sf9VideoMode18getFullscreenModesEv @1093
    _ZN2sf9VideoModeC1Ejjj @1094
    _ZN2sf9VideoModeC1Ev @1095
    _ZN2sf9VideoModeC2Ejjj @1096
    _ZN2sf9VideoModeC2Ev @1097
    _ZN2sfdVERNS_4TimeEf @1098
    _ZN2sfdVERNS_4TimeEx @1099
    _ZN2sfdVIfEERNS_7Vector2IT_EES4_S2_ @1100
    _ZN2sfdvENS_4TimeEf @1101
    _ZN2sfdvENS_4TimeEx @1102
    _ZN2sfdvIfEENS_7Vector2IT_EERKS3_S2_ @1103
    _ZN2sfeqENS_4TimeES0_ @1104
    _ZN2sfeqERKNS_5ColorES2_ @1105
    _ZN2sfeqERKNS_6StringES2_ @1106
    _ZN2sfeqERKNS_9VideoModeES2_ @1107
    _ZN2sfeqIiEEbRKNS_4RectIT_EES5_ @1108
    _ZN2sfeqIjEEbRKNS_7Vector2IT_EES5_ @1109
    _ZN2sfgeENS_4TimeES0_ @1110
    _ZN2sfgeERKNS_6StringES2_ @1111
    _ZN2sfgeERKNS_9VideoModeES2_ @1112
    _ZN2sfgtENS_4TimeES0_ @1113
    _ZN2sfgtERKNS_6StringES2_ @1114
    _ZN2sfgtERKNS_9VideoModeES2_ @1115
    _ZN2sfleENS_4TimeES0_ @1116
    _ZN2sfleERKNS_6StringES2_ @1117
    _ZN2sfleERKNS_9VideoModeES2_ @1118
    _ZN2sfltENS_4TimeES0_ @1119
    _ZN2sfltERKNS_6StringES2_ @1120
    _ZN2sfltERKNS_9VideoModeES2_ @1121
    _ZN2sfmIERNS_4TimeES0_ @1122
    _ZN2sfmLERNS_4TimeEf @1123
    _ZN2sfmLERNS_4TimeEx @1124
    _ZN2sfmLERNS_5ColorERKS0_ @1125
    _ZN2sfmLERNS_9TransformERKS0_ @1126
    _ZN2sfmiENS_4TimeES0_ @1127
    _ZN2sfmiIfEENS_7Vector2IT_EERKS3_S5_ @1128
    _ZN2sfmlENS_4TimeEf @1129
    _ZN2sfmlENS_4TimeEx @1130
    _ZN2sfmlERKNS_5ColorES2_ @1131
    _ZN2sfmlERKNS_9TransformERKNS_7Vector2IfEE @1132
    _ZN2sfmlERKNS_9TransformES2_ @1133
    _ZN2sfmlEfNS_4TimeE @1134
    _ZN2sfmlExNS_4TimeE @1135
    _ZN2sfmlIfEENS_7Vector2IT_EERKS3_S2_ @1136
    _ZN2sfneENS_4TimeES0_ @1137
    _ZN2sfneERKNS_5ColorES2_ @1138
    _ZN2sfneERKNS_6StringES2_ @1139
    _ZN2sfneERKNS_9VideoModeES2_ @1140
    _ZN2sfneIjEEbRKNS_7Vector2IT_EES5_ @1141
    _ZN2sfngENS_4TimeE @1142
    _ZN2sfngIfEENS_7Vector2IT_EERKS3_ @1143
    _ZN2sfpLERNS_4TimeES0_ @1144
    _ZN2sfpLERNS_5ColorERKS0_ @1145
    _ZN2sfplENS_4TimeES0_ @1146
    _ZN2sfplERKNS_5ColorES2_ @1147
    _ZN2sfplERKNS_6StringES2_ @1148
    _ZN2sfplIfEENS_7Vector2IT_EERKS3_S5_ @1149
    _ZN4Json10FastWriter10writeValueERKNS_5ValueE @1150
    _ZN4Json10FastWriter23enableYAMLCompatibilityEv @1151
    _ZN4Json10FastWriter5writeERKNS_5ValueE @1152
    _ZN4Json10FastWriterC1Ev @1153
    _ZN4Json10FastWriterC2Ev @1154
    _ZN4Json10FastWriterD0Ev @1155
    _ZN4Json10FastWriterD1Ev @1156
    _ZN4Json12PathArgumentC1EPKc @1157
    _ZN4Json12PathArgumentC1ERKS0_ @1158
    _ZN4Json12PathArgumentC1ERKSs @1159
    _ZN4Json12PathArgumentC1Ej @1160
    _ZN4Json12PathArgumentC1Ev @1161
    _ZN4Json12PathArgumentC2EPKc @1162
    _ZN4Json12PathArgumentC2ERKSs @1163
    _ZN4Json12PathArgumentC2Ej @1164
    _ZN4Json12PathArgumentC2Ev @1165
    _ZN4Json12PathArgumentD1Ev @1166
    _ZN4Json12PathArgumentaSERKS0_ @1167
    _ZN4Json12StaticStringC1EPKc @1168
    _ZN4Json12StyledWriter10writeValueERKNS_5ValueE @1169
    _ZN4Json12StyledWriter11writeIndentEv @1170
    _ZN4Json12StyledWriter12normalizeEOLERKSs @1171
    _ZN4Json12StyledWriter14isMultineArrayERKNS_5ValueE @1172
    _ZN4Json12StyledWriter15writeArrayValueERKNS_5ValueE @1173
    _ZN4Json12StyledWriter15writeWithIndentERKSs @1174
    _ZN4Json12StyledWriter18hasCommentForValueERKNS_5ValueE @1175
    _ZN4Json12StyledWriter23writeCommentBeforeValueERKNS_5ValueE @1176
    _ZN4Json12StyledWriter32writeCommentAfterValueOnSameLineERKNS_5ValueE @1177
    _ZN4Json12StyledWriter5writeERKNS_5ValueE @1178
    _ZN4Json12StyledWriter6indentEv @1179
    _ZN4Json12StyledWriter8unindentEv @1180
    _ZN4Json12StyledWriter9pushValueERKSs @1181
    _ZN4Json12StyledWriterC1Ev @1182
    _ZN4Json12StyledWriterC2Ev @1183
    _ZN4Json12StyledWriterD0Ev @1184
    _ZN4Json12StyledWriterD1Ev @1185
    _ZN4Json13ValueIteratorC1ERKNS_18ValueConstIteratorE @1186
    _ZN4Json13ValueIteratorC1ERKS0_ @1187
    _ZN4Json13ValueIteratorC1ERKSt17_Rb_tree_iteratorISt4pairIKNS_5Value8CZStringES3_EE @1188
    _ZN4Json13ValueIteratorC1Ev @1189
    _ZN4Json13ValueIteratorC2ERKNS_18ValueConstIteratorE @1190
    _ZN4Json13ValueIteratorC2ERKS0_ @1191
    _ZN4Json13ValueIteratorC2ERKSt17_Rb_tree_iteratorISt4pairIKNS_5Value8CZStringES3_EE @1192
    _ZN4Json13ValueIteratorC2Ev @1193
    _ZN4Json13ValueIteratoraSERKS0_ @1194
    _ZN4Json13valueToStringEb @1195
    _ZN4Json13valueToStringEd @1196
    _ZN4Json13valueToStringEi @1197
    _ZN4Json13valueToStringEj @1198
    _ZN4Json14ValueAllocatorC2Ev @1199
    _ZN4Json14ValueAllocatorD0Ev @1200
    _ZN4Json14ValueAllocatorD1Ev @1201
    _ZN4Json14ValueAllocatorD2Ev @1202
    _ZN4Json17ValueIteratorBase4copyERKS0_ @1203
    _ZN4Json17ValueIteratorBase9decrementEv @1204
    _ZN4Json17ValueIteratorBase9incrementEv @1205
    _ZN4Json17ValueIteratorBaseC1ERKSt17_Rb_tree_iteratorISt4pairIKNS_5Value8CZStringES3_EE @1206
    _ZN4Json17ValueIteratorBaseC1Ev @1207
    _ZN4Json17ValueIteratorBaseC2ERKSt17_Rb_tree_iteratorISt4pairIKNS_5Value8CZStringES3_EE @1208
    _ZN4Json17ValueIteratorBaseC2Ev @1209
    _ZN4Json18StyledStreamWriter10writeValueERKNS_5ValueE @1210
    _ZN4Json18StyledStreamWriter11writeIndentEv @1211
    _ZN4Json18StyledStreamWriter12normalizeEOLERKSs @1212
    _ZN4Json18StyledStreamWriter14isMultineArrayERKNS_5ValueE @1213
    _ZN4Json18StyledStreamWriter15writeArrayValueERKNS_5ValueE @1214
    _ZN4Json18StyledStreamWriter15writeWithIndentERKSs @1215
    _ZN4Json18StyledStreamWriter18hasCommentForValueERKNS_5ValueE @1216
    _ZN4Json18StyledStreamWriter23writeCommentBeforeValueERKNS_5ValueE @1217
    _ZN4Json18StyledStreamWriter32writeCommentAfterValueOnSameLineERKNS_5ValueE @1218
    _ZN4Json18StyledStreamWriter5writeERSoRKNS_5ValueE @1219
    _ZN4Json18StyledStreamWriter6indentEv @1220
    _ZN4Json18StyledStreamWriter8unindentEv @1221
    _ZN4Json18StyledStreamWriter9pushValueERKSs @1222
    _ZN4Json18StyledStreamWriterC1ESs @1223
    _ZN4Json18StyledStreamWriterC2ESs @1224
    _ZN4Json18StyledStreamWriterD1Ev @1225
    _ZN4Json18ValueConstIteratorC1ERKSt17_Rb_tree_iteratorISt4pairIKNS_5Value8CZStringES3_EE @1226
    _ZN4Json18ValueConstIteratorC1Ev @1227
    _ZN4Json18ValueConstIteratorC2ERKSt17_Rb_tree_iteratorISt4pairIKNS_5Value8CZStringES3_EE @1228
    _ZN4Json18ValueConstIteratorC2Ev @1229
    _ZN4Json18ValueConstIteratoraSERKNS_17ValueIteratorBaseE @1230
    _ZN4Json19valueToQuotedStringEPKc @1231
    _ZN4Json21DefaultValueAllocator14makeMemberNameEPKc @1232
    _ZN4Json21DefaultValueAllocator17releaseMemberNameEPc @1233
    _ZN4Json21DefaultValueAllocator18releaseStringValueEPc @1234
    _ZN4Json21DefaultValueAllocator20duplicateStringValueEPKcj @1235
    _ZN4Json21DefaultValueAllocatorC1Ev @1236
    _ZN4Json21DefaultValueAllocatorD0Ev @1237
    _ZN4Json21DefaultValueAllocatorD1Ev @1238
    _ZN4Json30DummyValueAllocatorInitializerC1Ev @1239
    _ZN4Json4Path11invalidPathERKSsi @1240
    _ZN4Json4Path12addPathInArgERKSsRKSt6vectorIPKNS_12PathArgumentESaIS6_EERN9__gnu_cxx17__normal_iteratorIPKS6_S8_EENS4_4KindE @1241
    _ZN4Json4Path8makePathERKSsRKSt6vectorIPKNS_12PathArgumentESaIS6_EE @1242
    _ZN4Json4PathC1ERKSsRKNS_12PathArgumentES5_S5_S5_S5_ @1243
    _ZN4Json4PathC2ERKSsRKNS_12PathArgumentES5_S5_S5_S5_ @1244
    _ZN4Json5Value10setCommentEPKcNS_16CommentPlacementE @1245
    _ZN4Json5Value10setCommentERKSsNS_16CommentPlacementE @1246
    _ZN4Json5Value11CommentInfo10setCommentEPKc @1247
    _ZN4Json5Value11CommentInfoC1Ev @1248
    _ZN4Json5Value11CommentInfoC2Ev @1249
    _ZN4Json5Value11CommentInfoD1Ev @1250
    _ZN4Json5Value11CommentInfoD2Ev @1251
    _ZN4Json5Value12removeMemberEPKc @1252
    _ZN4Json5Value12removeMemberERKSs @1253
    _ZN4Json5Value16resolveReferenceEPKcb @1254
    _ZN4Json5Value3endEv @1255
    _ZN4Json5Value4nullE @1256 DATA
    _ZN4Json5Value4swapERS0_ @1257
    _ZN4Json5Value5beginEv @1258
    _ZN4Json5Value5clearEv @1259
    _ZN4Json5Value6appendERKS0_ @1260
    _ZN4Json5Value6maxIntE @1261 DATA
    _ZN4Json5Value6minIntE @1262 DATA
    _ZN4Json5Value6resizeEj @1263
    _ZN4Json5Value7compareERKS0_ @1264
    _ZN4Json5Value7maxUIntE @1265 DATA
    _ZN4Json5Value8CZString4swapERS1_ @1266
    _ZN4Json5Value8CZStringC1EPKcNS1_17DuplicationPolicyE @1267
    _ZN4Json5Value8CZStringC1ERKS1_ @1268
    _ZN4Json5Value8CZStringC1Ei @1269
    _ZN4Json5Value8CZStringC2EPKcNS1_17DuplicationPolicyE @1270
    _ZN4Json5Value8CZStringC2ERKS1_ @1271
    _ZN4Json5Value8CZStringC2Ei @1272
    _ZN4Json5Value8CZStringD1Ev @1273
    _ZN4Json5Value8CZStringD2Ev @1274
    _ZN4Json5Value8CZStringaSERKS1_ @1275
    _ZN4Json5ValueC1ENS_9ValueTypeE @1276
    _ZN4Json5ValueC1EPKc @1277
    _ZN4Json5ValueC1EPKcS2_ @1278
    _ZN4Json5ValueC1ERKNS_12StaticStringE @1279
    _ZN4Json5ValueC1ERKS0_ @1280
    _ZN4Json5ValueC1ERKSs @1281
    _ZN4Json5ValueC1Eb @1282
    _ZN4Json5ValueC1Ed @1283
    _ZN4Json5ValueC1Ei @1284
    _ZN4Json5ValueC1Ej @1285
    _ZN4Json5ValueC2ENS_9ValueTypeE @1286
    _ZN4Json5ValueC2EPKc @1287
    _ZN4Json5ValueC2EPKcS2_ @1288
    _ZN4Json5ValueC2ERKNS_12StaticStringE @1289
    _ZN4Json5ValueC2ERKS0_ @1290
    _ZN4Json5ValueC2ERKSs @1291
    _ZN4Json5ValueC2Eb @1292
    _ZN4Json5ValueC2Ed @1293
    _ZN4Json5ValueC2Ei @1294
    _ZN4Json5ValueC2Ej @1295
    _ZN4Json5ValueD1Ev @1296
    _ZN4Json5ValueD2Ev @1297
    _ZN4Json5ValueaSERKS0_ @1298
    _ZN4Json5ValueixEPKc @1299
    _ZN4Json5ValueixERKNS_12StaticStringE @1300
    _ZN4Json5ValueixERKSs @1301
    _ZN4Json5ValueixEj @1302
    _ZN4Json6Reader10addCommentEPKcS2_NS_16CommentPlacementE @1303
    _ZN4Json6Reader10readNumberEv @1304
    _ZN4Json6Reader10readObjectERNS0_5TokenE @1305
    _ZN4Json6Reader10readStringEv @1306
    _ZN4Json6Reader10skipSpacesEv @1307
    _ZN4Json6Reader11expectTokenENS0_9TokenTypeERNS0_5TokenEPKc @1308
    _ZN4Json6Reader11getNextCharEv @1309
    _ZN4Json6Reader11readCommentEv @1310
    _ZN4Json6Reader12currentValueEv @1311
    _ZN4Json6Reader12decodeDoubleERNS0_5TokenE @1312
    _ZN4Json6Reader12decodeNumberERNS0_5TokenE @1313
    _ZN4Json6Reader12decodeStringERNS0_5TokenE @1314
    _ZN4Json6Reader12decodeStringERNS0_5TokenERSs @1315
    _ZN4Json6Reader16recoverFromErrorENS0_9TokenTypeE @1316
    _ZN4Json6Reader17readCStyleCommentEv @1317
    _ZN4Json6Reader17skipCommentTokensERNS0_5TokenE @1318
    _ZN4Json6Reader18addErrorAndRecoverERKSsRNS0_5TokenENS0_9TokenTypeE @1319
    _ZN4Json6Reader19readCppStyleCommentEv @1320
    _ZN4Json6Reader22decodeUnicodeCodePointERNS0_5TokenERPKcS4_Rj @1321
    _ZN4Json6Reader27decodeUnicodeEscapeSequenceERNS0_5TokenERPKcS4_Rj @1322
    _ZN4Json6Reader5matchEPKci @1323
    _ZN4Json6Reader5parseEPKcS2_RNS_5ValueEb @1324
    _ZN4Json6Reader5parseERKSsRNS_5ValueEb @1325
    _ZN4Json6Reader5parseERSiRNS_5ValueEb @1326
    _ZN4Json6Reader8addErrorERKSsRNS0_5TokenEPKc @1327
    _ZN4Json6Reader9ErrorInfoC1ERKS1_ @1328
    _ZN4Json6Reader9ErrorInfoC1Ev @1329
    _ZN4Json6Reader9ErrorInfoD1Ev @1330
    _ZN4Json6Reader9ErrorInfoaSERKS1_ @1331
    _ZN4Json6Reader9readArrayERNS0_5TokenE @1332
    _ZN4Json6Reader9readTokenERNS0_5TokenE @1333
    _ZN4Json6Reader9readValueEv @1334
    _ZN4Json6ReaderC1ERKNS_8FeaturesE @1335
    _ZN4Json6ReaderC1Ev @1336
    _ZN4Json6ReaderC2ERKNS_8FeaturesE @1337
    _ZN4Json6ReaderC2Ev @1338
    _ZN4Json6ReaderD1Ev @1339
    _ZN4Json6WriterC2Ev @1340
    _ZN4Json6WriterD0Ev @1341
    _ZN4Json6WriterD1Ev @1342
    _ZN4Json6WriterD2Ev @1343
    _ZN4Json8Features10strictModeEv @1344
    _ZN4Json8Features3allEv @1345
    _ZN4Json8FeaturesC1Ev @1346
    _ZN4Json8FeaturesC2Ev @1347
    _ZN4JsonlsERSoRKNS_5ValueE @1348
    _ZN4JsonrsERSiRNS_5ValueE @1349
    _ZN5b2Rot3SetEf @1350
    _ZN5b2RotC1Ef @1351
    _ZN5b2RotC1Ev @1352
    _ZN6XeCore6Common13MemoryManager10ManageableC2Ev @1353
    _ZN6XeCore6Common13MemoryManager10queryPrintEPNS1_5QueryEj @1354
    _ZN6XeCore6Common13MemoryManager11_removeItemEPNS1_8ListItemE @1355
    _ZN6XeCore6Common13MemoryManager11traceMemoryEj @1356
    _ZN6XeCore6Common13MemoryManager12_deleteDebugEPv @1357
    _ZN6XeCore6Common13MemoryManager12addPrintableEPNS1_9PrintableE @1358
    _ZN6XeCore6Common13MemoryManager13_addPrintableEv @1359
    _ZN6XeCore6Common13MemoryManager13findPrintableEPNS1_9PrintableE @1360
    _ZN6XeCore6Common13MemoryManager13totalByteSizeEv @1361
    _ZN6XeCore6Common13MemoryManager14debugDataPrintEPNS1_9PrintableEi @1362
    _ZN6XeCore6Common13MemoryManager15removePrintableEPNS1_9PrintableE @1363
    _ZN6XeCore6Common13MemoryManager16_removePrintableEPNS1_13ListPrintableE @1364
    _ZN6XeCore6Common13MemoryManager17debugDataPrintAllEv @1365
    _ZN6XeCore6Common13MemoryManager19___RttiClassName___E @1366 DATA
    _ZN6XeCore6Common13MemoryManager30___RttiClassDerivationTable___E @1367 DATA
    _ZN6XeCore6Common13MemoryManager3addEPvbjPKci @1368
    _ZN6XeCore6Common13MemoryManager4_newEj @1369
    _ZN6XeCore6Common13MemoryManager4findEPv @1370
    _ZN6XeCore6Common13MemoryManager6removeEPNS1_8ListItemE @1371
    _ZN6XeCore6Common13MemoryManager7_deleteEPv @1372
    _ZN6XeCore6Common13MemoryManager8_addItemEv @1373
    _ZN6XeCore6Common13MemoryManager8getCountEv @1374
    _ZN6XeCore6Common13MemoryManager8getFirstEv @1375
    _ZN6XeCore6Common13MemoryManager9Printable10getMembersEv @1376
    _ZN6XeCore6Common13MemoryManager9Printable5setupEPNS2_6MemberE @1377
    _ZN6XeCore6Common13MemoryManager9Printable6MemberC1Ev @1378
    _ZN6XeCore6Common13MemoryManager9Printable7getNameEv @1379
    _ZN6XeCore6Common13MemoryManager9Printable8getCountEv @1380
    _ZN6XeCore6Common13MemoryManager9PrintableC1EPKc @1381
    _ZN6XeCore6Common13MemoryManager9PrintableC2EPKc @1382
    _ZN6XeCore6Common13MemoryManager9PrintableD1Ev @1383
    _ZN6XeCore6Common13MemoryManager9PrintableD2Ev @1384
    _ZN6XeCore6Common13MemoryManager9_newDebugEjPKci @1385
    _ZN6XeCore6Common13MemoryManagerC1Ev @1386
    _ZN6XeCore6Common13MemoryManagerC2Ev @1387
    _ZN6XeCore6Common13MemoryManagerD1Ev @1388
    _ZN6XeCore6Common13MemoryManagerD2Ev @1389
    _ZN6XeCore6Common5IRtti14getBasePointerEv @1390
    _ZN6XeCore6Common5IRtti17___RttiDerived___EjPj @1391
    _ZN6XeCore6Common5IRtti7getNameEv @1392
    _ZN6XeCore6Common5IRtti7getTypeEv @1393
    _ZN6XeCore6Common5IRtti9isDerivedIN9Ptakopysk12TextRendererEEEbPS1_ @1394
    _ZN6XeCore6Common5IRtti9isDerivedIN9Ptakopysk14SpriteRendererEEEbPS1_ @1395
    _ZN6XeCore6Common5IRtti9isDerivedIN9Ptakopysk4BodyEEEbPS1_ @1396
    _ZN6XeCore6Common5IRtti9isDerivedIN9Ptakopysk6CameraEEEbPS1_ @1397
    _ZN6XeCore6Common5IRtti9isDerivedIN9Ptakopysk9TransformEEEbPS1_ @1398
    _ZN6XeCore6Common5IRttiC1EPjPKcPv @1399
    _ZN6XeCore6Common5IRttiC2EPjPKcPv @1400
    _ZN6XeCore6Common5IRttiD1Ev @1401
    _ZN6XeCore6Common5IRttiD2Ev @1402
    _ZN6XeCore6Common6Logger19___RttiClassName___E @1403 DATA
    _ZN6XeCore6Common6Logger30___RttiClassDerivationTable___E @1404 DATA
    _ZN6XeCore6Common6Logger3logEPKcz @1405
    _ZN6XeCore6Common6Logger5lognlEPKcz @1406
    _ZN6XeCore6Common6Logger5setupEPKc @1407
    _ZN6XeCore6Common6LoggerC1Ev @1408
    _ZN6XeCore6Common6LoggerC2Ev @1409
    _ZN6XeCore6Common6LoggerD1Ev @1410
    _ZN6XeCore6Common6LoggerD2Ev @1411
    _ZN6XeCore6Common6String19___RttiClassName___E @1412 DATA
    _ZN6XeCore6Common6String30___RttiClassDerivationTable___E @1413 DATA
    _ZN6XeCore6Common6String6formatEPKcz @1414
    _ZN6XeCore6Common6StringC1EPKc @1415
    _ZN6XeCore6Common6StringC1EPKcj @1416
    _ZN6XeCore6Common6StringC1ERKS1_ @1417
    _ZN6XeCore6Common6StringC1ERKSs @1418
    _ZN6XeCore6Common6StringC1ERKSsjj @1419
    _ZN6XeCore6Common6StringC1Ejc @1420
    _ZN6XeCore6Common6StringC1Ev @1421
    _ZN6XeCore6Common6StringC2EPKc @1422
    _ZN6XeCore6Common6StringC2EPKcj @1423
    _ZN6XeCore6Common6StringC2ERKSs @1424
    _ZN6XeCore6Common6StringC2ERKSsjj @1425
    _ZN6XeCore6Common6StringC2Ejc @1426
    _ZN6XeCore6Common6StringC2Ev @1427
    _ZN6XeCore6Common6StringD1Ev @1428
    _ZN6XeCore6Common6StringaSERKS1_ @1429
    _ZN6XeCore6Common6VectorINS0_6StringEEC1Ev @1430
    _ZN6XeCore6Common6VectorINS0_6StringEED1Ev @1431
    _ZN6XeCore6Common8PropertyI10b2BodyTypeN9Ptakopysk4BodyEEC1EPS4_MS4_FS2_vEMS4_FvS2_E @1432
    _ZN6XeCore6Common8PropertyI6b2Vec2N9Ptakopysk11GameManagerEEC1EPS4_MS4_FS2_vEMS4_FvS2_E @1433
    _ZN6XeCore6Common8PropertyI6b2Vec2N9Ptakopysk4BodyEEC1EPS4_MS4_FS2_vEMS4_FvS2_E @1434
    _ZN6XeCore6Common8PropertyIN2sf12RenderStatesEN9Ptakopysk12TextRendererEEC1EPS5_MS5_FS3_vEMS5_FvS3_E @1435
    _ZN6XeCore6Common8PropertyIN2sf12RenderStatesEN9Ptakopysk14SpriteRendererEEC1EPS5_MS5_FS3_vEMS5_FvS3_E @1436
    _ZN6XeCore6Common8PropertyIN2sf4RectIfEEN9Ptakopysk6CameraEEC1EPS6_MS6_FS4_vEMS6_FvS4_E @1437
    _ZN6XeCore6Common8PropertyIN2sf5ColorEN9Ptakopysk12TextRendererEEC1EPS5_MS5_FS3_vEMS5_FvS3_E @1438
    _ZN6XeCore6Common8PropertyIN2sf5ColorEN9Ptakopysk14SpriteRendererEEC1EPS5_MS5_FS3_vEMS5_FvS3_E @1439
    _ZN6XeCore6Common8PropertyIN2sf6StringEN9Ptakopysk12TextRendererEEC1EPS5_MS5_FS3_vEMS5_FvS3_E @1440
    _ZN6XeCore6Common8PropertyIN2sf7Vector2IfEEN9Ptakopysk14SpriteRendererEEC1EPS6_MS6_FS4_vEMS6_FvS4_E @1441
    _ZN6XeCore6Common8PropertyIN2sf7Vector2IfEEN9Ptakopysk6CameraEEC1EPS6_MS6_FS4_vEMS6_FvS4_E @1442
    _ZN6XeCore6Common8PropertyIN2sf7Vector2IfEEN9Ptakopysk9TransformEEC1EPS6_MS6_FS4_vEMS6_FvS4_E @1443
    _ZN6XeCore6Common8PropertyIN9Ptakopysk9Component4TypeES3_EC1EPS3_MS3_FS4_vEMS3_FvS4_E @1444
    _ZN6XeCore6Common8PropertyIPN2sf4FontEN9Ptakopysk12TextRendererEEC1EPS6_MS6_FS4_vEMS6_FvS4_E @1445
    _ZN6XeCore6Common8PropertyIPN2sf7TextureEN9Ptakopysk14SpriteRendererEEC1EPS6_MS6_FS4_vEMS6_FvS4_E @1446
    _ZN6XeCore6Common8PropertyIPN9Ptakopysk10GameObjectENS2_9ComponentEEC1EPS5_MS5_FS4_vEMS5_FvS4_E @1447
    _ZN6XeCore6Common8PropertyIPN9Ptakopysk11GameManagerENS2_10GameObjectEEC1EPS5_MS5_FS4_vEMS5_FvS4_E @1448
    _ZN6XeCore6Common8PropertyIRSt6vectorI6b2Vec2SaIS3_EEN9Ptakopysk4BodyEEC1EPS8_MS8_FS6_vEMS8_FvS6_E @1449
    _ZN6XeCore6Common8PropertyISsN9Ptakopysk10GameObjectEEC1EPS3_MS3_FSsvEMS3_FvSsE @1450
    _ZN6XeCore6Common8PropertyIbN9Ptakopysk10GameObjectEEC1EPS3_MS3_FbvEMS3_FvbE @1451
    _ZN6XeCore6Common8PropertyIbN9Ptakopysk4BodyEEC1EPS3_MS3_FbvEMS3_FvbE @1452
    _ZN6XeCore6Common8PropertyIbN9Ptakopysk9ComponentEEC1EPS3_MS3_FbvEMS3_FvbE @1453
    _ZN6XeCore6Common8PropertyIfN9Ptakopysk4BodyEEC1EPS3_MS3_FfvEMS3_FvfE @1454
    _ZN6XeCore6Common8PropertyIfN9Ptakopysk9TransformEEC1EPS3_MS3_FfvEMS3_FvfE @1455
    _ZN6XeCore6Common8PropertyIiN9Ptakopysk10GameObjectEEC1EPS3_MS3_FivEMS3_FviE @1456
    _ZN6XeCore6Common8PropertyIjN9Ptakopysk12TextRendererEEC1EPS3_MS3_FjvEMS3_FvjE @1457
    _ZN6XeCore6Common9SingletonIN9Ptakopysk6AssetsEE10m_instanceE @1458 DATA
    _ZN6XeCore6Common9SingletonIN9Ptakopysk6AssetsEE3useEv @1459
    _ZN6XeCore6Common9SingletonIN9Ptakopysk6AssetsEE8instanceEv @1460
    _ZN6XeCore6Common9SingletonIN9Ptakopysk6AssetsEEC2Ev @1461
    _ZN6XeCore6Common9SingletonIN9Ptakopysk6EventsEEC2Ev @1462
    _ZN6XeCore6Common9SingletonINS0_13MemoryManagerEE10m_instanceE @1463 DATA
    _ZN6XeCore6Common9SingletonINS0_13MemoryManagerEE3useEv @1464
    _ZN6XeCore6Common9SingletonINS0_13MemoryManagerEE8instanceEv @1465
    _ZN6XeCore6Common9SingletonINS0_13MemoryManagerEEC2Ev @1466
    _ZN6XeCore6Common9SingletonINS0_6LoggerEE10m_instanceE @1467 DATA
    _ZN6XeCore6Common9SingletonINS0_6LoggerEE3useEv @1468
    _ZN6XeCore6Common9SingletonINS0_6LoggerEE8instanceEv @1469
    _ZN6XeCore6Common9SingletonINS0_6LoggerEEC2Ev @1470
    _ZN6b2AABB7CombineERKS_S1_ @1471
    _ZN6b2AABBC1Ev @1472
    _ZN6b2Body11SetMassDataEPK10b2MassData @1473
    _ZN6b2Body11SetUserDataEPv @1474
    _ZN6b2Body12SetTransformERK6b2Vec2f @1475
    _ZN6b2Body13CreateFixtureEPK12b2FixtureDef @1476
    _ZN6b2Body13CreateFixtureEPK7b2Shapef @1477
    _ZN6b2Body13ResetMassDataEv @1478
    _ZN6b2Body14DestroyFixtureEP9b2Fixture @1479
    _ZN6b2Body14GetContactListEv @1480
    _ZN6b2Body14GetFixtureListEv @1481
    _ZN6b2Body15SetGravityScaleEf @1482
    _ZN6b2Body16SetFixedRotationEb @1483
    _ZN6b2Body16SetLinearDampingEf @1484
    _ZN6b2Body17SetAngularDampingEf @1485
    _ZN6b2Body17SetLinearVelocityERK6b2Vec2 @1486
    _ZN6b2Body18SetAngularVelocityEf @1487
    _ZN6b2Body18SetSleepingAllowedEb @1488
    _ZN6b2Body19SynchronizeFixturesEv @1489
    _ZN6b2Body20SynchronizeTransformEv @1490
    _ZN6b2Body4DumpEv @1491
    _ZN6b2Body7AdvanceEf @1492
    _ZN6b2Body7GetNextEv @1493
    _ZN6b2Body7SetTypeE10b2BodyType @1494
    _ZN6b2Body8GetWorldEv @1495
    _ZN6b2Body8SetAwakeEb @1496
    _ZN6b2Body9SetActiveEb @1497
    _ZN6b2Body9SetBulletEb @1498
    _ZN6b2BodyC1EPK9b2BodyDefP7b2World @1499
    _ZN6b2BodyC2EPK9b2BodyDefP7b2World @1500
    _ZN6b2BodyD1Ev @1501
    _ZN6b2BodyD2Ev @1502
    _ZN6b2Draw10ClearFlagsEj @1503
    _ZN6b2Draw11AppendFlagsEj @1504
    _ZN6b2Draw8SetFlagsEj @1505
    _ZN6b2DrawC1Ev @1506
    _ZN6b2DrawC2Ev @1507
    _ZN6b2DrawD0Ev @1508
    _ZN6b2DrawD1Ev @1509
    _ZN6b2Vec23SetEff @1510
    _ZN6b2Vec27SetZeroEv @1511
    _ZN6b2Vec29NormalizeEv @1512
    _ZN6b2Vec2C1Eff @1513
    _ZN6b2Vec2C1Ev @1514
    _ZN6b2Vec2clEi @1515
    _ZN6b2Vec2mIERKS_ @1516
    _ZN6b2Vec2mLEf @1517
    _ZN6b2Vec2pLERKS_ @1518
    _ZN6b2Vec33SetEfff @1519
    _ZN6b2Vec37SetZeroEv @1520
    _ZN6b2Vec3C1Efff @1521
    _ZN6b2Vec3C1Ev @1522
    _ZN6b2Vec3mLEf @1523
    _ZN6b2Vec3pLERKS_ @1524
    _ZN7b2ColorC1Efff @1525
    _ZN7b2Joint4DumpEv @1526
    _ZN7b2Joint6CreateEPK10b2JointDefP16b2BlockAllocator @1527
    _ZN7b2Joint7DestroyEPS_P16b2BlockAllocator @1528
    _ZN7b2Joint7GetNextEv @1529
    _ZN7b2Joint8GetBodyAEv @1530
    _ZN7b2Joint8GetBodyBEv @1531
    _ZN7b2JointC1EPK10b2JointDef @1532
    _ZN7b2JointC2EPK10b2JointDef @1533
    _ZN7b2JointD0Ev @1534
    _ZN7b2JointD1Ev @1535
    _ZN7b2JointD2Ev @1536
    _ZN7b2Mat227SetZeroEv @1537
    _ZN7b2Mat22C1Ev @1538
    _ZN7b2Mat33C1Ev @1539
    _ZN7b2ShapeC2Ev @1540
    _ZN7b2ShapeD0Ev @1541
    _ZN7b2ShapeD1Ev @1542
    _ZN7b2ShapeD2Ev @1543
    _ZN7b2ShapeaSERKS_ @1544
    _ZN7b2Sweep7AdvanceEf @1545
    _ZN7b2Sweep9NormalizeEv @1546
    _ZN7b2SweepC1Ev @1547
    _ZN7b2Timer14s_invFrequencyE @1548 DATA
    _ZN7b2Timer5ResetEv @1549
    _ZN7b2TimerC1Ev @1550
    _ZN7b2TimerC2Ev @1551
    _ZN7b2World10CreateBodyEPK9b2BodyDef @1552
    _ZN7b2World10SetGravityERK6b2Vec2 @1553
    _ZN7b2World11ClearForcesEv @1554
    _ZN7b2World11CreateJointEPK10b2JointDef @1555
    _ZN7b2World11DestroyBodyEP6b2Body @1556
    _ZN7b2World12DestroyJointEP7b2Joint @1557
    _ZN7b2World12SetDebugDrawEP6b2Draw @1558
    _ZN7b2World13DrawDebugDataEv @1559
    _ZN7b2World16SetAllowSleepingEb @1560
    _ZN7b2World16SetContactFilterEP15b2ContactFilter @1561
    _ZN7b2World18SetContactListenerEP17b2ContactListener @1562
    _ZN7b2World22SetDestructionListenerEP21b2DestructionListener @1563
    _ZN7b2World4DumpEv @1564
    _ZN7b2World4StepEfii @1565
    _ZN7b2World5SolveERK10b2TimeStep @1566
    _ZN7b2World8SolveTOIERK10b2TimeStep @1567
    _ZN7b2World9DrawJointEP7b2Joint @1568
    _ZN7b2World9DrawShapeEP9b2FixtureRK11b2TransformRK7b2Color @1569
    _ZN7b2WorldC1ERK6b2Vec2 @1570
    _ZN7b2WorldC2ERK6b2Vec2 @1571
    _ZN7b2WorldD1Ev @1572
    _ZN7b2WorldD2Ev @1573
    _ZN8b2FilterC1Ev @1574
    _ZN8b2Island3AddEP6b2Body @1575
    _ZN8b2Island3AddEP7b2Joint @1576
    _ZN8b2Island3AddEP9b2Contact @1577
    _ZN8b2Island5ClearEv @1578
    _ZN8b2Island5SolveEP9b2ProfileRK10b2TimeStepRK6b2Vec2b @1579
    _ZN8b2Island6ReportEPK27b2ContactVelocityConstraint @1580
    _ZN8b2Island8SolveTOIERK10b2TimeStepii @1581
    _ZN8b2IslandC1EiiiP16b2StackAllocatorP17b2ContactListener @1582
    _ZN8b2IslandC2EiiiP16b2StackAllocatorP17b2ContactListener @1583
    _ZN8b2IslandD1Ev @1584
    _ZN8b2IslandD2Ev @1585
    _ZN9Ptakopysk10GameObject11onDuplicateEPS0_ @1586
    _ZN9Ptakopysk10GameObject11onSerializeERKSs @1587
    _ZN9Ptakopysk10GameObject12addComponentEPNS_9ComponentE @1588
    _ZN9Ptakopysk10GameObject12getComponentEj @1589
    _ZN9Ptakopysk10GameObject12hasComponentEPNS_9ComponentE @1590
    _ZN9Ptakopysk10GameObject12hasComponentEj @1591
    _ZN9Ptakopysk10GameObject13onDeserializeERKSsRKN4Json5ValueE @1592
    _ZN9Ptakopysk10GameObject14getGameManagerEv @1593
    _ZN9Ptakopysk10GameObject14setGameManagerEPNS_11GameManagerE @1594
    _ZN9Ptakopysk10GameObject15removeComponentEPNS_9ComponentE @1595
    _ZN9Ptakopysk10GameObject15removeComponentEj @1596
    _ZN9Ptakopysk10GameObject19___RttiClassName___E @1597 DATA
    _ZN9Ptakopysk10GameObject19removeAllComponentsEv @1598
    _ZN9Ptakopysk10GameObject30___RttiClassDerivationTable___E @1599 DATA
    _ZN9Ptakopysk10GameObject5getIdEv @1600
    _ZN9Ptakopysk10GameObject5setIdESs @1601
    _ZN9Ptakopysk10GameObject6toJsonEv @1602
    _ZN9Ptakopysk10GameObject8fromJsonERKN4Json5ValueE @1603
    _ZN9Ptakopysk10GameObject8getOrderEv @1604
    _ZN9Ptakopysk10GameObject8isActiveEv @1605
    _ZN9Ptakopysk10GameObject8onCreateEv @1606
    _ZN9Ptakopysk10GameObject8onRenderEPN2sf12RenderTargetE @1607
    _ZN9Ptakopysk10GameObject8onUpdateEf @1608
    _ZN9Ptakopysk10GameObject8setOrderEi @1609
    _ZN9Ptakopysk10GameObject9onCollideEPS0_ @1610
    _ZN9Ptakopysk10GameObject9onDestroyEv @1611
    _ZN9Ptakopysk10GameObject9setActiveEb @1612
    _ZN9Ptakopysk10GameObjectC1ERKSs @1613
    _ZN9Ptakopysk10GameObjectC2ERKSs @1614
    _ZN9Ptakopysk10GameObjectD0Ev @1615
    _ZN9Ptakopysk10GameObjectD1Ev @1616
    _ZN9Ptakopysk10GameObjectD2Ev @1617
    _ZN9Ptakopysk10Serialized11deserializeERKN4Json5ValueE @1618
    _ZN9Ptakopysk10Serialized17ICustomSerializerC2Ev @1619
    _ZN9Ptakopysk10Serialized17ICustomSerializerD0Ev @1620
    _ZN9Ptakopysk10Serialized17ICustomSerializerD1Ev @1621
    _ZN9Ptakopysk10Serialized17ICustomSerializerD2Ev @1622
    _ZN9Ptakopysk10Serialized19___RttiClassName___E @1623 DATA
    _ZN9Ptakopysk10Serialized19getCustomSerializerERKSs @1624
    _ZN9Ptakopysk10Serialized19s_customSerializersE @1625 DATA
    _ZN9Ptakopysk10Serialized24registerCustomSerializerERKSsPNS0_17ICustomSerializerE @1626
    _ZN9Ptakopysk10Serialized26unregisterCustomSerializerEPNS0_17ICustomSerializerEb @1627
    _ZN9Ptakopysk10Serialized26unregisterCustomSerializerERKSsb @1628
    _ZN9Ptakopysk10Serialized30___RttiClassDerivationTable___E @1629 DATA
    _ZN9Ptakopysk10Serialized30unregisterAllCustomSerializersEb @1630
    _ZN9Ptakopysk10Serialized9serializeERN4Json5ValueE @1631
    _ZN9Ptakopysk10SerializedC1Ev @1632
    _ZN9Ptakopysk10SerializedC2Ev @1633
    _ZN9Ptakopysk10SerializedD0Ev @1634
    _ZN9Ptakopysk10SerializedD1Ev @1635
    _ZN9Ptakopysk10SerializedD2Ev @1636
    _ZN9Ptakopysk11GameManager10initializeEv @1637
    _ZN9Ptakopysk11GameManager11jsonToSceneERKN4Json5ValueENS0_16SceneContentTypeE @1638
    _ZN9Ptakopysk11GameManager11removeSceneENS0_16SceneContentTypeE @1639
    _ZN9Ptakopysk11GameManager11sceneToJsonENS0_16SceneContentTypeE @1640
    _ZN9Ptakopysk11GameManager13addGameObjectEPNS_10GameObjectEb @1641
    _ZN9Ptakopysk11GameManager13getGameObjectERKSsb @1642
    _ZN9Ptakopysk11GameManager13hasGameObjectEPNS_10GameObjectEb @1643
    _ZN9Ptakopysk11GameManager13hasGameObjectERKSsb @1644
    _ZN9Ptakopysk11GameManager13processRenderEPN2sf12RenderTargetE @1645
    _ZN9Ptakopysk11GameManager13processUpdateEfb @1646
    _ZN9Ptakopysk11GameManager14buildComponentERKSs @1647
    _ZN9Ptakopysk11GameManager14buildComponentEj @1648
    _ZN9Ptakopysk11GameManager14processPhysicsEfii @1649
    _ZN9Ptakopysk11GameManager15getWorldGravityEv @1650
    _ZN9Ptakopysk11GameManager15setWorldGravityE6b2Vec2 @1651
    _ZN9Ptakopysk11GameManager16removeGameObjectEPNS_10GameObjectEbb @1652
    _ZN9Ptakopysk11GameManager16removeGameObjectERKSsbb @1653
    _ZN9Ptakopysk11GameManager17gameObjectsToJsonEb @1654
    _ZN9Ptakopysk11GameManager17instantiatePrefabERKSs @1655
    _ZN9Ptakopysk11GameManager17jsonToGameObjectsERKN4Json5ValueEb @1656
    _ZN9Ptakopysk11GameManager19___RttiClassName___E @1657 DATA
    _ZN9Ptakopysk11GameManager19s_componentsFactoryE @1658 DATA
    _ZN9Ptakopysk11GameManager20removeAllGameObjectsEbb @1659
    _ZN9Ptakopysk11GameManager24registerComponentFactoryERKSsjPFPNS_9ComponentEvE @1660
    _ZN9Ptakopysk11GameManager26unregisterComponentFactoryEPFPNS_9ComponentEvE @1661
    _ZN9Ptakopysk11GameManager26unregisterComponentFactoryERKSs @1662
    _ZN9Ptakopysk11GameManager26unregisterComponentFactoryEj @1663
    _ZN9Ptakopysk11GameManager28findComponentFactoryIdByTypeEj @1664
    _ZN9Ptakopysk11GameManager28findComponentFactoryTypeByIdERKSs @1665
    _ZN9Ptakopysk11GameManager30___RttiClassDerivationTable___E @1666 DATA
    _ZN9Ptakopysk11GameManager31findComponentFactoryBuilderByIdERKSs @1667
    _ZN9Ptakopysk11GameManager31findComponentFactoryIdByBuilderEPFPNS_9ComponentEvE @1668
    _ZN9Ptakopysk11GameManager31unregisterAllComponentFactoriesEv @1669
    _ZN9Ptakopysk11GameManager33findComponentFactoryBuilderByTypeEj @1670
    _ZN9Ptakopysk11GameManager33findComponentFactoryTypeByBuilderEPFPNS_9ComponentEvE @1671
    _ZN9Ptakopysk11GameManager7cleanupEv @1672
    _ZN9Ptakopysk11GameManager8loadJsonERKSs @1673
    _ZN9Ptakopysk11GameManager8saveJsonERKSsRKN4Json5ValueE @1674
    _ZN9Ptakopysk11GameManagerC1Eff @1675
    _ZN9Ptakopysk11GameManagerC2Eff @1676
    _ZN9Ptakopysk11GameManagerD1Ev @1677
    _ZN9Ptakopysk11GameManagerD2Ev @1678
    _ZN9Ptakopysk12TextRenderer11onDuplicateEPNS_9ComponentE @1679
    _ZN9Ptakopysk12TextRenderer11onSerializeERKSs @1680
    _ZN9Ptakopysk12TextRenderer13onDeserializeERKSsRKN4Json5ValueE @1681
    _ZN9Ptakopysk12TextRenderer15getRenderStatesEv @1682
    _ZN9Ptakopysk12TextRenderer15setRenderStatesEN2sf12RenderStatesE @1683
    _ZN9Ptakopysk12TextRenderer16onBuildComponentEv @1684
    _ZN9Ptakopysk12TextRenderer19___RttiClassName___E @1685 DATA
    _ZN9Ptakopysk12TextRenderer30___RttiClassDerivationTable___E @1686 DATA
    _ZN9Ptakopysk12TextRenderer7getFontEv @1687
    _ZN9Ptakopysk12TextRenderer7getSizeEv @1688
    _ZN9Ptakopysk12TextRenderer7getTextEv @1689
    _ZN9Ptakopysk12TextRenderer7setFontEPN2sf4FontE @1690
    _ZN9Ptakopysk12TextRenderer7setSizeEj @1691
    _ZN9Ptakopysk12TextRenderer7setTextEN2sf6StringE @1692
    _ZN9Ptakopysk12TextRenderer8getColorEv @1693
    _ZN9Ptakopysk12TextRenderer8getStyleEv @1694
    _ZN9Ptakopysk12TextRenderer8onRenderEPN2sf12RenderTargetE @1695
    _ZN9Ptakopysk12TextRenderer8onUpdateEf @1696
    _ZN9Ptakopysk12TextRenderer8setColorEN2sf5ColorE @1697
    _ZN9Ptakopysk12TextRenderer8setStyleEj @1698
    _ZN9Ptakopysk12TextRendererC1Ev @1699
    _ZN9Ptakopysk12TextRendererC2Ev @1700
    _ZN9Ptakopysk12TextRendererD0Ev @1701
    _ZN9Ptakopysk12TextRendererD1Ev @1702
    _ZN9Ptakopysk12TextRendererD2Ev @1703
    _ZN9Ptakopysk14EnumSerializer11deserializeEPKvRKN4Json5ValueE @1704
    _ZN9Ptakopysk14EnumSerializer5setupERKSt3mapISsiSt4lessISsESaISt4pairIKSsiEEE @1705
    _ZN9Ptakopysk14EnumSerializer9serializeEPKv @1706
    _ZN9Ptakopysk14EnumSerializerC1ERKSt3mapISsiSt4lessISsESaISt4pairIKSsiEEE @1707
    _ZN9Ptakopysk14EnumSerializerC1Ev @1708
    _ZN9Ptakopysk14EnumSerializerC2ERKSt3mapISsiSt4lessISsESaISt4pairIKSsiEEE @1709
    _ZN9Ptakopysk14EnumSerializerC2Ev @1710
    _ZN9Ptakopysk14EnumSerializerD0Ev @1711
    _ZN9Ptakopysk14EnumSerializerD1Ev @1712
    _ZN9Ptakopysk14EnumSerializerD2Ev @1713
    _ZN9Ptakopysk14SpriteRenderer10getTextureEv @1714
    _ZN9Ptakopysk14SpriteRenderer10setTextureEPN2sf7TextureE @1715
    _ZN9Ptakopysk14SpriteRenderer11onDuplicateEPNS_9ComponentE @1716
    _ZN9Ptakopysk14SpriteRenderer11onSerializeERKSs @1717
    _ZN9Ptakopysk14SpriteRenderer13onDeserializeERKSsRKN4Json5ValueE @1718
    _ZN9Ptakopysk14SpriteRenderer15getRenderStatesEv @1719
    _ZN9Ptakopysk14SpriteRenderer15setRenderStatesEN2sf12RenderStatesE @1720
    _ZN9Ptakopysk14SpriteRenderer16getOriginPercentEv @1721
    _ZN9Ptakopysk14SpriteRenderer16onBuildComponentEv @1722
    _ZN9Ptakopysk14SpriteRenderer16setOriginPercentEN2sf7Vector2IfEE @1723
    _ZN9Ptakopysk14SpriteRenderer19___RttiClassName___E @1724 DATA
    _ZN9Ptakopysk14SpriteRenderer30___RttiClassDerivationTable___E @1725 DATA
    _ZN9Ptakopysk14SpriteRenderer7getSizeEv @1726
    _ZN9Ptakopysk14SpriteRenderer7setSizeEN2sf7Vector2IfEE @1727
    _ZN9Ptakopysk14SpriteRenderer8getColorEv @1728
    _ZN9Ptakopysk14SpriteRenderer8onRenderEPN2sf12RenderTargetE @1729
    _ZN9Ptakopysk14SpriteRenderer8onUpdateEf @1730
    _ZN9Ptakopysk14SpriteRenderer8setColorEN2sf5ColorE @1731
    _ZN9Ptakopysk14SpriteRenderer9getOriginEv @1732
    _ZN9Ptakopysk14SpriteRenderer9setOriginEN2sf7Vector2IfEE @1733
    _ZN9Ptakopysk14SpriteRendererC1Ev @1734
    _ZN9Ptakopysk14SpriteRendererC2Ev @1735
    _ZN9Ptakopysk14SpriteRendererD0Ev @1736
    _ZN9Ptakopysk14SpriteRendererD1Ev @1737
    _ZN9Ptakopysk14SpriteRendererD2Ev @1738
    _ZN9Ptakopysk15ContactListener10EndContactEP9b2Contact @1739
    _ZN9Ptakopysk15ContactListener12BeginContactEP9b2Contact @1740
    _ZN9Ptakopysk15ContactListener19___RttiClassName___E @1741 DATA
    _ZN9Ptakopysk15ContactListener30___RttiClassDerivationTable___E @1742 DATA
    _ZN9Ptakopysk15ContactListener8PreSolveEP9b2ContactPK10b2Manifold @1743
    _ZN9Ptakopysk15ContactListener9PostSolveEP9b2ContactPK16b2ContactImpulse @1744
    _ZN9Ptakopysk15ContactListenerC1EPNS_11GameManagerE @1745
    _ZN9Ptakopysk15ContactListenerC2EPNS_11GameManagerE @1746
    _ZN9Ptakopysk15ContactListenerD0Ev @1747
    _ZN9Ptakopysk15ContactListenerD1Ev @1748
    _ZN9Ptakopysk15ContactListenerD2Ev @1749
    _ZN9Ptakopysk15StyleSerializerC1Ev @1750
    _ZN9Ptakopysk15StyleSerializerD0Ev @1751
    _ZN9Ptakopysk15StyleSerializerD1Ev @1752
    _ZN9Ptakopysk18BitFieldSerializer11deserializeEPKvRKN4Json5ValueE @1753
    _ZN9Ptakopysk18BitFieldSerializer5setupERKSt3mapISsiSt4lessISsESaISt4pairIKSsiEEE @1754
    _ZN9Ptakopysk18BitFieldSerializer9serializeEPKv @1755
    _ZN9Ptakopysk18BitFieldSerializerC1ERKSt3mapISsiSt4lessISsESaISt4pairIKSsiEEE @1756
    _ZN9Ptakopysk18BitFieldSerializerC1Ev @1757
    _ZN9Ptakopysk18BitFieldSerializerC2ERKSt3mapISsiSt4lessISsESaISt4pairIKSsiEEE @1758
    _ZN9Ptakopysk18BitFieldSerializerC2Ev @1759
    _ZN9Ptakopysk18BitFieldSerializerD0Ev @1760
    _ZN9Ptakopysk18BitFieldSerializerD1Ev @1761
    _ZN9Ptakopysk18BitFieldSerializerD2Ev @1762
    _ZN9Ptakopysk19BlendModeSerializerC1Ev @1763
    _ZN9Ptakopysk19BlendModeSerializerD0Ev @1764
    _ZN9Ptakopysk19BlendModeSerializerD1Ev @1765
    _ZN9Ptakopysk19DestructionListener10SayGoodbyeEP7b2Joint @1766
    _ZN9Ptakopysk19DestructionListener10SayGoodbyeEP9b2Fixture @1767
    _ZN9Ptakopysk19DestructionListener19___RttiClassName___E @1768 DATA
    _ZN9Ptakopysk19DestructionListener30___RttiClassDerivationTable___E @1769 DATA
    _ZN9Ptakopysk19DestructionListenerC1EPNS_11GameManagerE @1770
    _ZN9Ptakopysk19DestructionListenerC2EPNS_11GameManagerE @1771
    _ZN9Ptakopysk19DestructionListenerD0Ev @1772
    _ZN9Ptakopysk19DestructionListenerD1Ev @1773
    _ZN9Ptakopysk19DestructionListenerD2Ev @1774
    _ZN9Ptakopysk20b2BodyTypeSerializerC1Ev @1775
    _ZN9Ptakopysk20b2BodyTypeSerializerD0Ev @1776
    _ZN9Ptakopysk20b2BodyTypeSerializerD1Ev @1777
    _ZN9Ptakopysk4Body10getDensityEv @1778
    _ZN9Ptakopysk4Body10setDensityEf @1779
    _ZN9Ptakopysk4Body11getBodyTypeEv @1780
    _ZN9Ptakopysk4Body11getVerticesEv @1781
    _ZN9Ptakopysk4Body11onDuplicateEPNS_9ComponentE @1782
    _ZN9Ptakopysk4Body11onSerializeERKSs @1783
    _ZN9Ptakopysk4Body11setBodyTypeE10b2BodyType @1784
    _ZN9Ptakopysk4Body11setVerticesERSt6vectorI6b2Vec2SaIS2_EE @1785
    _ZN9Ptakopysk4Body13applyVerticesEv @1786
    _ZN9Ptakopysk4Body13onDeserializeERKSsRKN4Json5ValueE @1787
    _ZN9Ptakopysk4Body15getGravityScaleEv @1788
    _ZN9Ptakopysk4Body15isFixedRotationEv @1789
    _ZN9Ptakopysk4Body15setGravityScaleEf @1790
    _ZN9Ptakopysk4Body16getLinearDampingEv @1791
    _ZN9Ptakopysk4Body16onBuildComponentEv @1792
    _ZN9Ptakopysk4Body16setFixedRotationEb @1793
    _ZN9Ptakopysk4Body16setLinearDampingEf @1794
    _ZN9Ptakopysk4Body17getAngularDampingEv @1795
    _ZN9Ptakopysk4Body17getLinearVelocityEv @1796
    _ZN9Ptakopysk4Body17isSleepingAllowedEv @1797
    _ZN9Ptakopysk4Body17setAngularDampingEf @1798
    _ZN9Ptakopysk4Body17setLinearVelocityE6b2Vec2 @1799
    _ZN9Ptakopysk4Body18getAngularVelocityEv @1800
    _ZN9Ptakopysk4Body18setAngularVelocityEf @1801
    _ZN9Ptakopysk4Body18setSleepingAllowedEb @1802
    _ZN9Ptakopysk4Body19___RttiClassName___E @1803 DATA
    _ZN9Ptakopysk4Body30___RttiClassDerivationTable___E @1804 DATA
    _ZN9Ptakopysk4Body8isBulletEv @1805
    _ZN9Ptakopysk4Body8onCreateEv @1806
    _ZN9Ptakopysk4Body9onDestroyEv @1807
    _ZN9Ptakopysk4Body9setBulletEb @1808
    _ZN9Ptakopysk4BodyC1Ev @1809
    _ZN9Ptakopysk4BodyC2Ev @1810
    _ZN9Ptakopysk4BodyD0Ev @1811
    _ZN9Ptakopysk4BodyD1Ev @1812
    _ZN9Ptakopysk4BodyD2Ev @1813
    _ZN9Ptakopysk6Assets10addTextureERKSsPKN2sf7TextureE @1814
    _ZN9Ptakopysk6Assets10findShaderEPKN2sf6ShaderE @1815
    _ZN9Ptakopysk6Assets10fontToJsonERKSs @1816
    _ZN9Ptakopysk6Assets10freeShaderERKSs @1817
    _ZN9Ptakopysk6Assets10getTextureERKSs @1818
    _ZN9Ptakopysk6Assets10jsonToFontERKN4Json5ValueE @1819
    _ZN9Ptakopysk6Assets10loadShaderERKSsS2_S2_ @1820
    _ZN9Ptakopysk6Assets11findTextureEPKN2sf7TextureE @1821
    _ZN9Ptakopysk6Assets11fontsToJsonEv @1822
    _ZN9Ptakopysk6Assets11freeTextureERKSs @1823
    _ZN9Ptakopysk6Assets11jsonToFontsERKN4Json5ValueE @1824
    _ZN9Ptakopysk6Assets11jsonToMusicERKN4Json5ValueE @1825
    _ZN9Ptakopysk6Assets11jsonToSoundERKN4Json5ValueE @1826
    _ZN9Ptakopysk6Assets11loadTextureERKSsS2_ @1827
    _ZN9Ptakopysk6Assets11musicToJsonERKSs @1828
    _ZN9Ptakopysk6Assets11soundToJsonERKSs @1829
    _ZN9Ptakopysk6Assets12assetsToJsonEv @1830
    _ZN9Ptakopysk6Assets12freeAllFontsEv @1831
    _ZN9Ptakopysk6Assets12jsonToAssetsERKN4Json5ValueE @1832
    _ZN9Ptakopysk6Assets12jsonToMusicsERKN4Json5ValueE @1833
    _ZN9Ptakopysk6Assets12jsonToShaderERKN4Json5ValueE @1834
    _ZN9Ptakopysk6Assets12jsonToSoundsERKN4Json5ValueE @1835
    _ZN9Ptakopysk6Assets12musicsToJsonEv @1836
    _ZN9Ptakopysk6Assets12shaderToJsonERKSs @1837
    _ZN9Ptakopysk6Assets12soundsToJsonEv @1838
    _ZN9Ptakopysk6Assets13freeAllMusicsEv @1839
    _ZN9Ptakopysk6Assets13freeAllSoundsEv @1840
    _ZN9Ptakopysk6Assets13jsonToShadersERKN4Json5ValueE @1841
    _ZN9Ptakopysk6Assets13jsonToTextureERKN4Json5ValueE @1842
    _ZN9Ptakopysk6Assets13shadersToJsonEv @1843
    _ZN9Ptakopysk6Assets13textureToJsonERKSs @1844
    _ZN9Ptakopysk6Assets14freeAllShadersEv @1845
    _ZN9Ptakopysk6Assets14jsonToTexturesERKN4Json5ValueE @1846
    _ZN9Ptakopysk6Assets14texturesToJsonEv @1847
    _ZN9Ptakopysk6Assets15freeAllTexturesEv @1848
    _ZN9Ptakopysk6Assets19___RttiClassName___E @1849 DATA
    _ZN9Ptakopysk6Assets30___RttiClassDerivationTable___E @1850 DATA
    _ZN9Ptakopysk6Assets7addFontERKSsPKN2sf4FontE @1851
    _ZN9Ptakopysk6Assets7freeAllEv @1852
    _ZN9Ptakopysk6Assets7getFontERKSs @1853
    _ZN9Ptakopysk6Assets8addMusicERKSsPKN2sf5MusicE @1854
    _ZN9Ptakopysk6Assets8addSoundERKSsPKN2sf11SoundBufferEPKNS3_5SoundE @1855
    _ZN9Ptakopysk6Assets8findFontEPKN2sf4FontE @1856
    _ZN9Ptakopysk6Assets8freeFontERKSs @1857
    _ZN9Ptakopysk6Assets8getMusicERKSs @1858
    _ZN9Ptakopysk6Assets8getSoundERKSs @1859
    _ZN9Ptakopysk6Assets8loadFontERKSsS2_ @1860
    _ZN9Ptakopysk6Assets9addShaderERKSsPKN2sf6ShaderE @1861
    _ZN9Ptakopysk6Assets9findMusicEPKN2sf5MusicE @1862
    _ZN9Ptakopysk6Assets9findSoundEPKN2sf5SoundE @1863
    _ZN9Ptakopysk6Assets9freeMusicERKSs @1864
    _ZN9Ptakopysk6Assets9freeSoundERKSs @1865
    _ZN9Ptakopysk6Assets9getShaderERKSs @1866
    _ZN9Ptakopysk6Assets9loadMusicERKSsS2_ @1867
    _ZN9Ptakopysk6Assets9loadSoundERKSsS2_ @1868
    _ZN9Ptakopysk6AssetsC1Ev @1869
    _ZN9Ptakopysk6AssetsC2Ev @1870
    _ZN9Ptakopysk6AssetsD1Ev @1871
    _ZN9Ptakopysk6AssetsD2Ev @1872
    _ZN9Ptakopysk6Camera11getViewportEv @1873
    _ZN9Ptakopysk6Camera11onDuplicateEPNS_9ComponentE @1874
    _ZN9Ptakopysk6Camera11onSerializeERKSs @1875
    _ZN9Ptakopysk6Camera11setViewportEN2sf4RectIfEE @1876
    _ZN9Ptakopysk6Camera13onDeserializeERKSsRKN4Json5ValueE @1877
    _ZN9Ptakopysk6Camera16onBuildComponentEv @1878
    _ZN9Ptakopysk6Camera19___RttiClassName___E @1879 DATA
    _ZN9Ptakopysk6Camera30___RttiClassDerivationTable___E @1880 DATA
    _ZN9Ptakopysk6Camera7getSizeEv @1881
    _ZN9Ptakopysk6Camera7setSizeEN2sf7Vector2IfEE @1882
    _ZN9Ptakopysk6Camera8onRenderEPN2sf12RenderTargetE @1883
    _ZN9Ptakopysk6Camera8onUpdateEf @1884
    _ZN9Ptakopysk6CameraC1Ev @1885
    _ZN9Ptakopysk6CameraC2Ev @1886
    _ZN9Ptakopysk6CameraD0Ev @1887
    _ZN9Ptakopysk6CameraD1Ev @1888
    _ZN9Ptakopysk6CameraD2Ev @1889
    _ZN9Ptakopysk6Events11getCallbackEv @1890
    _ZN9Ptakopysk6Events11setCallbackEPFvPNS0_5EventEE @1891
    _ZN9Ptakopysk6Events19___RttiClassName___E @1892 DATA
    _ZN9Ptakopysk6Events30___RttiClassDerivationTable___E @1893 DATA
    _ZN9Ptakopysk6Events4pushEPNS0_5EventE @1894
    _ZN9Ptakopysk6Events5Event5getIdEv @1895
    _ZN9Ptakopysk6Events5Event5setIdERKSs @1896
    _ZN9Ptakopysk6Events5EventC1ERKSs @1897
    _ZN9Ptakopysk6Events5EventC2ERKSs @1898
    _ZN9Ptakopysk6Events5EventD1Ev @1899
    _ZN9Ptakopysk6Events5EventD2Ev @1900
    _ZN9Ptakopysk6Events7onEventEPNS0_5EventE @1901
    _ZN9Ptakopysk6Events8dispatchEv @1902
    _ZN9Ptakopysk6EventsC1Ev @1903
    _ZN9Ptakopysk6EventsC2Ev @1904
    _ZN9Ptakopysk6EventsD1Ev @1905
    _ZN9Ptakopysk6EventsD2Ev @1906
    _ZN9Ptakopysk9Component11onDuplicateEPS0_ @1907
    _ZN9Ptakopysk9Component11onSerializeERKSs @1908
    _ZN9Ptakopysk9Component12getTypeFlagsEv @1909
    _ZN9Ptakopysk9Component13getGameObjectEv @1910
    _ZN9Ptakopysk9Component13onDeserializeERKSsRKN4Json5ValueE @1911
    _ZN9Ptakopysk9Component13setGameObjectEPNS_10GameObjectE @1912
    _ZN9Ptakopysk9Component19___RttiClassName___E @1913 DATA
    _ZN9Ptakopysk9Component30___RttiClassDerivationTable___E @1914 DATA
    _ZN9Ptakopysk9Component6toJsonEv @1915
    _ZN9Ptakopysk9Component8fromJsonERKN4Json5ValueE @1916
    _ZN9Ptakopysk9Component8isActiveEv @1917
    _ZN9Ptakopysk9Component8onCreateEv @1918
    _ZN9Ptakopysk9Component8onRenderEPN2sf12RenderTargetE @1919
    _ZN9Ptakopysk9Component8onUpdateEf @1920
    _ZN9Ptakopysk9Component9onCollideEPNS_10GameObjectE @1921
    _ZN9Ptakopysk9Component9onDestroyEv @1922
    _ZN9Ptakopysk9Component9setActiveEb @1923
    _ZN9Ptakopysk9ComponentC1ENS0_4TypeE @1924
    _ZN9Ptakopysk9ComponentC2ENS0_4TypeE @1925
    _ZN9Ptakopysk9ComponentD0Ev @1926
    _ZN9Ptakopysk9ComponentD1Ev @1927
    _ZN9Ptakopysk9ComponentD2Ev @1928
    _ZN9Ptakopysk9Transform11getPositionEv @1929
    _ZN9Ptakopysk9Transform11getRotationEv @1930
    _ZN9Ptakopysk9Transform11onDuplicateEPNS_9ComponentE @1931
    _ZN9Ptakopysk9Transform11onSerializeERKSs @1932
    _ZN9Ptakopysk9Transform11setPositionEN2sf7Vector2IfEE @1933
    _ZN9Ptakopysk9Transform11setRotationEf @1934
    _ZN9Ptakopysk9Transform13onDeserializeERKSsRKN4Json5ValueE @1935
    _ZN9Ptakopysk9Transform16onBuildComponentEv @1936
    _ZN9Ptakopysk9Transform19___RttiClassName___E @1937 DATA
    _ZN9Ptakopysk9Transform30___RttiClassDerivationTable___E @1938 DATA
    _ZN9Ptakopysk9Transform8getScaleEv @1939
    _ZN9Ptakopysk9Transform8onUpdateEf @1940
    _ZN9Ptakopysk9Transform8setScaleEN2sf7Vector2IfEE @1941
    _ZN9Ptakopysk9TransformC1Ev @1942
    _ZN9Ptakopysk9TransformC2Ev @1943
    _ZN9Ptakopysk9TransformD0Ev @1944
    _ZN9Ptakopysk9TransformD1Ev @1945
    _ZN9Ptakopysk9TransformD2Ev @1946
    _ZN9PtakopyskorENS_11GameManager16SceneContentTypeES1_ @1947
    _ZN9PtakopyskorENS_9Component4TypeES1_ @1948
    _ZN9__gnu_cxx11char_traitsIjE2eqERKjS3_ @1949
    _ZN9__gnu_cxx11char_traitsIjE2ltERKjS3_ @1950
    _ZN9__gnu_cxx11char_traitsIjE4copyEPjPKjj @1951
    _ZN9__gnu_cxx11char_traitsIjE4moveEPjPKjj @1952
    _ZN9__gnu_cxx11char_traitsIjE6assignEPjjj @1953
    _ZN9__gnu_cxx11char_traitsIjE6assignERjRKj @1954
    _ZN9__gnu_cxx11char_traitsIjE6lengthEPKj @1955
    _ZN9__gnu_cxx11char_traitsIjE7compareEPKjS3_j @1956
    _ZN9__gnu_cxx13new_allocatorI6b2Vec2E10deallocateEPS1_j @1957
    _ZN9__gnu_cxx13new_allocatorI6b2Vec2E7destroyEPS1_ @1958
    _ZN9__gnu_cxx13new_allocatorI6b2Vec2E8allocateEjPKv @1959
    _ZN9__gnu_cxx13new_allocatorI6b2Vec2E9constructEPS1_RKS1_ @1960
    _ZN9__gnu_cxx13new_allocatorI6b2Vec2EC2Ev @1961
    _ZN9__gnu_cxx13new_allocatorI6b2Vec2ED2Ev @1962
    _ZN9__gnu_cxx13new_allocatorIN2sf4Font3RowEE10deallocateEPS3_j @1963
    _ZN9__gnu_cxx13new_allocatorIN2sf4Font3RowEE7destroyEPS3_ @1964
    _ZN9__gnu_cxx13new_allocatorIN2sf4Font3RowEE8allocateEjPKv @1965
    _ZN9__gnu_cxx13new_allocatorIN2sf4Font3RowEE9constructEPS3_RKS3_ @1966
    _ZN9__gnu_cxx13new_allocatorIN2sf4Font3RowEEC2ERKS4_ @1967
    _ZN9__gnu_cxx13new_allocatorIN2sf4Font3RowEEC2Ev @1968
    _ZN9__gnu_cxx13new_allocatorIN2sf4Font3RowEED2Ev @1969
    _ZN9__gnu_cxx13new_allocatorIN2sf5EventEE10deallocateEPS2_j @1970
    _ZN9__gnu_cxx13new_allocatorIN2sf5EventEE7destroyEPS2_ @1971
    _ZN9__gnu_cxx13new_allocatorIN2sf5EventEE8allocateEjPKv @1972
    _ZN9__gnu_cxx13new_allocatorIN2sf5EventEE9constructEPS2_RKS2_ @1973
    _ZN9__gnu_cxx13new_allocatorIN2sf5EventEEC2ERKS3_ @1974
    _ZN9__gnu_cxx13new_allocatorIN2sf5EventEEC2Ev @1975
    _ZN9__gnu_cxx13new_allocatorIN2sf5EventEED2Ev @1976
    _ZN9__gnu_cxx13new_allocatorIN2sf6VertexEE10deallocateEPS2_j @1977
    _ZN9__gnu_cxx13new_allocatorIN2sf6VertexEE7destroyEPS2_ @1978
    _ZN9__gnu_cxx13new_allocatorIN2sf6VertexEE8allocateEjPKv @1979
    _ZN9__gnu_cxx13new_allocatorIN2sf6VertexEE9constructEPS2_RKS2_ @1980
    _ZN9__gnu_cxx13new_allocatorIN2sf6VertexEEC2ERKS3_ @1981
    _ZN9__gnu_cxx13new_allocatorIN2sf6VertexEEC2Ev @1982
    _ZN9__gnu_cxx13new_allocatorIN2sf6VertexEED2Ev @1983
    _ZN9__gnu_cxx13new_allocatorIN2sf9VideoModeEE10deallocateEPS2_j @1984
    _ZN9__gnu_cxx13new_allocatorIN2sf9VideoModeEE7destroyEPS2_ @1985
    _ZN9__gnu_cxx13new_allocatorIN2sf9VideoModeEE8allocateEjPKv @1986
    _ZN9__gnu_cxx13new_allocatorIN2sf9VideoModeEE9constructEPS2_RKS2_ @1987
    _ZN9__gnu_cxx13new_allocatorIN2sf9VideoModeEEC2Ev @1988
    _ZN9__gnu_cxx13new_allocatorIN2sf9VideoModeEED2Ev @1989
    _ZN9__gnu_cxx13new_allocatorIN4Json12PathArgumentEE10deallocateEPS2_j @1990
    _ZN9__gnu_cxx13new_allocatorIN4Json12PathArgumentEE7destroyEPS2_ @1991
    _ZN9__gnu_cxx13new_allocatorIN4Json12PathArgumentEE8allocateEjPKv @1992
    _ZN9__gnu_cxx13new_allocatorIN4Json12PathArgumentEE9constructEPS2_RKS2_ @1993
    _ZN9__gnu_cxx13new_allocatorIN4Json12PathArgumentEEC2Ev @1994
    _ZN9__gnu_cxx13new_allocatorIN4Json12PathArgumentEED2Ev @1995
    _ZN9__gnu_cxx13new_allocatorIN4Json6Reader9ErrorInfoEE10deallocateEPS3_j @1996
    _ZN9__gnu_cxx13new_allocatorIN4Json6Reader9ErrorInfoEE8allocateEjPKv @1997
    _ZN9__gnu_cxx13new_allocatorIN4Json6Reader9ErrorInfoEE9constructEPS3_RKS3_ @1998
    _ZN9__gnu_cxx13new_allocatorIN4Json6Reader9ErrorInfoEEC2Ev @1999
    _ZN9__gnu_cxx13new_allocatorIN4Json6Reader9ErrorInfoEED2Ev @2000
    _ZN9__gnu_cxx13new_allocatorIN6XeCore6Common6StringEE10deallocateEPS3_j @2001
    _ZN9__gnu_cxx13new_allocatorIN6XeCore6Common6StringEE7destroyEPS3_ @2002
    _ZN9__gnu_cxx13new_allocatorIN6XeCore6Common6StringEE8allocateEjPKv @2003
    _ZN9__gnu_cxx13new_allocatorIN6XeCore6Common6StringEE9constructEPS3_RKS3_ @2004
    _ZN9__gnu_cxx13new_allocatorIN6XeCore6Common6StringEEC2Ev @2005
    _ZN9__gnu_cxx13new_allocatorIN6XeCore6Common6StringEED2Ev @2006
    _ZN9__gnu_cxx13new_allocatorIPKN4Json12PathArgumentEE10deallocateEPS4_j @2007
    _ZN9__gnu_cxx13new_allocatorIPKN4Json12PathArgumentEE7destroyEPS4_ @2008
    _ZN9__gnu_cxx13new_allocatorIPKN4Json12PathArgumentEE8allocateEjPKv @2009
    _ZN9__gnu_cxx13new_allocatorIPKN4Json12PathArgumentEE9constructEPS4_RKS4_ @2010
    _ZN9__gnu_cxx13new_allocatorIPKN4Json12PathArgumentEEC2Ev @2011
    _ZN9__gnu_cxx13new_allocatorIPKN4Json12PathArgumentEED2Ev @2012
    _ZN9__gnu_cxx13new_allocatorIPN2sf4priv9GlContextEE7destroyEPS4_ @2013
    _ZN9__gnu_cxx13new_allocatorIPN2sf4priv9GlContextEE9constructEPS4_RKS4_ @2014
    _ZN9__gnu_cxx13new_allocatorIPN2sf4priv9GlContextEEC2Ev @2015
    _ZN9__gnu_cxx13new_allocatorIPN2sf4priv9GlContextEED2Ev @2016
    _ZN9__gnu_cxx13new_allocatorIPN2sf5EventEE10deallocateEPS3_j @2017
    _ZN9__gnu_cxx13new_allocatorIPN2sf5EventEE8allocateEjPKv @2018
    _ZN9__gnu_cxx13new_allocatorIPN2sf5EventEEC2Ev @2019
    _ZN9__gnu_cxx13new_allocatorIPN2sf5EventEED2Ev @2020
    _ZN9__gnu_cxx13new_allocatorIPN2sf5SoundEE7destroyEPS3_ @2021
    _ZN9__gnu_cxx13new_allocatorIPN2sf5SoundEE9constructEPS3_RKS3_ @2022
    _ZN9__gnu_cxx13new_allocatorIPN2sf5SoundEEC2Ev @2023
    _ZN9__gnu_cxx13new_allocatorIPN2sf5SoundEED2Ev @2024
    _ZN9__gnu_cxx13new_allocatorIPN4Json5ValueEE10deallocateEPS3_j @2025
    _ZN9__gnu_cxx13new_allocatorIPN4Json5ValueEE7destroyEPS3_ @2026
    _ZN9__gnu_cxx13new_allocatorIPN4Json5ValueEE8allocateEjPKv @2027
    _ZN9__gnu_cxx13new_allocatorIPN4Json5ValueEE9constructEPS3_RKS3_ @2028
    _ZN9__gnu_cxx13new_allocatorIPN4Json5ValueEEC2ERKS4_ @2029
    _ZN9__gnu_cxx13new_allocatorIPN4Json5ValueEEC2Ev @2030
    _ZN9__gnu_cxx13new_allocatorIPN4Json5ValueEED2Ev @2031
    _ZN9__gnu_cxx13new_allocatorIPN4Json6Reader9ErrorInfoEE10deallocateEPS4_j @2032
    _ZN9__gnu_cxx13new_allocatorIPN4Json6Reader9ErrorInfoEE8allocateEjPKv @2033
    _ZN9__gnu_cxx13new_allocatorIPN4Json6Reader9ErrorInfoEEC2Ev @2034
    _ZN9__gnu_cxx13new_allocatorIPN4Json6Reader9ErrorInfoEED2Ev @2035
    _ZN9__gnu_cxx13new_allocatorIPN9Ptakopysk10GameObjectEE7destroyEPS3_ @2036
    _ZN9__gnu_cxx13new_allocatorIPN9Ptakopysk10GameObjectEE9constructEPS3_RKS3_ @2037
    _ZN9__gnu_cxx13new_allocatorIPN9Ptakopysk10GameObjectEEC2Ev @2038
    _ZN9__gnu_cxx13new_allocatorIPN9Ptakopysk10GameObjectEED2Ev @2039
    _ZN9__gnu_cxx13new_allocatorIPN9Ptakopysk6Events5EventEE7destroyEPS4_ @2040
    _ZN9__gnu_cxx13new_allocatorIPN9Ptakopysk6Events5EventEE9constructEPS4_RKS4_ @2041
    _ZN9__gnu_cxx13new_allocatorIPN9Ptakopysk6Events5EventEEC2Ev @2042
    _ZN9__gnu_cxx13new_allocatorIPN9Ptakopysk6Events5EventEED2Ev @2043
    _ZN9__gnu_cxx13new_allocatorIPPN4Json5ValueEE10deallocateEPS4_j @2044
    _ZN9__gnu_cxx13new_allocatorIPPN4Json5ValueEE8allocateEjPKv @2045
    _ZN9__gnu_cxx13new_allocatorIPPN4Json5ValueEEC2Ev @2046
    _ZN9__gnu_cxx13new_allocatorIPPN4Json5ValueEED2Ev @2047
    _ZN9__gnu_cxx13new_allocatorISsE10deallocateEPSsj @2048
    _ZN9__gnu_cxx13new_allocatorISsE7destroyEPSs @2049
    _ZN9__gnu_cxx13new_allocatorISsE8allocateEjPKv @2050
    _ZN9__gnu_cxx13new_allocatorISsE9constructEPSsRKSs @2051
    _ZN9__gnu_cxx13new_allocatorISsEC2ERKS1_ @2052
    _ZN9__gnu_cxx13new_allocatorISsEC2Ev @2053
    _ZN9__gnu_cxx13new_allocatorISsED2Ev @2054
    _ZN9__gnu_cxx13new_allocatorISt10_List_nodeIPN9Ptakopysk10GameObjectEEE10deallocateEPS5_j @2055
    _ZN9__gnu_cxx13new_allocatorISt10_List_nodeIPN9Ptakopysk10GameObjectEEE8allocateEjPKv @2056
    _ZN9__gnu_cxx13new_allocatorISt10_List_nodeIPN9Ptakopysk10GameObjectEEEC2Ev @2057
    _ZN9__gnu_cxx13new_allocatorISt10_List_nodeIPN9Ptakopysk10GameObjectEEED2Ev @2058
    _ZN9__gnu_cxx13new_allocatorISt10_List_nodeIPN9Ptakopysk6Events5EventEEE10deallocateEPS6_j @2059
    _ZN9__gnu_cxx13new_allocatorISt10_List_nodeIPN9Ptakopysk6Events5EventEEE8allocateEjPKv @2060
    _ZN9__gnu_cxx13new_allocatorISt10_List_nodeIPN9Ptakopysk6Events5EventEEEC2Ev @2061
    _ZN9__gnu_cxx13new_allocatorISt10_List_nodeIPN9Ptakopysk6Events5EventEEED2Ev @2062
    _ZN9__gnu_cxx13new_allocatorISt13_Rb_tree_nodeIPN2sf4priv9GlContextEEE10deallocateEPS6_j @2063
    _ZN9__gnu_cxx13new_allocatorISt13_Rb_tree_nodeIPN2sf4priv9GlContextEEE8allocateEjPKv @2064
    _ZN9__gnu_cxx13new_allocatorISt13_Rb_tree_nodeIPN2sf4priv9GlContextEEEC2Ev @2065
    _ZN9__gnu_cxx13new_allocatorISt13_Rb_tree_nodeIPN2sf4priv9GlContextEEED2Ev @2066
    _ZN9__gnu_cxx13new_allocatorISt13_Rb_tree_nodeIPN2sf5SoundEEE10deallocateEPS5_j @2067
    _ZN9__gnu_cxx13new_allocatorISt13_Rb_tree_nodeIPN2sf5SoundEEE8allocateEjPKv @2068
    _ZN9__gnu_cxx13new_allocatorISt13_Rb_tree_nodeIPN2sf5SoundEEEC2Ev @2069
    _ZN9__gnu_cxx13new_allocatorISt13_Rb_tree_nodeIPN2sf5SoundEEED2Ev @2070
    _ZN9__gnu_cxx13new_allocatorISt13_Rb_tree_nodeISt4pairIKN4Json5Value8CZStringES4_EEE10deallocateEPS8_j @2071
    _ZN9__gnu_cxx13new_allocatorISt13_Rb_tree_nodeISt4pairIKN4Json5Value8CZStringES4_EEE8allocateEjPKv @2072
    _ZN9__gnu_cxx13new_allocatorISt13_Rb_tree_nodeISt4pairIKN4Json5Value8CZStringES4_EEEC2ERKS9_ @2073
    _ZN9__gnu_cxx13new_allocatorISt13_Rb_tree_nodeISt4pairIKN4Json5Value8CZStringES4_EEEC2Ev @2074
    _ZN9__gnu_cxx13new_allocatorISt13_Rb_tree_nodeISt4pairIKN4Json5Value8CZStringES4_EEED2Ev @2075
    _ZN9__gnu_cxx13new_allocatorISt13_Rb_tree_nodeISt4pairIKSsN9Ptakopysk11GameManager20ComponentFactoryDataEEEE10deallocateEPS8_j @2076
    _ZN9__gnu_cxx13new_allocatorISt13_Rb_tree_nodeISt4pairIKSsN9Ptakopysk11GameManager20ComponentFactoryDataEEEE8allocateEjPKv @2077
    _ZN9__gnu_cxx13new_allocatorISt13_Rb_tree_nodeISt4pairIKSsN9Ptakopysk11GameManager20ComponentFactoryDataEEEEC2Ev @2078
    _ZN9__gnu_cxx13new_allocatorISt13_Rb_tree_nodeISt4pairIKSsN9Ptakopysk11GameManager20ComponentFactoryDataEEEED2Ev @2079
    _ZN9__gnu_cxx13new_allocatorISt13_Rb_tree_nodeISt4pairIKSsPN2sf11SoundBufferEEEE10deallocateEPS8_j @2080
    _ZN9__gnu_cxx13new_allocatorISt13_Rb_tree_nodeISt4pairIKSsPN2sf11SoundBufferEEEE8allocateEjPKv @2081
    _ZN9__gnu_cxx13new_allocatorISt13_Rb_tree_nodeISt4pairIKSsPN2sf11SoundBufferEEEEC2Ev @2082
    _ZN9__gnu_cxx13new_allocatorISt13_Rb_tree_nodeISt4pairIKSsPN2sf11SoundBufferEEEED2Ev @2083
    _ZN9__gnu_cxx13new_allocatorISt13_Rb_tree_nodeISt4pairIKSsPN2sf4FontEEEE10deallocateEPS8_j @2084
    _ZN9__gnu_cxx13new_allocatorISt13_Rb_tree_nodeISt4pairIKSsPN2sf4FontEEEE8allocateEjPKv @2085
    _ZN9__gnu_cxx13new_allocatorISt13_Rb_tree_nodeISt4pairIKSsPN2sf4FontEEEEC2Ev @2086
    _ZN9__gnu_cxx13new_allocatorISt13_Rb_tree_nodeISt4pairIKSsPN2sf4FontEEEED2Ev @2087
    _ZN9__gnu_cxx13new_allocatorISt13_Rb_tree_nodeISt4pairIKSsPN2sf5MusicEEEE10deallocateEPS8_j @2088
    _ZN9__gnu_cxx13new_allocatorISt13_Rb_tree_nodeISt4pairIKSsPN2sf5MusicEEEE8allocateEjPKv @2089
    _ZN9__gnu_cxx13new_allocatorISt13_Rb_tree_nodeISt4pairIKSsPN2sf5MusicEEEEC2Ev @2090
    _ZN9__gnu_cxx13new_allocatorISt13_Rb_tree_nodeISt4pairIKSsPN2sf5MusicEEEED2Ev @2091
    _ZN9__gnu_cxx13new_allocatorISt13_Rb_tree_nodeISt4pairIKSsPN2sf5SoundEEEE10deallocateEPS8_j @2092
    _ZN9__gnu_cxx13new_allocatorISt13_Rb_tree_nodeISt4pairIKSsPN2sf5SoundEEEE8allocateEjPKv @2093
    _ZN9__gnu_cxx13new_allocatorISt13_Rb_tree_nodeISt4pairIKSsPN2sf5SoundEEEEC2Ev @2094
    _ZN9__gnu_cxx13new_allocatorISt13_Rb_tree_nodeISt4pairIKSsPN2sf5SoundEEEED2Ev @2095
    _ZN9__gnu_cxx13new_allocatorISt13_Rb_tree_nodeISt4pairIKSsPN2sf6ShaderEEEE10deallocateEPS8_j @2096
    _ZN9__gnu_cxx13new_allocatorISt13_Rb_tree_nodeISt4pairIKSsPN2sf6ShaderEEEE8allocateEjPKv @2097
    _ZN9__gnu_cxx13new_allocatorISt13_Rb_tree_nodeISt4pairIKSsPN2sf6ShaderEEEEC2Ev @2098
    _ZN9__gnu_cxx13new_allocatorISt13_Rb_tree_nodeISt4pairIKSsPN2sf6ShaderEEEED2Ev @2099
    _ZN9__gnu_cxx13new_allocatorISt13_Rb_tree_nodeISt4pairIKSsPN2sf7TextureEEEE10deallocateEPS8_j @2100
    _ZN9__gnu_cxx13new_allocatorISt13_Rb_tree_nodeISt4pairIKSsPN2sf7TextureEEEE8allocateEjPKv @2101
    _ZN9__gnu_cxx13new_allocatorISt13_Rb_tree_nodeISt4pairIKSsPN2sf7TextureEEEEC2Ev @2102
    _ZN9__gnu_cxx13new_allocatorISt13_Rb_tree_nodeISt4pairIKSsPN2sf7TextureEEEED2Ev @2103
    _ZN9__gnu_cxx13new_allocatorISt13_Rb_tree_nodeISt4pairIKSsPN9Ptakopysk10Serialized17ICustomSerializerEEEE10deallocateEPS9_j @2104
    _ZN9__gnu_cxx13new_allocatorISt13_Rb_tree_nodeISt4pairIKSsPN9Ptakopysk10Serialized17ICustomSerializerEEEE8allocateEjPKv @2105
    _ZN9__gnu_cxx13new_allocatorISt13_Rb_tree_nodeISt4pairIKSsPN9Ptakopysk10Serialized17ICustomSerializerEEEEC2Ev @2106
    _ZN9__gnu_cxx13new_allocatorISt13_Rb_tree_nodeISt4pairIKSsPN9Ptakopysk10Serialized17ICustomSerializerEEEED2Ev @2107
    _ZN9__gnu_cxx13new_allocatorISt13_Rb_tree_nodeISt4pairIKSsSsEEE10deallocateEPS5_j @2108
    _ZN9__gnu_cxx13new_allocatorISt13_Rb_tree_nodeISt4pairIKSsSsEEE8allocateEjPKv @2109
    _ZN9__gnu_cxx13new_allocatorISt13_Rb_tree_nodeISt4pairIKSsSsEEEC2Ev @2110
    _ZN9__gnu_cxx13new_allocatorISt13_Rb_tree_nodeISt4pairIKSsSsEEED2Ev @2111
    _ZN9__gnu_cxx13new_allocatorISt13_Rb_tree_nodeISt4pairIKSsiEEE10deallocateEPS5_j @2112
    _ZN9__gnu_cxx13new_allocatorISt13_Rb_tree_nodeISt4pairIKSsiEEE8allocateEjPKv @2113
    _ZN9__gnu_cxx13new_allocatorISt13_Rb_tree_nodeISt4pairIKSsiEEEC2ERKS6_ @2114
    _ZN9__gnu_cxx13new_allocatorISt13_Rb_tree_nodeISt4pairIKSsiEEEC2Ev @2115
    _ZN9__gnu_cxx13new_allocatorISt13_Rb_tree_nodeISt4pairIKSsiEEED2Ev @2116
    _ZN9__gnu_cxx13new_allocatorISt13_Rb_tree_nodeISt4pairIKiPKN2sf7TextureEEEE10deallocateEPS9_j @2117
    _ZN9__gnu_cxx13new_allocatorISt13_Rb_tree_nodeISt4pairIKiPKN2sf7TextureEEEE8allocateEjPKv @2118
    _ZN9__gnu_cxx13new_allocatorISt13_Rb_tree_nodeISt4pairIKiPKN2sf7TextureEEEEC2Ev @2119
    _ZN9__gnu_cxx13new_allocatorISt13_Rb_tree_nodeISt4pairIKiPKN2sf7TextureEEEED2Ev @2120
    _ZN9__gnu_cxx13new_allocatorISt13_Rb_tree_nodeISt4pairIKjN2sf4Font4PageEEEE10deallocateEPS8_j @2121
    _ZN9__gnu_cxx13new_allocatorISt13_Rb_tree_nodeISt4pairIKjN2sf4Font4PageEEEE8allocateEjPKv @2122
    _ZN9__gnu_cxx13new_allocatorISt13_Rb_tree_nodeISt4pairIKjN2sf4Font4PageEEEEC2ERKS9_ @2123
    _ZN9__gnu_cxx13new_allocatorISt13_Rb_tree_nodeISt4pairIKjN2sf4Font4PageEEEEC2Ev @2124
    _ZN9__gnu_cxx13new_allocatorISt13_Rb_tree_nodeISt4pairIKjN2sf4Font4PageEEEED2Ev @2125
    _ZN9__gnu_cxx13new_allocatorISt13_Rb_tree_nodeISt4pairIKjN2sf5GlyphEEEE10deallocateEPS7_j @2126
    _ZN9__gnu_cxx13new_allocatorISt13_Rb_tree_nodeISt4pairIKjN2sf5GlyphEEEE8allocateEjPKv @2127
    _ZN9__gnu_cxx13new_allocatorISt13_Rb_tree_nodeISt4pairIKjN2sf5GlyphEEEEC2ERKS8_ @2128
    _ZN9__gnu_cxx13new_allocatorISt13_Rb_tree_nodeISt4pairIKjN2sf5GlyphEEEEC2Ev @2129
    _ZN9__gnu_cxx13new_allocatorISt13_Rb_tree_nodeISt4pairIKjN2sf5GlyphEEEED2Ev @2130
    _ZN9__gnu_cxx13new_allocatorISt13_Rb_tree_nodeISt4pairIKjPN9Ptakopysk9ComponentEEEE10deallocateEPS8_j @2131
    _ZN9__gnu_cxx13new_allocatorISt13_Rb_tree_nodeISt4pairIKjPN9Ptakopysk9ComponentEEEE8allocateEjPKv @2132
    _ZN9__gnu_cxx13new_allocatorISt13_Rb_tree_nodeISt4pairIKjPN9Ptakopysk9ComponentEEEEC2Ev @2133
    _ZN9__gnu_cxx13new_allocatorISt13_Rb_tree_nodeISt4pairIKjPN9Ptakopysk9ComponentEEEED2Ev @2134
    _ZN9__gnu_cxx13new_allocatorISt4pairIKN4Json5Value8CZStringES3_EE7destroyEPS6_ @2135
    _ZN9__gnu_cxx13new_allocatorISt4pairIKN4Json5Value8CZStringES3_EE9constructEPS6_RKS6_ @2136
    _ZN9__gnu_cxx13new_allocatorISt4pairIKN4Json5Value8CZStringES3_EEC2Ev @2137
    _ZN9__gnu_cxx13new_allocatorISt4pairIKN4Json5Value8CZStringES3_EED2Ev @2138
    _ZN9__gnu_cxx13new_allocatorISt4pairIKSsN9Ptakopysk11GameManager20ComponentFactoryDataEEE7destroyEPS6_ @2139
    _ZN9__gnu_cxx13new_allocatorISt4pairIKSsN9Ptakopysk11GameManager20ComponentFactoryDataEEE9constructEPS6_RKS6_ @2140
    _ZN9__gnu_cxx13new_allocatorISt4pairIKSsN9Ptakopysk11GameManager20ComponentFactoryDataEEEC2Ev @2141
    _ZN9__gnu_cxx13new_allocatorISt4pairIKSsN9Ptakopysk11GameManager20ComponentFactoryDataEEED2Ev @2142
    _ZN9__gnu_cxx13new_allocatorISt4pairIKSsPN2sf11SoundBufferEEE7destroyEPS6_ @2143
    _ZN9__gnu_cxx13new_allocatorISt4pairIKSsPN2sf11SoundBufferEEE9constructEPS6_RKS6_ @2144
    _ZN9__gnu_cxx13new_allocatorISt4pairIKSsPN2sf11SoundBufferEEEC2Ev @2145
    _ZN9__gnu_cxx13new_allocatorISt4pairIKSsPN2sf11SoundBufferEEED2Ev @2146
    _ZN9__gnu_cxx13new_allocatorISt4pairIKSsPN2sf4FontEEE7destroyEPS6_ @2147
    _ZN9__gnu_cxx13new_allocatorISt4pairIKSsPN2sf4FontEEE9constructEPS6_RKS6_ @2148
    _ZN9__gnu_cxx13new_allocatorISt4pairIKSsPN2sf4FontEEEC2Ev @2149
    _ZN9__gnu_cxx13new_allocatorISt4pairIKSsPN2sf4FontEEED2Ev @2150
    _ZN9__gnu_cxx13new_allocatorISt4pairIKSsPN2sf5MusicEEE7destroyEPS6_ @2151
    _ZN9__gnu_cxx13new_allocatorISt4pairIKSsPN2sf5MusicEEE9constructEPS6_RKS6_ @2152
    _ZN9__gnu_cxx13new_allocatorISt4pairIKSsPN2sf5MusicEEEC2Ev @2153
    _ZN9__gnu_cxx13new_allocatorISt4pairIKSsPN2sf5MusicEEED2Ev @2154
    _ZN9__gnu_cxx13new_allocatorISt4pairIKSsPN2sf5SoundEEE7destroyEPS6_ @2155
    _ZN9__gnu_cxx13new_allocatorISt4pairIKSsPN2sf5SoundEEE9constructEPS6_RKS6_ @2156
    _ZN9__gnu_cxx13new_allocatorISt4pairIKSsPN2sf5SoundEEEC2Ev @2157
    _ZN9__gnu_cxx13new_allocatorISt4pairIKSsPN2sf5SoundEEED2Ev @2158
    _ZN9__gnu_cxx13new_allocatorISt4pairIKSsPN2sf6ShaderEEE7destroyEPS6_ @2159
    _ZN9__gnu_cxx13new_allocatorISt4pairIKSsPN2sf6ShaderEEE9constructEPS6_RKS6_ @2160
    _ZN9__gnu_cxx13new_allocatorISt4pairIKSsPN2sf6ShaderEEEC2Ev @2161
    _ZN9__gnu_cxx13new_allocatorISt4pairIKSsPN2sf6ShaderEEED2Ev @2162
    _ZN9__gnu_cxx13new_allocatorISt4pairIKSsPN2sf7TextureEEE7destroyEPS6_ @2163
    _ZN9__gnu_cxx13new_allocatorISt4pairIKSsPN2sf7TextureEEE9constructEPS6_RKS6_ @2164
    _ZN9__gnu_cxx13new_allocatorISt4pairIKSsPN2sf7TextureEEEC2Ev @2165
    _ZN9__gnu_cxx13new_allocatorISt4pairIKSsPN2sf7TextureEEED2Ev @2166
    _ZN9__gnu_cxx13new_allocatorISt4pairIKSsPN9Ptakopysk10Serialized17ICustomSerializerEEE7destroyEPS7_ @2167
    _ZN9__gnu_cxx13new_allocatorISt4pairIKSsPN9Ptakopysk10Serialized17ICustomSerializerEEE9constructEPS7_RKS7_ @2168
    _ZN9__gnu_cxx13new_allocatorISt4pairIKSsPN9Ptakopysk10Serialized17ICustomSerializerEEEC2Ev @2169
    _ZN9__gnu_cxx13new_allocatorISt4pairIKSsPN9Ptakopysk10Serialized17ICustomSerializerEEED2Ev @2170
    _ZN9__gnu_cxx13new_allocatorISt4pairIKSsSsEE7destroyEPS3_ @2171
    _ZN9__gnu_cxx13new_allocatorISt4pairIKSsSsEE9constructEPS3_RKS3_ @2172
    _ZN9__gnu_cxx13new_allocatorISt4pairIKSsSsEEC2Ev @2173
    _ZN9__gnu_cxx13new_allocatorISt4pairIKSsSsEED2Ev @2174
    _ZN9__gnu_cxx13new_allocatorISt4pairIKSsiEE7destroyEPS3_ @2175
    _ZN9__gnu_cxx13new_allocatorISt4pairIKSsiEE9constructEPS3_RKS3_ @2176
    _ZN9__gnu_cxx13new_allocatorISt4pairIKSsiEEC2Ev @2177
    _ZN9__gnu_cxx13new_allocatorISt4pairIKSsiEED2Ev @2178
    _ZN9__gnu_cxx13new_allocatorISt4pairIKiPKN2sf7TextureEEE7destroyEPS7_ @2179
    _ZN9__gnu_cxx13new_allocatorISt4pairIKiPKN2sf7TextureEEE9constructEPS7_RKS7_ @2180
    _ZN9__gnu_cxx13new_allocatorISt4pairIKiPKN2sf7TextureEEEC2Ev @2181
    _ZN9__gnu_cxx13new_allocatorISt4pairIKiPKN2sf7TextureEEED2Ev @2182
    _ZN9__gnu_cxx13new_allocatorISt4pairIKjN2sf4Font4PageEEE7destroyEPS6_ @2183
    _ZN9__gnu_cxx13new_allocatorISt4pairIKjN2sf4Font4PageEEE9constructEPS6_RKS6_ @2184
    _ZN9__gnu_cxx13new_allocatorISt4pairIKjN2sf4Font4PageEEEC2Ev @2185
    _ZN9__gnu_cxx13new_allocatorISt4pairIKjN2sf4Font4PageEEED2Ev @2186
    _ZN9__gnu_cxx13new_allocatorISt4pairIKjN2sf5GlyphEEE7destroyEPS5_ @2187
    _ZN9__gnu_cxx13new_allocatorISt4pairIKjN2sf5GlyphEEE9constructEPS5_RKS5_ @2188
    _ZN9__gnu_cxx13new_allocatorISt4pairIKjN2sf5GlyphEEEC2Ev @2189
    _ZN9__gnu_cxx13new_allocatorISt4pairIKjN2sf5GlyphEEED2Ev @2190
    _ZN9__gnu_cxx13new_allocatorISt4pairIKjPN9Ptakopysk9ComponentEEE7destroyEPS6_ @2191
    _ZN9__gnu_cxx13new_allocatorISt4pairIKjPN9Ptakopysk9ComponentEEE9constructEPS6_RKS6_ @2192
    _ZN9__gnu_cxx13new_allocatorISt4pairIKjPN9Ptakopysk9ComponentEEEC2Ev @2193
    _ZN9__gnu_cxx13new_allocatorISt4pairIKjPN9Ptakopysk9ComponentEEED2Ev @2194
    _ZN9__gnu_cxx13new_allocatorIcE10deallocateEPcj @2195
    _ZN9__gnu_cxx13new_allocatorIcE7destroyEPc @2196
    _ZN9__gnu_cxx13new_allocatorIcE8allocateEjPKv @2197
    _ZN9__gnu_cxx13new_allocatorIcE9constructEPcRKc @2198
    _ZN9__gnu_cxx13new_allocatorIcEC2Ev @2199
    _ZN9__gnu_cxx13new_allocatorIhE10deallocateEPhj @2200
    _ZN9__gnu_cxx13new_allocatorIhE8allocateEjPKv @2201
    _ZN9__gnu_cxx13new_allocatorIhEC2ERKS1_ @2202
    _ZN9__gnu_cxx13new_allocatorIhEC2Ev @2203
    _ZN9__gnu_cxx13new_allocatorIhED2Ev @2204
    _ZN9__gnu_cxx13new_allocatorIjEC2ERKS1_ @2205
    _ZN9__gnu_cxx13new_allocatorIjEC2Ev @2206
    _ZN9__gnu_cxx13new_allocatorIjED2Ev @2207
    _ZN9__gnu_cxx13new_allocatorIsE10deallocateEPsj @2208
    _ZN9__gnu_cxx13new_allocatorIsE8allocateEjPKv @2209
    _ZN9__gnu_cxx13new_allocatorIsEC2ERKS1_ @2210
    _ZN9__gnu_cxx13new_allocatorIsEC2Ev @2211
    _ZN9__gnu_cxx13new_allocatorIsED2Ev @2212
    _ZN9__gnu_cxx14__alloc_traitsISaI6b2Vec2EE7destroyERS2_PS1_ @2213
    _ZN9__gnu_cxx14__alloc_traitsISaI6b2Vec2EE8max_sizeERKS2_ @2214
    _ZN9__gnu_cxx14__alloc_traitsISaI6b2Vec2EE9constructIS1_EEvRS2_PS1_RKT_ @2215
    _ZN9__gnu_cxx14__alloc_traitsISaIN2sf4Font3RowEEE17_S_select_on_copyERKS4_ @2216
    _ZN9__gnu_cxx14__alloc_traitsISaIN2sf4Font3RowEEE7destroyERS4_PS3_ @2217
    _ZN9__gnu_cxx14__alloc_traitsISaIN2sf4Font3RowEEE8max_sizeERKS4_ @2218
    _ZN9__gnu_cxx14__alloc_traitsISaIN2sf4Font3RowEEE9constructIS3_EEvRS4_PS3_RKT_ @2219
    _ZN9__gnu_cxx14__alloc_traitsISaIN2sf6VertexEEE7destroyERS3_PS2_ @2220
    _ZN9__gnu_cxx14__alloc_traitsISaIN2sf6VertexEEE8max_sizeERKS3_ @2221
    _ZN9__gnu_cxx14__alloc_traitsISaIN2sf6VertexEEE9constructIS2_EEvRS3_PS2_RKT_ @2222
    _ZN9__gnu_cxx14__alloc_traitsISaIN2sf9VideoModeEEE7destroyERS3_PS2_ @2223
    _ZN9__gnu_cxx14__alloc_traitsISaIN2sf9VideoModeEEE8max_sizeERKS3_ @2224
    _ZN9__gnu_cxx14__alloc_traitsISaIN2sf9VideoModeEEE9constructIS2_EEvRS3_PS2_RKT_ @2225
    _ZN9__gnu_cxx14__alloc_traitsISaIN4Json12PathArgumentEEE7destroyERS3_PS2_ @2226
    _ZN9__gnu_cxx14__alloc_traitsISaIN4Json12PathArgumentEEE8max_sizeERKS3_ @2227
    _ZN9__gnu_cxx14__alloc_traitsISaIN4Json12PathArgumentEEE9constructIS2_EEvRS3_PS2_RKT_ @2228
    _ZN9__gnu_cxx14__alloc_traitsISaIN6XeCore6Common6StringEEE7destroyERS4_PS3_ @2229
    _ZN9__gnu_cxx14__alloc_traitsISaIN6XeCore6Common6StringEEE8max_sizeERKS4_ @2230
    _ZN9__gnu_cxx14__alloc_traitsISaIN6XeCore6Common6StringEEE9constructIS3_EEvRS4_PS3_RKT_ @2231
    _ZN9__gnu_cxx14__alloc_traitsISaIPKN4Json12PathArgumentEEE7destroyERS5_PS4_ @2232
    _ZN9__gnu_cxx14__alloc_traitsISaIPKN4Json12PathArgumentEEE8max_sizeERKS5_ @2233
    _ZN9__gnu_cxx14__alloc_traitsISaIPKN4Json12PathArgumentEEE9constructIS4_EEvRS5_PS4_RKT_ @2234
    _ZN9__gnu_cxx14__alloc_traitsISaISsEE17_S_select_on_copyERKS1_ @2235
    _ZN9__gnu_cxx14__alloc_traitsISaISsEE7destroyERS1_PSs @2236
    _ZN9__gnu_cxx14__alloc_traitsISaISsEE8max_sizeERKS1_ @2237
    _ZN9__gnu_cxx14__alloc_traitsISaISsEE9constructISsEEvRS1_PSsRKT_ @2238
    _ZN9__gnu_cxx14__alloc_traitsISaIcEE7destroyERS1_Pc @2239
    _ZN9__gnu_cxx14__alloc_traitsISaIcEE8max_sizeERKS1_ @2240
    _ZN9__gnu_cxx14__alloc_traitsISaIcEE9constructIcEEvRS1_PcRKT_ @2241
    _ZN9__gnu_cxx14__alloc_traitsISaIhEE10_S_on_swapERS1_S3_ @2242
    _ZN9__gnu_cxx14__alloc_traitsISaIhEE17_S_select_on_copyERKS1_ @2243
    _ZN9__gnu_cxx14__alloc_traitsISaIhEE8max_sizeERKS1_ @2244
    _ZN9__gnu_cxx14__alloc_traitsISaIsEE10_S_on_swapERS1_S3_ @2245
    _ZN9__gnu_cxx14__alloc_traitsISaIsEE17_S_select_on_copyERKS1_ @2246
    _ZN9__gnu_cxx14__alloc_traitsISaIsEE8max_sizeERKS1_ @2247
    _ZN9__gnu_cxx17__is_null_pointerIKcEEbPT_ @2248
    _ZN9__gnu_cxx17__normal_iteratorIP6b2Vec2St6vectorIS1_SaIS1_EEEC1ERKS2_ @2249
    _ZN9__gnu_cxx17__normal_iteratorIP6b2Vec2St6vectorIS1_SaIS1_EEEpLERKi @2250
    _ZN9__gnu_cxx17__normal_iteratorIP6b2Vec2St6vectorIS1_SaIS1_EEEppEi @2251
    _ZN9__gnu_cxx17__normal_iteratorIP6b2Vec2St6vectorIS1_SaIS1_EEEppEv @2252
    _ZN9__gnu_cxx17__normal_iteratorIPK6b2Vec2St6vectorIS1_SaIS1_EEEC1ERKS3_ @2253
    _ZN9__gnu_cxx17__normal_iteratorIPKN2sf4Font3RowESt6vectorIS3_SaIS3_EEEC1ERKS5_ @2254
    _ZN9__gnu_cxx17__normal_iteratorIPKN2sf4Font3RowESt6vectorIS3_SaIS3_EEEppEv @2255
    _ZN9__gnu_cxx17__normal_iteratorIPKN2sf6VertexESt6vectorIS2_SaIS2_EEEC1ERKS4_ @2256
    _ZN9__gnu_cxx17__normal_iteratorIPKN2sf9VideoModeESt6vectorIS2_SaIS2_EEEC1ERKS4_ @2257
    _ZN9__gnu_cxx17__normal_iteratorIPKN2sf9VideoModeESt6vectorIS2_SaIS2_EEEppEv @2258
    _ZN9__gnu_cxx17__normal_iteratorIPKN4Json12PathArgumentESt6vectorIS2_SaIS2_EEEC1ERKS4_ @2259
    _ZN9__gnu_cxx17__normal_iteratorIPKN4Json12PathArgumentESt6vectorIS2_SaIS2_EEEppEv @2260
    _ZN9__gnu_cxx17__normal_iteratorIPKPKN4Json12PathArgumentESt6vectorIS4_SaIS4_EEEC1ERKS6_ @2261
    _ZN9__gnu_cxx17__normal_iteratorIPKSsSt6vectorISsSaISsEEEC1ERKS2_ @2262
    _ZN9__gnu_cxx17__normal_iteratorIPKSsSt6vectorISsSaISsEEEppEv @2263
    _ZN9__gnu_cxx17__normal_iteratorIPKcSsEC1ERKS2_ @2264
    _ZN9__gnu_cxx17__normal_iteratorIPKcSsEppEi @2265
    _ZN9__gnu_cxx17__normal_iteratorIPKhSt6vectorIhSaIhEEEC1ERKS2_ @2266
    _ZN9__gnu_cxx17__normal_iteratorIPKjSbIjSt11char_traitsIjESaIjEEEC1ERKS2_ @2267
    _ZN9__gnu_cxx17__normal_iteratorIPKjSbIjSt11char_traitsIjESaIjEEEppEi @2268
    _ZN9__gnu_cxx17__normal_iteratorIPKsSt6vectorIsSaIsEEEC1ERKS2_ @2269
    _ZN9__gnu_cxx17__normal_iteratorIPKwSbIwSt11char_traitsIwESaIwEEEC1ERKS2_ @2270
    _ZN9__gnu_cxx17__normal_iteratorIPKwSbIwSt11char_traitsIwESaIwEEEppEi @2271
    _ZN9__gnu_cxx17__normal_iteratorIPN2sf4Font3RowESt6vectorIS3_SaIS3_EEEC1ERKS4_ @2272
    _ZN9__gnu_cxx17__normal_iteratorIPN2sf4Font3RowESt6vectorIS3_SaIS3_EEEppEv @2273
    _ZN9__gnu_cxx17__normal_iteratorIPN2sf6VertexESt6vectorIS2_SaIS2_EEEC1ERKS3_ @2274
    _ZN9__gnu_cxx17__normal_iteratorIPN2sf9VideoModeESt6vectorIS2_SaIS2_EEEC1ERKS3_ @2275
    _ZN9__gnu_cxx17__normal_iteratorIPN2sf9VideoModeESt6vectorIS2_SaIS2_EEEmmEv @2276
    _ZN9__gnu_cxx17__normal_iteratorIPN2sf9VideoModeESt6vectorIS2_SaIS2_EEEppEv @2277
    _ZN9__gnu_cxx17__normal_iteratorIPN4Json12PathArgumentESt6vectorIS2_SaIS2_EEEC1ERKS3_ @2278
    _ZN9__gnu_cxx17__normal_iteratorIPN6XeCore6Common6StringESt6vectorIS3_SaIS3_EEEC1ERKS4_ @2279
    _ZN9__gnu_cxx17__normal_iteratorIPPKN4Json12PathArgumentESt6vectorIS4_SaIS4_EEEC1ERKS5_ @2280
    _ZN9__gnu_cxx17__normal_iteratorIPSsSt6vectorISsSaISsEEEC1ERKS1_ @2281
    _ZN9__gnu_cxx17__normal_iteratorIPSsSt6vectorISsSaISsEEEppEi @2282
    _ZN9__gnu_cxx17__normal_iteratorIPSsSt6vectorISsSaISsEEEppEv @2283
    _ZN9__gnu_cxx17__normal_iteratorIPcSsEppEv @2284
    _ZN9__gnu_cxx17__normal_iteratorIPcSt6vectorIcSaIcEEEC1ERKS1_ @2285
    _ZN9__gnu_cxx17__normal_iteratorIPhSt6vectorIhSaIhEEEC1ERKS1_ @2286
    _ZN9__gnu_cxx17__normal_iteratorIPjSbIjSt11char_traitsIjESaIjEEEC1ERKS1_ @2287
    _ZN9__gnu_cxx17__normal_iteratorIPsSt6vectorIsSaIsEEEC1ERKS1_ @2288
    _ZN9__gnu_cxxeqIPK6b2Vec2St6vectorIS1_SaIS1_EEEEbRKNS_17__normal_iteratorIT_T0_EESC_ @2289
    _ZN9__gnu_cxxeqIPKN2sf6VertexESt6vectorIS2_SaIS2_EEEEbRKNS_17__normal_iteratorIT_T0_EESD_ @2290
    _ZN9__gnu_cxxeqIPKN2sf9VideoModeESt6vectorIS2_SaIS2_EEEEbRKNS_17__normal_iteratorIT_T0_EESD_ @2291
    _ZN9__gnu_cxxeqIPKPKN4Json12PathArgumentESt6vectorIS4_SaIS4_EEEEbRKNS_17__normal_iteratorIT_T0_EESF_ @2292
    _ZN9__gnu_cxxeqIPKSsSt6vectorISsSaISsEEEEbRKNS_17__normal_iteratorIT_T0_EESB_ @2293
    _ZN9__gnu_cxxeqIPKhSt6vectorIhSaIhEEEEbRKNS_17__normal_iteratorIT_T0_EESB_ @2294
    _ZN9__gnu_cxxeqIPKsSt6vectorIsSaIsEEEEbRKNS_17__normal_iteratorIT_T0_EESB_ @2295
    _ZN9__gnu_cxxeqIPN2sf9VideoModeESt6vectorIS2_SaIS2_EEEEbRKNS_17__normal_iteratorIT_T0_EESC_ @2296
    _ZN9__gnu_cxxeqIPSsSt6vectorISsSaISsEEEEbRKNS_17__normal_iteratorIT_T0_EESA_ @2297
    _ZN9__gnu_cxxltIPKcSsEEbRKNS_17__normal_iteratorIT_T0_EES8_ @2298
    _ZN9__gnu_cxxltIPKjSbIjSt11char_traitsIjESaIjEEEEbRKNS_17__normal_iteratorIT_T0_EESC_ @2299
    _ZN9__gnu_cxxltIPKwSbIwSt11char_traitsIwESaIwEEEEbRKNS_17__normal_iteratorIT_T0_EESC_ @2300
    _ZN9__gnu_cxxltIPN2sf9VideoModeESt6vectorIS2_SaIS2_EEEEbRKNS_17__normal_iteratorIT_T0_EESC_ @2301
    _ZN9__gnu_cxxmiIP6b2Vec2St6vectorIS1_SaIS1_EEEENS_17__normal_iteratorIT_T0_E15difference_typeERKS9_SC_ @2302
    _ZN9__gnu_cxxmiIPKN2sf9VideoModeESt6vectorIS2_SaIS2_EEEENS_17__normal_iteratorIT_T0_E15difference_typeERKSB_SE_ @2303
    _ZN9__gnu_cxxmiIPN2sf4Font3RowESt6vectorIS3_SaIS3_EEEENS_17__normal_iteratorIT_T0_E15difference_typeERKSB_SE_ @2304
    _ZN9__gnu_cxxmiIPN2sf6VertexESt6vectorIS2_SaIS2_EEEENS_17__normal_iteratorIT_T0_E15difference_typeERKSA_SD_ @2305
    _ZN9__gnu_cxxmiIPN2sf9VideoModeESt6vectorIS2_SaIS2_EEEENS_17__normal_iteratorIT_T0_E15difference_typeERKSA_SD_ @2306
    _ZN9__gnu_cxxmiIPN4Json12PathArgumentESt6vectorIS2_SaIS2_EEEENS_17__normal_iteratorIT_T0_E15difference_typeERKSA_SD_ @2307
    _ZN9__gnu_cxxmiIPN6XeCore6Common6StringESt6vectorIS3_SaIS3_EEEENS_17__normal_iteratorIT_T0_E15difference_typeERKSB_SE_ @2308
    _ZN9__gnu_cxxmiIPPKN4Json12PathArgumentESt6vectorIS4_SaIS4_EEEENS_17__normal_iteratorIT_T0_E15difference_typeERKSC_SF_ @2309
    _ZN9__gnu_cxxmiIPSsSt6vectorISsSaISsEEEENS_17__normal_iteratorIT_T0_E15difference_typeERKS8_SB_ @2310
    _ZN9__gnu_cxxmiIPcSt6vectorIcSaIcEEEENS_17__normal_iteratorIT_T0_E15difference_typeERKS8_SB_ @2311
    _ZN9__gnu_cxxmiIPhSt6vectorIhSaIhEEEENS_17__normal_iteratorIT_T0_E15difference_typeERKS8_SB_ @2312
    _ZN9__gnu_cxxmiIPsSt6vectorIsSaIsEEEENS_17__normal_iteratorIT_T0_E15difference_typeERKS8_SB_ @2313
    _ZN9__gnu_cxxneIP6b2Vec2St6vectorIS1_SaIS1_EEEEbRKNS_17__normal_iteratorIT_T0_EESB_ @2314
    _ZN9__gnu_cxxneIPKN2sf4Font3RowESt6vectorIS3_SaIS3_EEEEbRKNS_17__normal_iteratorIT_T0_EESE_ @2315
    _ZN9__gnu_cxxneIPKN2sf9VideoModeESt6vectorIS2_SaIS2_EEEEbRKNS_17__normal_iteratorIT_T0_EESD_ @2316
    _ZN9__gnu_cxxneIPKN4Json12PathArgumentESt6vectorIS2_SaIS2_EEEEbRKNS_17__normal_iteratorIT_T0_EESD_ @2317
    _ZN9__gnu_cxxneIPKSsSt6vectorISsSaISsEEEEbRKNS_17__normal_iteratorIT_T0_EESB_ @2318
    _ZN9__gnu_cxxneIPN2sf4Font3RowESt6vectorIS3_SaIS3_EEEEbRKNS_17__normal_iteratorIT_T0_EESD_ @2319
    _ZN9__gnu_cxxneIPN2sf9VideoModeESt6vectorIS2_SaIS2_EEEEbRKNS_17__normal_iteratorIT_T0_EESC_ @2320
    _ZN9__gnu_cxxneIPSsSt6vectorISsSaISsEEEEbRKNS_17__normal_iteratorIT_T0_EESA_ @2321
    _ZN9__gnu_cxxneIPcSsEEbRKNS_17__normal_iteratorIT_T0_EES7_ @2322
    _ZN9b2BodyDefC1Ev @2323
    _ZN9b2Contact10SetEnabledEb @2324
    _ZN9b2Contact11GetFixtureAEv @2325
    _ZN9b2Contact11GetFixtureBEv @2326
    _ZN9b2Contact11GetManifoldEv @2327
    _ZN9b2Contact11s_registersE @2328 DATA
    _ZN9b2Contact13s_initializedE @2329 DATA
    _ZN9b2Contact16FlagForFilteringEv @2330
    _ZN9b2Contact19InitializeRegistersEv @2331
    _ZN9b2Contact6CreateEP9b2FixtureiS1_iP16b2BlockAllocator @2332
    _ZN9b2Contact6UpdateEP17b2ContactListener @2333
    _ZN9b2Contact7AddTypeEPFPS_P9b2FixtureiS2_iP16b2BlockAllocatorEPFvS0_S4_EN7b2Shape4TypeESA_ @2334
    _ZN9b2Contact7DestroyEPS_P16b2BlockAllocator @2335
    _ZN9b2Contact7GetNextEv @2336
    _ZN9b2ContactC1EP9b2FixtureiS1_i @2337
    _ZN9b2ContactC2EP9b2FixtureiS1_i @2338
    _ZN9b2ContactD0Ev @2339
    _ZN9b2ContactD1Ev @2340
    _ZN9b2ContactD2Ev @2341
    _ZN9b2Fixture10SetDensityEf @2342
    _ZN9b2Fixture11SynchronizeEP12b2BroadPhaseRK11b2TransformS4_ @2343
    _ZN9b2Fixture13CreateProxiesEP12b2BroadPhaseRK11b2Transform @2344
    _ZN9b2Fixture13SetFilterDataERK8b2Filter @2345
    _ZN9b2Fixture14DestroyProxiesEP12b2BroadPhase @2346
    _ZN9b2Fixture4DumpEi @2347
    _ZN9b2Fixture6CreateEP16b2BlockAllocatorP6b2BodyPK12b2FixtureDef @2348
    _ZN9b2Fixture7DestroyEP16b2BlockAllocator @2349
    _ZN9b2Fixture7GetBodyEv @2350
    _ZN9b2Fixture7GetNextEv @2351
    _ZN9b2Fixture8GetShapeEv @2352
    _ZN9b2Fixture8RefilterEv @2353
    _ZN9b2Fixture9SetSensorEb @2354
    _ZN9b2FixtureC1Ev @2355
    _ZN9b2FixtureC2Ev @2356
    _ZN9b2Simplex6Solve2Ev @2357
    _ZN9b2Simplex6Solve3Ev @2358
    _ZN9b2Simplex9ReadCacheEPK14b2SimplexCachePK15b2DistanceProxyRK11b2TransformS5_S8_ @2359
    _ZN9b2SimplexC1Ev @2360
    _ZNK10b2TreeNode6IsLeafEv @2361
    _ZNK11b2EdgeShape11ComputeAABBEP6b2AABBRK11b2Transformi @2362
    _ZNK11b2EdgeShape11ComputeMassEP10b2MassDataf @2363
    _ZNK11b2EdgeShape13GetChildCountEv @2364
    _ZNK11b2EdgeShape5CloneEP16b2BlockAllocator @2365
    _ZNK11b2EdgeShape7RayCastEP15b2RayCastOutputRK14b2RayCastInputRK11b2Transformi @2366
    _ZNK11b2EdgeShape9TestPointERK11b2TransformRK6b2Vec2 @2367
    _ZNK11b2GearJoint10GetAnchorAEv @2368
    _ZNK11b2GearJoint10GetAnchorBEv @2369
    _ZNK11b2GearJoint16GetReactionForceEf @2370
    _ZNK11b2GearJoint17GetReactionTorqueEf @2371
    _ZNK11b2GearJoint8GetRatioEv @2372
    _ZNK11b2RopeJoint10GetAnchorAEv @2373
    _ZNK11b2RopeJoint10GetAnchorBEv @2374
    _ZNK11b2RopeJoint12GetMaxLengthEv @2375
    _ZNK11b2RopeJoint13GetLimitStateEv @2376
    _ZNK11b2RopeJoint16GetReactionForceEf @2377
    _ZNK11b2RopeJoint17GetReactionTorqueEf @2378
    _ZNK11b2WeldJoint10GetAnchorAEv @2379
    _ZNK11b2WeldJoint10GetAnchorBEv @2380
    _ZNK11b2WeldJoint16GetReactionForceEf @2381
    _ZNK11b2WeldJoint17GetReactionTorqueEf @2382
    _ZNK12b2BroadPhase10GetFatAABBEi @2383
    _ZNK12b2BroadPhase11GetUserDataEi @2384
    _ZNK12b2BroadPhase11TestOverlapEii @2385
    _ZNK12b2BroadPhase13GetProxyCountEv @2386
    _ZNK12b2BroadPhase13GetTreeHeightEv @2387
    _ZNK12b2BroadPhase14GetTreeBalanceEv @2388
    _ZNK12b2BroadPhase14GetTreeQualityEv @2389
    _ZNK12b2BroadPhase5QueryI19b2WorldQueryWrapperEEvPT_RK6b2AABB @2390
    _ZNK12b2BroadPhase7RayCastI21b2WorldRayCastWrapperEEvPT_RK14b2RayCastInput @2391
    _ZNK12b2ChainShape11ComputeAABBEP6b2AABBRK11b2Transformi @2392
    _ZNK12b2ChainShape11ComputeMassEP10b2MassDataf @2393
    _ZNK12b2ChainShape12GetChildEdgeEP11b2EdgeShapei @2394
    _ZNK12b2ChainShape13GetChildCountEv @2395
    _ZNK12b2ChainShape5CloneEP16b2BlockAllocator @2396
    _ZNK12b2ChainShape7RayCastEP15b2RayCastOutputRK14b2RayCastInputRK11b2Transformi @2397
    _ZNK12b2ChainShape9TestPointERK11b2TransformRK6b2Vec2 @2398
    _ZNK12b2MouseJoint10GetAnchorAEv @2399
    _ZNK12b2MouseJoint10GetAnchorBEv @2400
    _ZNK12b2MouseJoint11GetMaxForceEv @2401
    _ZNK12b2MouseJoint12GetFrequencyEv @2402
    _ZNK12b2MouseJoint15GetDampingRatioEv @2403
    _ZNK12b2MouseJoint16GetReactionForceEf @2404
    _ZNK12b2MouseJoint17GetReactionTorqueEf @2405
    _ZNK12b2MouseJoint9GetTargetEv @2406
    _ZNK12b2WheelJoint10GetAnchorAEv @2407
    _ZNK12b2WheelJoint10GetAnchorBEv @2408
    _ZNK12b2WheelJoint13GetJointSpeedEv @2409
    _ZNK12b2WheelJoint14GetMotorTorqueEf @2410
    _ZNK12b2WheelJoint14IsMotorEnabledEv @2411
    _ZNK12b2WheelJoint16GetReactionForceEf @2412
    _ZNK12b2WheelJoint17GetReactionTorqueEf @2413
    _ZNK12b2WheelJoint19GetJointTranslationEv @2414
    _ZNK13b2DynamicTree10GetFatAABBEi @2415
    _ZNK13b2DynamicTree11GetUserDataEi @2416
    _ZNK13b2DynamicTree12GetAreaRatioEv @2417
    _ZNK13b2DynamicTree13ComputeHeightEi @2418
    _ZNK13b2DynamicTree13ComputeHeightEv @2419
    _ZNK13b2DynamicTree13GetMaxBalanceEv @2420
    _ZNK13b2DynamicTree15ValidateMetricsEi @2421
    _ZNK13b2DynamicTree17ValidateStructureEi @2422
    _ZNK13b2DynamicTree5QueryI12b2BroadPhaseEEvPT_RK6b2AABB @2423
    _ZNK13b2DynamicTree5QueryI19b2WorldQueryWrapperEEvPT_RK6b2AABB @2424
    _ZNK13b2DynamicTree7RayCastI21b2WorldRayCastWrapperEEvPT_RK14b2RayCastInput @2425
    _ZNK13b2DynamicTree8ValidateEv @2426
    _ZNK13b2DynamicTree9GetHeightEv @2427
    _ZNK13b2PulleyJoint10GetAnchorAEv @2428
    _ZNK13b2PulleyJoint10GetAnchorBEv @2429
    _ZNK13b2PulleyJoint10GetLengthAEv @2430
    _ZNK13b2PulleyJoint10GetLengthBEv @2431
    _ZNK13b2PulleyJoint16GetGroundAnchorAEv @2432
    _ZNK13b2PulleyJoint16GetGroundAnchorBEv @2433
    _ZNK13b2PulleyJoint16GetReactionForceEf @2434
    _ZNK13b2PulleyJoint17GetReactionTorqueEf @2435
    _ZNK13b2PulleyJoint8GetRatioEv @2436
    _ZNK14b2PolygonShape11ComputeAABBEP6b2AABBRK11b2Transformi @2437
    _ZNK14b2PolygonShape11ComputeMassEP10b2MassDataf @2438
    _ZNK14b2PolygonShape13GetChildCountEv @2439
    _ZNK14b2PolygonShape5CloneEP16b2BlockAllocator @2440
    _ZNK14b2PolygonShape7RayCastEP15b2RayCastOutputRK14b2RayCastInputRK11b2Transformi @2441
    _ZNK14b2PolygonShape9TestPointERK11b2TransformRK6b2Vec2 @2442
    _ZNK15b2DistanceJoint10GetAnchorAEv @2443
    _ZNK15b2DistanceJoint10GetAnchorBEv @2444
    _ZNK15b2DistanceJoint16GetReactionForceEf @2445
    _ZNK15b2DistanceJoint17GetReactionTorqueEf @2446
    _ZNK15b2DistanceProxy10GetSupportERK6b2Vec2 @2447
    _ZNK15b2DistanceProxy9GetVertexEi @2448
    _ZNK15b2FrictionJoint10GetAnchorAEv @2449
    _ZNK15b2FrictionJoint10GetAnchorBEv @2450
    _ZNK15b2FrictionJoint11GetMaxForceEv @2451
    _ZNK15b2FrictionJoint12GetMaxTorqueEv @2452
    _ZNK15b2FrictionJoint16GetReactionForceEf @2453
    _ZNK15b2FrictionJoint17GetReactionTorqueEf @2454
    _ZNK15b2RevoluteJoint10GetAnchorAEv @2455
    _ZNK15b2RevoluteJoint10GetAnchorBEv @2456
    _ZNK15b2RevoluteJoint13GetJointAngleEv @2457
    _ZNK15b2RevoluteJoint13GetJointSpeedEv @2458
    _ZNK15b2RevoluteJoint13GetLowerLimitEv @2459
    _ZNK15b2RevoluteJoint13GetUpperLimitEv @2460
    _ZNK15b2RevoluteJoint14GetMotorTorqueEf @2461
    _ZNK15b2RevoluteJoint14IsLimitEnabledEv @2462
    _ZNK15b2RevoluteJoint14IsMotorEnabledEv @2463
    _ZNK15b2RevoluteJoint16GetReactionForceEf @2464
    _ZNK15b2RevoluteJoint17GetReactionTorqueEf @2465
    _ZNK16b2PrismaticJoint10GetAnchorAEv @2466
    _ZNK16b2PrismaticJoint10GetAnchorBEv @2467
    _ZNK16b2PrismaticJoint13GetJointSpeedEv @2468
    _ZNK16b2PrismaticJoint13GetLowerLimitEv @2469
    _ZNK16b2PrismaticJoint13GetMotorForceEf @2470
    _ZNK16b2PrismaticJoint13GetUpperLimitEv @2471
    _ZNK16b2PrismaticJoint14IsLimitEnabledEv @2472
    _ZNK16b2PrismaticJoint14IsMotorEnabledEv @2473
    _ZNK16b2PrismaticJoint16GetReactionForceEf @2474
    _ZNK16b2PrismaticJoint17GetReactionTorqueEf @2475
    _ZNK16b2PrismaticJoint19GetJointTranslationEv @2476
    _ZNK16b2StackAllocator16GetMaxAllocationEv @2477
    _ZNK20b2SeparationFunction17FindMinSeparationEPiS0_f @2478
    _ZNK20b2SeparationFunction8EvaluateEiif @2479
    _ZNK2sf11SoundBuffer10getSamplesEv @2480
    _ZNK2sf11SoundBuffer10saveToFileERKSs @2481
    _ZNK2sf11SoundBuffer11attachSoundEPNS_5SoundE @2482
    _ZNK2sf11SoundBuffer11detachSoundEPNS_5SoundE @2483
    _ZNK2sf11SoundBuffer11getDurationEv @2484
    _ZNK2sf11SoundBuffer13getSampleRateEv @2485
    _ZNK2sf11SoundBuffer14getSampleCountEv @2486
    _ZNK2sf11SoundBuffer15getChannelCountEv @2487
    _ZNK2sf11SoundSource11getPositionEv @2488
    _ZNK2sf11SoundSource14getAttenuationEv @2489
    _ZNK2sf11SoundSource14getMinDistanceEv @2490
    _ZNK2sf11SoundSource20isRelativeToListenerEv @2491
    _ZNK2sf11SoundSource8getPitchEv @2492
    _ZNK2sf11SoundSource9getStatusEv @2493
    _ZNK2sf11SoundSource9getVolumeEv @2494
    _ZNK2sf11SoundStream13getSampleRateEv @2495
    _ZNK2sf11SoundStream15getChannelCountEv @2496
    _ZNK2sf11SoundStream16getPlayingOffsetEv @2497
    _ZNK2sf11SoundStream7getLoopEv @2498
    _ZNK2sf11SoundStream9getStatusEv @2499
    _ZNK2sf11ThreadLocal8getValueEv @2500
    _ZNK2sf11VertexArray14getVertexCountEv @2501
    _ZNK2sf11VertexArray16getPrimitiveTypeEv @2502
    _ZNK2sf11VertexArray4drawERNS_12RenderTargetENS_12RenderStatesE @2503
    _ZNK2sf11VertexArray9getBoundsEv @2504
    _ZNK2sf11VertexArrayixEj @2505
    _ZNK2sf12RenderTarget11getViewportERKNS_4ViewE @2506
    _ZNK2sf12RenderTarget14getDefaultViewEv @2507
    _ZNK2sf12RenderTarget16mapCoordsToPixelERKNS_7Vector2IfEE @2508
    _ZNK2sf12RenderTarget16mapCoordsToPixelERKNS_7Vector2IfEERKNS_4ViewE @2509
    _ZNK2sf12RenderTarget16mapPixelToCoordsERKNS_7Vector2IiEE @2510
    _ZNK2sf12RenderTarget16mapPixelToCoordsERKNS_7Vector2IiEERKNS_4ViewE @2511
    _ZNK2sf12RenderTarget7getViewEv @2512
    _ZNK2sf13Transformable11getPositionEv @2513
    _ZNK2sf13Transformable11getRotationEv @2514
    _ZNK2sf13Transformable12getTransformEv @2515
    _ZNK2sf13Transformable19getInverseTransformEv @2516
    _ZNK2sf13Transformable8getScaleEv @2517
    _ZNK2sf13Transformable9getOriginEv @2518
    _ZNK2sf14RectangleShape13getPointCountEv @2519
    _ZNK2sf14RectangleShape7getSizeEv @2520
    _ZNK2sf14RectangleShape8getPointEj @2521
    _ZNK2sf14ThreadLocalPtrINS_4priv9GlContextEEcvPS2_Ev @2522
    _ZNK2sf4Font10getKerningEjjj @2523
    _ZNK2sf4Font10getTextureEj @2524
    _ZNK2sf4Font13findGlyphRectERNS0_4PageEjj @2525
    _ZNK2sf4Font14getLineSpacingEj @2526
    _ZNK2sf4Font14setCurrentSizeEj @2527
    _ZNK2sf4Font8getGlyphEjjb @2528
    _ZNK2sf4Font9loadGlyphEjjb @2529
    _ZNK2sf4Text14getLocalBoundsEv @2530
    _ZNK2sf4Text15getGlobalBoundsEv @2531
    _ZNK2sf4Text16findCharacterPosEj @2532
    _ZNK2sf4Text16getCharacterSizeEv @2533
    _ZNK2sf4Text4drawERNS_12RenderTargetENS_12RenderStatesE @2534
    _ZNK2sf4Text7getFontEv @2535
    _ZNK2sf4Text8getColorEv @2536
    _ZNK2sf4Text8getStyleEv @2537
    _ZNK2sf4Text9getStringEv @2538
    _ZNK2sf4Time14asMicrosecondsEv @2539
    _ZNK2sf4Time14asMillisecondsEv @2540
    _ZNK2sf4Time9asSecondsEv @2541
    _ZNK2sf4View11getRotationEv @2542
    _ZNK2sf4View11getViewportEv @2543
    _ZNK2sf4View12getTransformEv @2544
    _ZNK2sf4View19getInverseTransformEv @2545
    _ZNK2sf4View7getSizeEv @2546
    _ZNK2sf4View9getCenterEv @2547
    _ZNK2sf4priv12JoystickImpl15getCapabilitiesEv @2548
    _ZNK2sf4priv15JoystickManager15getCapabilitiesEj @2549
    _ZNK2sf4priv15JoystickManager8getStateEj @2550
    _ZNK2sf4priv15ThreadLocalImpl8getValueEv @2551
    _ZNK2sf4priv15WindowImplWin3211getPositionEv @2552
    _ZNK2sf4priv15WindowImplWin3215getSystemHandleEv @2553
    _ZNK2sf4priv15WindowImplWin327getSizeEv @2554
    _ZNK2sf4priv9GlContext11getSettingsEv @2555
    _ZNK2sf4priv9SoundFile13getSampleRateEv @2556
    _ZNK2sf4priv9SoundFile14getSampleCountEv @2557
    _ZNK2sf4priv9SoundFile15getChannelCountEv @2558
    _ZNK2sf5Clock14getElapsedTimeEv @2559
    _ZNK2sf5Image10saveToFileERKSs @2560
    _ZNK2sf5Image12getPixelsPtrEv @2561
    _ZNK2sf5Image7getSizeEv @2562
    _ZNK2sf5Image8getPixelEjj @2563
    _ZNK2sf5Music11getDurationEv @2564
    _ZNK2sf5Shape10getTextureEv @2565
    _ZNK2sf5Shape12getFillColorEv @2566
    _ZNK2sf5Shape14getLocalBoundsEv @2567
    _ZNK2sf5Shape14getTextureRectEv @2568
    _ZNK2sf5Shape15getGlobalBoundsEv @2569
    _ZNK2sf5Shape15getOutlineColorEv @2570
    _ZNK2sf5Shape19getOutlineThicknessEv @2571
    _ZNK2sf5Shape4drawERNS_12RenderTargetENS_12RenderStatesE @2572
    _ZNK2sf5Sound16getPlayingOffsetEv @2573
    _ZNK2sf5Sound7getLoopEv @2574
    _ZNK2sf5Sound9getBufferEv @2575
    _ZNK2sf5Sound9getStatusEv @2576
    _ZNK2sf6Shader12bindTexturesEv @2577
    _ZNK2sf6String12toAnsiStringERKSt6locale @2578
    _ZNK2sf6String12toWideStringEv @2579
    _ZNK2sf6String3endEv @2580
    _ZNK2sf6String4findERKS0_j @2581
    _ZNK2sf6String5beginEv @2582
    _ZNK2sf6String7getDataEv @2583
    _ZNK2sf6String7getSizeEv @2584
    _ZNK2sf6String7isEmptyEv @2585
    _ZNK2sf6StringcvSbIwSt11char_traitsIwESaIwEEEv @2586
    _ZNK2sf6StringcvSsEv @2587
    _ZNK2sf6StringixEj @2588
    _ZNK2sf6Window11getPositionEv @2589
    _ZNK2sf6Window11getSettingsEv @2590
    _ZNK2sf6Window15getSystemHandleEv @2591
    _ZNK2sf6Window6isOpenEv @2592
    _ZNK2sf6Window7getSizeEv @2593
    _ZNK2sf6Window9setActiveEb @2594
    _ZNK2sf7Texture10isRepeatedEv @2595
    _ZNK2sf7Texture11copyToImageEv @2596
    _ZNK2sf7Texture7getSizeEv @2597
    _ZNK2sf7Texture8isSmoothEv @2598
    _ZNK2sf9Transform10getInverseEv @2599
    _ZNK2sf9Transform13transformRectERKNS_4RectIfEE @2600
    _ZNK2sf9Transform14transformPointERKNS_7Vector2IfEE @2601
    _ZNK2sf9Transform14transformPointEff @2602
    _ZNK2sf9Transform9getMatrixEv @2603
    _ZNK2sf9VideoMode7isValidEv @2604
    _ZNK4Json12StaticString5c_strEv @2605
    _ZNK4Json12StaticStringcvPKcEv @2606
    _ZNK4Json17ValueIteratorBase10memberNameEv @2607
    _ZNK4Json17ValueIteratorBase15computeDistanceERKS0_ @2608
    _ZNK4Json17ValueIteratorBase3keyEv @2609
    _ZNK4Json17ValueIteratorBase5derefEv @2610
    _ZNK4Json17ValueIteratorBase5indexEv @2611
    _ZNK4Json17ValueIteratorBase7isEqualERKS0_ @2612
    _ZNK4Json4Path4makeERNS_5ValueE @2613
    _ZNK4Json4Path7resolveERKNS_5ValueE @2614
    _ZNK4Json4Path7resolveERKNS_5ValueES3_ @2615
    _ZNK4Json5Value10getCommentENS_16CommentPlacementE @2616
    _ZNK4Json5Value10hasCommentENS_16CommentPlacementE @2617
    _ZNK4Json5Value10isIntegralEv @2618
    _ZNK4Json5Value12isValidIndexEj @2619
    _ZNK4Json5Value14getMemberNamesEv @2620
    _ZNK4Json5Value14toStyledStringEv @2621
    _ZNK4Json5Value15isConvertibleToENS_9ValueTypeE @2622
    _ZNK4Json5Value3endEv @2623
    _ZNK4Json5Value3getEPKcRKS0_ @2624
    _ZNK4Json5Value3getERKSsRKS0_ @2625
    _ZNK4Json5Value3getEjRKS0_ @2626
    _ZNK4Json5Value4sizeEv @2627
    _ZNK4Json5Value4typeEv @2628
    _ZNK4Json5Value5asIntEv @2629
    _ZNK4Json5Value5beginEv @2630
    _ZNK4Json5Value5emptyEv @2631
    _ZNK4Json5Value5isIntEv @2632
    _ZNK4Json5Value6asBoolEv @2633
    _ZNK4Json5Value6asUIntEv @2634
    _ZNK4Json5Value6isBoolEv @2635
    _ZNK4Json5Value6isNullEv @2636
    _ZNK4Json5Value6isUIntEv @2637
    _ZNK4Json5Value7isArrayEv @2638
    _ZNK4Json5Value8CZString14isStaticStringEv @2639
    _ZNK4Json5Value8CZString5c_strEv @2640
    _ZNK4Json5Value8CZString5indexEv @2641
    _ZNK4Json5Value8CZStringeqERKS1_ @2642
    _ZNK4Json5Value8CZStringltERKS1_ @2643
    _ZNK4Json5Value8asDoubleEv @2644
    _ZNK4Json5Value8asStringEv @2645
    _ZNK4Json5Value8isDoubleEv @2646
    _ZNK4Json5Value8isMemberEPKc @2647
    _ZNK4Json5Value8isMemberERKSs @2648
    _ZNK4Json5Value8isObjectEv @2649
    _ZNK4Json5Value8isStringEv @2650
    _ZNK4Json5Value9asCStringEv @2651
    _ZNK4Json5Value9isNumericEv @2652
    _ZNK4Json5ValueeqERKS0_ @2653
    _ZNK4Json5ValuegeERKS0_ @2654
    _ZNK4Json5ValuegtERKS0_ @2655
    _ZNK4Json5ValueixEPKc @2656
    _ZNK4Json5ValueixERKSs @2657
    _ZNK4Json5ValueixEj @2658
    _ZNK4Json5ValueleERKS0_ @2659
    _ZNK4Json5ValueltERKS0_ @2660
    _ZNK4Json5ValueneERKS0_ @2661
    _ZNK4Json5ValuentEv @2662
    _ZNK4Json6Reader24getFormatedErrorMessagesEv @2663
    _ZNK4Json6Reader24getLocationLineAndColumnEPKc @2664
    _ZNK4Json6Reader24getLocationLineAndColumnEPKcRiS3_ @2665
    _ZNK6XeCore6Common6String7explodeEPKcRjbcS3_ @2666
    _ZNK6b2AABB10GetExtentsEv @2667
    _ZNK6b2AABB12GetPerimeterEv @2668
    _ZNK6b2AABB7RayCastEP15b2RayCastOutputRK14b2RayCastInput @2669
    _ZNK6b2AABB8ContainsERKS_ @2670
    _ZNK6b2AABB9GetCenterEv @2671
    _ZNK6b2Body11GetPositionEv @2672
    _ZNK6b2Body12GetTransformEv @2673
    _ZNK6b2Body13GetLocalPointERK6b2Vec2 @2674
    _ZNK6b2Body13GetWorldPointERK6b2Vec2 @2675
    _ZNK6b2Body13ShouldCollideEPKS_ @2676
    _ZNK6b2Body14GetLocalVectorERK6b2Vec2 @2677
    _ZNK6b2Body14GetWorldCenterEv @2678
    _ZNK6b2Body14GetWorldVectorERK6b2Vec2 @2679
    _ZNK6b2Body15GetGravityScaleEv @2680
    _ZNK6b2Body15IsFixedRotationEv @2681
    _ZNK6b2Body16GetLinearDampingEv @2682
    _ZNK6b2Body17GetAngularDampingEv @2683
    _ZNK6b2Body17GetLinearVelocityEv @2684
    _ZNK6b2Body17IsSleepingAllowedEv @2685
    _ZNK6b2Body18GetAngularVelocityEv @2686
    _ZNK6b2Body7GetMassEv @2687
    _ZNK6b2Body7GetTypeEv @2688
    _ZNK6b2Body7IsAwakeEv @2689
    _ZNK6b2Body8GetAngleEv @2690
    _ZNK6b2Body8IsActiveEv @2691
    _ZNK6b2Body8IsBulletEv @2692
    _ZNK6b2Draw8GetFlagsEv @2693
    _ZNK6b2Vec213LengthSquaredEv @2694
    _ZNK6b2Vec26LengthEv @2695
    _ZNK6b2Vec27IsValidEv @2696
    _ZNK6b2Vec2clEi @2697
    _ZNK6b2Vec2ngEv @2698
    _ZNK6b2Vec3ngEv @2699
    _ZNK7b2Joint7GetTypeEv @2700
    _ZNK7b2Joint8IsActiveEv @2701
    _ZNK7b2Mat2210GetInverseEv @2702
    _ZNK7b2Mat225SolveERK6b2Vec2 @2703
    _ZNK7b2Mat3312GetInverse22EPS_ @2704
    _ZNK7b2Mat3315GetSymInverse33EPS_ @2705
    _ZNK7b2Mat337Solve22ERK6b2Vec2 @2706
    _ZNK7b2Mat337Solve33ERK6b2Vec3 @2707
    _ZNK7b2Shape7GetTypeEv @2708
    _ZNK7b2Sweep12GetTransformEP11b2Transformf @2709
    _ZNK7b2Timer15GetMillisecondsEv @2710
    _ZNK7b2World10GetGravityEv @2711
    _ZNK7b2World13GetProxyCountEv @2712
    _ZNK7b2World13GetTreeHeightEv @2713
    _ZNK7b2World14GetTreeBalanceEv @2714
    _ZNK7b2World14GetTreeQualityEv @2715
    _ZNK7b2World7RayCastEP17b2RayCastCallbackRK6b2Vec2S4_ @2716
    _ZNK7b2World8IsLockedEv @2717
    _ZNK7b2World9QueryAABBEP15b2QueryCallbackRK6b2AABB @2718
    _ZNK9__gnu_cxx13new_allocatorI6b2Vec2E8max_sizeEv @2719
    _ZNK9__gnu_cxx13new_allocatorIN2sf4Font3RowEE8max_sizeEv @2720
    _ZNK9__gnu_cxx13new_allocatorIN2sf5EventEE8max_sizeEv @2721
    _ZNK9__gnu_cxx13new_allocatorIN2sf6VertexEE8max_sizeEv @2722
    _ZNK9__gnu_cxx13new_allocatorIN2sf9VideoModeEE8max_sizeEv @2723
    _ZNK9__gnu_cxx13new_allocatorIN4Json12PathArgumentEE8max_sizeEv @2724
    _ZNK9__gnu_cxx13new_allocatorIN4Json6Reader9ErrorInfoEE8max_sizeEv @2725
    _ZNK9__gnu_cxx13new_allocatorIN6XeCore6Common6StringEE8max_sizeEv @2726
    _ZNK9__gnu_cxx13new_allocatorIPKN4Json12PathArgumentEE8max_sizeEv @2727
    _ZNK9__gnu_cxx13new_allocatorIPN2sf5EventEE8max_sizeEv @2728
    _ZNK9__gnu_cxx13new_allocatorIPN4Json5ValueEE8max_sizeEv @2729
    _ZNK9__gnu_cxx13new_allocatorIPN4Json6Reader9ErrorInfoEE8max_sizeEv @2730
    _ZNK9__gnu_cxx13new_allocatorIPPN4Json5ValueEE8max_sizeEv @2731
    _ZNK9__gnu_cxx13new_allocatorISsE8max_sizeEv @2732
    _ZNK9__gnu_cxx13new_allocatorISt10_List_nodeIPN9Ptakopysk10GameObjectEEE8max_sizeEv @2733
    _ZNK9__gnu_cxx13new_allocatorISt10_List_nodeIPN9Ptakopysk6Events5EventEEE8max_sizeEv @2734
    _ZNK9__gnu_cxx13new_allocatorISt13_Rb_tree_nodeIPN2sf4priv9GlContextEEE8max_sizeEv @2735
    _ZNK9__gnu_cxx13new_allocatorISt13_Rb_tree_nodeIPN2sf5SoundEEE8max_sizeEv @2736
    _ZNK9__gnu_cxx13new_allocatorISt13_Rb_tree_nodeISt4pairIKN4Json5Value8CZStringES4_EEE8max_sizeEv @2737
    _ZNK9__gnu_cxx13new_allocatorISt13_Rb_tree_nodeISt4pairIKSsN9Ptakopysk11GameManager20ComponentFactoryDataEEEE8max_sizeEv @2738
    _ZNK9__gnu_cxx13new_allocatorISt13_Rb_tree_nodeISt4pairIKSsPN2sf11SoundBufferEEEE8max_sizeEv @2739
    _ZNK9__gnu_cxx13new_allocatorISt13_Rb_tree_nodeISt4pairIKSsPN2sf4FontEEEE8max_sizeEv @2740
    _ZNK9__gnu_cxx13new_allocatorISt13_Rb_tree_nodeISt4pairIKSsPN2sf5MusicEEEE8max_sizeEv @2741
    _ZNK9__gnu_cxx13new_allocatorISt13_Rb_tree_nodeISt4pairIKSsPN2sf5SoundEEEE8max_sizeEv @2742
    _ZNK9__gnu_cxx13new_allocatorISt13_Rb_tree_nodeISt4pairIKSsPN2sf6ShaderEEEE8max_sizeEv @2743
    _ZNK9__gnu_cxx13new_allocatorISt13_Rb_tree_nodeISt4pairIKSsPN2sf7TextureEEEE8max_sizeEv @2744
    _ZNK9__gnu_cxx13new_allocatorISt13_Rb_tree_nodeISt4pairIKSsPN9Ptakopysk10Serialized17ICustomSerializerEEEE8max_sizeEv @2745
    _ZNK9__gnu_cxx13new_allocatorISt13_Rb_tree_nodeISt4pairIKSsSsEEE8max_sizeEv @2746
    _ZNK9__gnu_cxx13new_allocatorISt13_Rb_tree_nodeISt4pairIKSsiEEE8max_sizeEv @2747
    _ZNK9__gnu_cxx13new_allocatorISt13_Rb_tree_nodeISt4pairIKiPKN2sf7TextureEEEE8max_sizeEv @2748
    _ZNK9__gnu_cxx13new_allocatorISt13_Rb_tree_nodeISt4pairIKjN2sf4Font4PageEEEE8max_sizeEv @2749
    _ZNK9__gnu_cxx13new_allocatorISt13_Rb_tree_nodeISt4pairIKjN2sf5GlyphEEEE8max_sizeEv @2750
    _ZNK9__gnu_cxx13new_allocatorISt13_Rb_tree_nodeISt4pairIKjPN9Ptakopysk9ComponentEEEE8max_sizeEv @2751
    _ZNK9__gnu_cxx13new_allocatorIcE8max_sizeEv @2752
    _ZNK9__gnu_cxx13new_allocatorIhE8max_sizeEv @2753
    _ZNK9__gnu_cxx13new_allocatorIsE8max_sizeEv @2754
    _ZNK9__gnu_cxx17__normal_iteratorIP6b2Vec2St6vectorIS1_SaIS1_EEE4baseEv @2755
    _ZNK9__gnu_cxx17__normal_iteratorIP6b2Vec2St6vectorIS1_SaIS1_EEEdeEv @2756
    _ZNK9__gnu_cxx17__normal_iteratorIP6b2Vec2St6vectorIS1_SaIS1_EEEptEv @2757
    _ZNK9__gnu_cxx17__normal_iteratorIPK6b2Vec2St6vectorIS1_SaIS1_EEE4baseEv @2758
    _ZNK9__gnu_cxx17__normal_iteratorIPKN2sf4Font3RowESt6vectorIS3_SaIS3_EEE4baseEv @2759
    _ZNK9__gnu_cxx17__normal_iteratorIPKN2sf4Font3RowESt6vectorIS3_SaIS3_EEEdeEv @2760
    _ZNK9__gnu_cxx17__normal_iteratorIPKN2sf6VertexESt6vectorIS2_SaIS2_EEE4baseEv @2761
    _ZNK9__gnu_cxx17__normal_iteratorIPKN2sf9VideoModeESt6vectorIS2_SaIS2_EEE4baseEv @2762
    _ZNK9__gnu_cxx17__normal_iteratorIPKN2sf9VideoModeESt6vectorIS2_SaIS2_EEEdeEv @2763
    _ZNK9__gnu_cxx17__normal_iteratorIPKN4Json12PathArgumentESt6vectorIS2_SaIS2_EEE4baseEv @2764
    _ZNK9__gnu_cxx17__normal_iteratorIPKN4Json12PathArgumentESt6vectorIS2_SaIS2_EEEdeEv @2765
    _ZNK9__gnu_cxx17__normal_iteratorIPKPKN4Json12PathArgumentESt6vectorIS4_SaIS4_EEE4baseEv @2766
    _ZNK9__gnu_cxx17__normal_iteratorIPKPKN4Json12PathArgumentESt6vectorIS4_SaIS4_EEEdeEv @2767
    _ZNK9__gnu_cxx17__normal_iteratorIPKSsSt6vectorISsSaISsEEE4baseEv @2768
    _ZNK9__gnu_cxx17__normal_iteratorIPKSsSt6vectorISsSaISsEEEdeEv @2769
    _ZNK9__gnu_cxx17__normal_iteratorIPKcSsE4baseEv @2770
    _ZNK9__gnu_cxx17__normal_iteratorIPKcSsEdeEv @2771
    _ZNK9__gnu_cxx17__normal_iteratorIPKhSt6vectorIhSaIhEEE4baseEv @2772
    _ZNK9__gnu_cxx17__normal_iteratorIPKjSbIjSt11char_traitsIjESaIjEEE4baseEv @2773
    _ZNK9__gnu_cxx17__normal_iteratorIPKjSbIjSt11char_traitsIjESaIjEEEdeEv @2774
    _ZNK9__gnu_cxx17__normal_iteratorIPKsSt6vectorIsSaIsEEE4baseEv @2775
    _ZNK9__gnu_cxx17__normal_iteratorIPKwSbIwSt11char_traitsIwESaIwEEE4baseEv @2776
    _ZNK9__gnu_cxx17__normal_iteratorIPKwSbIwSt11char_traitsIwESaIwEEEdeEv @2777
    _ZNK9__gnu_cxx17__normal_iteratorIPN2sf4Font3RowESt6vectorIS3_SaIS3_EEE4baseEv @2778
    _ZNK9__gnu_cxx17__normal_iteratorIPN2sf4Font3RowESt6vectorIS3_SaIS3_EEEdeEv @2779
    _ZNK9__gnu_cxx17__normal_iteratorIPN2sf4Font3RowESt6vectorIS3_SaIS3_EEEmiERKi @2780
    _ZNK9__gnu_cxx17__normal_iteratorIPN2sf4Font3RowESt6vectorIS3_SaIS3_EEEptEv @2781
    _ZNK9__gnu_cxx17__normal_iteratorIPN2sf6VertexESt6vectorIS2_SaIS2_EEE4baseEv @2782
    _ZNK9__gnu_cxx17__normal_iteratorIPN2sf6VertexESt6vectorIS2_SaIS2_EEEdeEv @2783
    _ZNK9__gnu_cxx17__normal_iteratorIPN2sf9VideoModeESt6vectorIS2_SaIS2_EEE4baseEv @2784
    _ZNK9__gnu_cxx17__normal_iteratorIPN2sf9VideoModeESt6vectorIS2_SaIS2_EEEdeEv @2785
    _ZNK9__gnu_cxx17__normal_iteratorIPN2sf9VideoModeESt6vectorIS2_SaIS2_EEEmiERKi @2786
    _ZNK9__gnu_cxx17__normal_iteratorIPN2sf9VideoModeESt6vectorIS2_SaIS2_EEEplERKi @2787
    _ZNK9__gnu_cxx17__normal_iteratorIPN4Json12PathArgumentESt6vectorIS2_SaIS2_EEE4baseEv @2788
    _ZNK9__gnu_cxx17__normal_iteratorIPN4Json12PathArgumentESt6vectorIS2_SaIS2_EEEdeEv @2789
    _ZNK9__gnu_cxx17__normal_iteratorIPN6XeCore6Common6StringESt6vectorIS3_SaIS3_EEE4baseEv @2790
    _ZNK9__gnu_cxx17__normal_iteratorIPN6XeCore6Common6StringESt6vectorIS3_SaIS3_EEEdeEv @2791
    _ZNK9__gnu_cxx17__normal_iteratorIPPKN4Json12PathArgumentESt6vectorIS4_SaIS4_EEE4baseEv @2792
    _ZNK9__gnu_cxx17__normal_iteratorIPPKN4Json12PathArgumentESt6vectorIS4_SaIS4_EEEdeEv @2793
    _ZNK9__gnu_cxx17__normal_iteratorIPSsSt6vectorISsSaISsEEE4baseEv @2794
    _ZNK9__gnu_cxx17__normal_iteratorIPSsSt6vectorISsSaISsEEEdeEv @2795
    _ZNK9__gnu_cxx17__normal_iteratorIPcSsE4baseEv @2796
    _ZNK9__gnu_cxx17__normal_iteratorIPcSsEdeEv @2797
    _ZNK9__gnu_cxx17__normal_iteratorIPcSt6vectorIcSaIcEEE4baseEv @2798
    _ZNK9__gnu_cxx17__normal_iteratorIPcSt6vectorIcSaIcEEEdeEv @2799
    _ZNK9__gnu_cxx17__normal_iteratorIPhSt6vectorIhSaIhEEE4baseEv @2800
    _ZNK9__gnu_cxx17__normal_iteratorIPsSt6vectorIsSaIsEEE4baseEv @2801
    _ZNK9b2Contact10IsTouchingEv @2802
    _ZNK9b2Contact14GetChildIndexAEv @2803
    _ZNK9b2Contact14GetChildIndexBEv @2804
    _ZNK9b2Contact9IsEnabledEv @2805
    _ZNK9b2Fixture10GetDensityEv @2806
    _ZNK9b2Fixture11GetMassDataEP10b2MassData @2807
    _ZNK9b2Fixture13GetFilterDataEv @2808
    _ZNK9b2Fixture7GetTypeEv @2809
    _ZNK9b2Fixture7RayCastEP15b2RayCastOutputRK14b2RayCastInputi @2810
    _ZNK9b2Fixture8IsSensorEv @2811
    _ZNK9b2Simplex10WriteCacheEP14b2SimplexCache @2812
    _ZNK9b2Simplex15GetClosestPointEv @2813
    _ZNK9b2Simplex16GetWitnessPointsEP6b2Vec2S1_ @2814
    _ZNK9b2Simplex18GetSearchDirectionEv @2815
    _ZNK9b2Simplex9GetMetricEv @2816
    _ZNKSbIjSt11char_traitsIjESaIjEE11_M_disjunctEPKj @2817
    _ZNKSbIjSt11char_traitsIjESaIjEE13get_allocatorEv @2818
    _ZNKSbIjSt11char_traitsIjESaIjEE15_M_check_lengthEjjPKc @2819
    _ZNKSbIjSt11char_traitsIjESaIjEE3endEv @2820
    _ZNKSbIjSt11char_traitsIjESaIjEE4_Rep12_M_is_leakedEv @2821
    _ZNKSbIjSt11char_traitsIjESaIjEE4_Rep12_M_is_sharedEv @2822
    _ZNKSbIjSt11char_traitsIjESaIjEE4dataEv @2823
    _ZNKSbIjSt11char_traitsIjESaIjEE4findEPKjjj @2824
    _ZNKSbIjSt11char_traitsIjESaIjEE4findERKS2_j @2825
    _ZNKSbIjSt11char_traitsIjESaIjEE4sizeEv @2826
    _ZNKSbIjSt11char_traitsIjESaIjEE5beginEv @2827
    _ZNKSbIjSt11char_traitsIjESaIjEE5c_strEv @2828
    _ZNKSbIjSt11char_traitsIjESaIjEE5emptyEv @2829
    _ZNKSbIjSt11char_traitsIjESaIjEE6_M_repEv @2830
    _ZNKSbIjSt11char_traitsIjESaIjEE6lengthEv @2831
    _ZNKSbIjSt11char_traitsIjESaIjEE7_M_dataEv @2832
    _ZNKSbIjSt11char_traitsIjESaIjEE7compareERKS2_ @2833
    _ZNKSbIjSt11char_traitsIjESaIjEE8_M_checkEjPKc @2834
    _ZNKSbIjSt11char_traitsIjESaIjEE8_M_limitEjj @2835
    _ZNKSbIjSt11char_traitsIjESaIjEE8capacityEv @2836
    _ZNKSbIjSt11char_traitsIjESaIjEE8max_sizeEv @2837
    _ZNKSbIjSt11char_traitsIjESaIjEEixEj @2838
    _ZNKSt10_List_baseIPN9Ptakopysk10GameObjectESaIS2_EE19_M_get_Tp_allocatorEv @2839
    _ZNKSt10_List_baseIPN9Ptakopysk10GameObjectESaIS2_EE21_M_get_Node_allocatorEv @2840
    _ZNKSt10_List_baseIPN9Ptakopysk6Events5EventESaIS3_EE19_M_get_Tp_allocatorEv @2841
    _ZNKSt10_List_baseIPN9Ptakopysk6Events5EventESaIS3_EE21_M_get_Node_allocatorEv @2842
    _ZNKSt10_Select1stISt4pairIKN4Json5Value8CZStringES2_EEclERKS5_ @2843
    _ZNKSt10_Select1stISt4pairIKSsN9Ptakopysk11GameManager20ComponentFactoryDataEEEclERKS5_ @2844
    _ZNKSt10_Select1stISt4pairIKSsPN2sf11SoundBufferEEEclERKS5_ @2845
    _ZNKSt10_Select1stISt4pairIKSsPN2sf4FontEEEclERKS5_ @2846
    _ZNKSt10_Select1stISt4pairIKSsPN2sf5MusicEEEclERKS5_ @2847
    _ZNKSt10_Select1stISt4pairIKSsPN2sf5SoundEEEclERKS5_ @2848
    _ZNKSt10_Select1stISt4pairIKSsPN2sf6ShaderEEEclERKS5_ @2849
    _ZNKSt10_Select1stISt4pairIKSsPN2sf7TextureEEEclERKS5_ @2850
    _ZNKSt10_Select1stISt4pairIKSsPN9Ptakopysk10Serialized17ICustomSerializerEEEclERKS6_ @2851
    _ZNKSt10_Select1stISt4pairIKSsSsEEclERKS2_ @2852
    _ZNKSt10_Select1stISt4pairIKSsiEEclERKS2_ @2853
    _ZNKSt10_Select1stISt4pairIKiPKN2sf7TextureEEEclERKS6_ @2854
    _ZNKSt10_Select1stISt4pairIKjN2sf4Font4PageEEEclERKS5_ @2855
    _ZNKSt10_Select1stISt4pairIKjN2sf5GlyphEEEclERKS4_ @2856
    _ZNKSt10_Select1stISt4pairIKjPN9Ptakopysk9ComponentEEEclERKS5_ @2857
    _ZNKSt11_Deque_baseIN2sf5EventESaIS1_EE19_M_get_Tp_allocatorEv @2858
    _ZNKSt11_Deque_baseIN2sf5EventESaIS1_EE20_M_get_map_allocatorEv @2859
    _ZNKSt11_Deque_baseIN4Json6Reader9ErrorInfoESaIS2_EE19_M_get_Tp_allocatorEv @2860
    _ZNKSt11_Deque_baseIN4Json6Reader9ErrorInfoESaIS2_EE20_M_get_map_allocatorEv @2861
    _ZNKSt11_Deque_baseIPN4Json5ValueESaIS2_EE19_M_get_Tp_allocatorEv @2862
    _ZNKSt11_Deque_baseIPN4Json5ValueESaIS2_EE20_M_get_map_allocatorEv @2863
    _ZNKSt12_Vector_baseI6b2Vec2SaIS0_EE19_M_get_Tp_allocatorEv @2864
    _ZNKSt12_Vector_baseIN2sf4Font3RowESaIS2_EE19_M_get_Tp_allocatorEv @2865
    _ZNKSt12_Vector_baseIN2sf6VertexESaIS1_EE19_M_get_Tp_allocatorEv @2866
    _ZNKSt12_Vector_baseIN2sf9VideoModeESaIS1_EE19_M_get_Tp_allocatorEv @2867
    _ZNKSt12_Vector_baseIN4Json12PathArgumentESaIS1_EE19_M_get_Tp_allocatorEv @2868
    _ZNKSt12_Vector_baseIN6XeCore6Common6StringESaIS2_EE19_M_get_Tp_allocatorEv @2869
    _ZNKSt12_Vector_baseIPKN4Json12PathArgumentESaIS3_EE19_M_get_Tp_allocatorEv @2870
    _ZNKSt12_Vector_baseISsSaISsEE19_M_get_Tp_allocatorEv @2871
    _ZNKSt12_Vector_baseIcSaIcEE19_M_get_Tp_allocatorEv @2872
    _ZNKSt12_Vector_baseIhSaIhEE19_M_get_Tp_allocatorEv @2873
    _ZNKSt12_Vector_baseIsSaIsEE19_M_get_Tp_allocatorEv @2874
    _ZNKSt14_List_iteratorIPN9Ptakopysk10GameObjectEEdeEv @2875
    _ZNKSt14_List_iteratorIPN9Ptakopysk10GameObjectEEeqERKS3_ @2876
    _ZNKSt14_List_iteratorIPN9Ptakopysk10GameObjectEEneERKS3_ @2877
    _ZNKSt14_List_iteratorIPN9Ptakopysk6Events5EventEEdeEv @2878
    _ZNKSt14_List_iteratorIPN9Ptakopysk6Events5EventEEneERKS4_ @2879
    _ZNKSt15_Deque_iteratorIN2sf5EventERKS1_PS2_EdeEv @2880
    _ZNKSt15_Deque_iteratorIN2sf5EventERS1_PS1_EdeEv @2881
    _ZNKSt15_Deque_iteratorIN4Json6Reader9ErrorInfoERKS2_PS3_EdeEv @2882
    _ZNKSt15_Deque_iteratorIN4Json6Reader9ErrorInfoERS2_PS2_EdeEv @2883
    _ZNKSt15_Deque_iteratorIN4Json6Reader9ErrorInfoERS2_PS2_EmiEi @2884
    _ZNKSt15_Deque_iteratorIN4Json6Reader9ErrorInfoERS2_PS2_EplEi @2885
    _ZNKSt15_Deque_iteratorIPN4Json5ValueERKS2_PS3_EdeEv @2886
    _ZNKSt15_Deque_iteratorIPN4Json5ValueERS2_PS2_EdeEv @2887
    _ZNKSt17_Rb_tree_iteratorIPN2sf4priv9GlContextEEeqERKS4_ @2888
    _ZNKSt17_Rb_tree_iteratorIPN2sf5SoundEEeqERKS3_ @2889
    _ZNKSt17_Rb_tree_iteratorISt4pairIKN4Json5Value8CZStringES2_EEdeEv @2890
    _ZNKSt17_Rb_tree_iteratorISt4pairIKN4Json5Value8CZStringES2_EEeqERKS6_ @2891
    _ZNKSt17_Rb_tree_iteratorISt4pairIKN4Json5Value8CZStringES2_EEneERKS6_ @2892
    _ZNKSt17_Rb_tree_iteratorISt4pairIKN4Json5Value8CZStringES2_EEptEv @2893
    _ZNKSt17_Rb_tree_iteratorISt4pairIKSsN9Ptakopysk11GameManager20ComponentFactoryDataEEEdeEv @2894
    _ZNKSt17_Rb_tree_iteratorISt4pairIKSsN9Ptakopysk11GameManager20ComponentFactoryDataEEEeqERKS6_ @2895
    _ZNKSt17_Rb_tree_iteratorISt4pairIKSsN9Ptakopysk11GameManager20ComponentFactoryDataEEEneERKS6_ @2896
    _ZNKSt17_Rb_tree_iteratorISt4pairIKSsN9Ptakopysk11GameManager20ComponentFactoryDataEEEptEv @2897
    _ZNKSt17_Rb_tree_iteratorISt4pairIKSsPN2sf11SoundBufferEEEdeEv @2898
    _ZNKSt17_Rb_tree_iteratorISt4pairIKSsPN2sf11SoundBufferEEEeqERKS6_ @2899
    _ZNKSt17_Rb_tree_iteratorISt4pairIKSsPN2sf11SoundBufferEEEneERKS6_ @2900
    _ZNKSt17_Rb_tree_iteratorISt4pairIKSsPN2sf11SoundBufferEEEptEv @2901
    _ZNKSt17_Rb_tree_iteratorISt4pairIKSsPN2sf4FontEEEdeEv @2902
    _ZNKSt17_Rb_tree_iteratorISt4pairIKSsPN2sf4FontEEEeqERKS6_ @2903
    _ZNKSt17_Rb_tree_iteratorISt4pairIKSsPN2sf4FontEEEneERKS6_ @2904
    _ZNKSt17_Rb_tree_iteratorISt4pairIKSsPN2sf4FontEEEptEv @2905
    _ZNKSt17_Rb_tree_iteratorISt4pairIKSsPN2sf5MusicEEEdeEv @2906
    _ZNKSt17_Rb_tree_iteratorISt4pairIKSsPN2sf5MusicEEEeqERKS6_ @2907
    _ZNKSt17_Rb_tree_iteratorISt4pairIKSsPN2sf5MusicEEEneERKS6_ @2908
    _ZNKSt17_Rb_tree_iteratorISt4pairIKSsPN2sf5MusicEEEptEv @2909
    _ZNKSt17_Rb_tree_iteratorISt4pairIKSsPN2sf5SoundEEEdeEv @2910
    _ZNKSt17_Rb_tree_iteratorISt4pairIKSsPN2sf5SoundEEEeqERKS6_ @2911
    _ZNKSt17_Rb_tree_iteratorISt4pairIKSsPN2sf5SoundEEEneERKS6_ @2912
    _ZNKSt17_Rb_tree_iteratorISt4pairIKSsPN2sf5SoundEEEptEv @2913
    _ZNKSt17_Rb_tree_iteratorISt4pairIKSsPN2sf6ShaderEEEdeEv @2914
    _ZNKSt17_Rb_tree_iteratorISt4pairIKSsPN2sf6ShaderEEEeqERKS6_ @2915
    _ZNKSt17_Rb_tree_iteratorISt4pairIKSsPN2sf6ShaderEEEneERKS6_ @2916
    _ZNKSt17_Rb_tree_iteratorISt4pairIKSsPN2sf6ShaderEEEptEv @2917
    _ZNKSt17_Rb_tree_iteratorISt4pairIKSsPN2sf7TextureEEEdeEv @2918
    _ZNKSt17_Rb_tree_iteratorISt4pairIKSsPN2sf7TextureEEEeqERKS6_ @2919
    _ZNKSt17_Rb_tree_iteratorISt4pairIKSsPN2sf7TextureEEEneERKS6_ @2920
    _ZNKSt17_Rb_tree_iteratorISt4pairIKSsPN2sf7TextureEEEptEv @2921
    _ZNKSt17_Rb_tree_iteratorISt4pairIKSsPN9Ptakopysk10Serialized17ICustomSerializerEEEdeEv @2922
    _ZNKSt17_Rb_tree_iteratorISt4pairIKSsPN9Ptakopysk10Serialized17ICustomSerializerEEEeqERKS7_ @2923
    _ZNKSt17_Rb_tree_iteratorISt4pairIKSsPN9Ptakopysk10Serialized17ICustomSerializerEEEneERKS7_ @2924
    _ZNKSt17_Rb_tree_iteratorISt4pairIKSsPN9Ptakopysk10Serialized17ICustomSerializerEEEptEv @2925
    _ZNKSt17_Rb_tree_iteratorISt4pairIKSsSsEEdeEv @2926
    _ZNKSt17_Rb_tree_iteratorISt4pairIKSsSsEEeqERKS3_ @2927
    _ZNKSt17_Rb_tree_iteratorISt4pairIKSsSsEEneERKS3_ @2928
    _ZNKSt17_Rb_tree_iteratorISt4pairIKSsSsEEptEv @2929
    _ZNKSt17_Rb_tree_iteratorISt4pairIKSsiEEdeEv @2930
    _ZNKSt17_Rb_tree_iteratorISt4pairIKSsiEEeqERKS3_ @2931
    _ZNKSt17_Rb_tree_iteratorISt4pairIKSsiEEneERKS3_ @2932
    _ZNKSt17_Rb_tree_iteratorISt4pairIKSsiEEptEv @2933
    _ZNKSt17_Rb_tree_iteratorISt4pairIKiPKN2sf7TextureEEEdeEv @2934
    _ZNKSt17_Rb_tree_iteratorISt4pairIKiPKN2sf7TextureEEEeqERKS7_ @2935
    _ZNKSt17_Rb_tree_iteratorISt4pairIKiPKN2sf7TextureEEEptEv @2936
    _ZNKSt17_Rb_tree_iteratorISt4pairIKjN2sf4Font4PageEEEdeEv @2937
    _ZNKSt17_Rb_tree_iteratorISt4pairIKjN2sf4Font4PageEEEeqERKS6_ @2938
    _ZNKSt17_Rb_tree_iteratorISt4pairIKjN2sf5GlyphEEEeqERKS5_ @2939
    _ZNKSt17_Rb_tree_iteratorISt4pairIKjN2sf5GlyphEEEptEv @2940
    _ZNKSt17_Rb_tree_iteratorISt4pairIKjPN9Ptakopysk9ComponentEEEdeEv @2941
    _ZNKSt17_Rb_tree_iteratorISt4pairIKjPN9Ptakopysk9ComponentEEEeqERKS6_ @2942
    _ZNKSt17_Rb_tree_iteratorISt4pairIKjPN9Ptakopysk9ComponentEEEneERKS6_ @2943
    _ZNKSt17_Rb_tree_iteratorISt4pairIKjPN9Ptakopysk9ComponentEEEptEv @2944
    _ZNKSt23_Rb_tree_const_iteratorIPN2sf4priv9GlContextEEdeEv @2945
    _ZNKSt23_Rb_tree_const_iteratorIPN2sf4priv9GlContextEEneERKS4_ @2946
    _ZNKSt23_Rb_tree_const_iteratorIPN2sf5SoundEEdeEv @2947
    _ZNKSt23_Rb_tree_const_iteratorIPN2sf5SoundEEeqERKS3_ @2948
    _ZNKSt23_Rb_tree_const_iteratorIPN2sf5SoundEEneERKS3_ @2949
    _ZNKSt23_Rb_tree_const_iteratorISt4pairIKN4Json5Value8CZStringES2_EE13_M_const_castEv @2950
    _ZNKSt23_Rb_tree_const_iteratorISt4pairIKN4Json5Value8CZStringES2_EEdeEv @2951
    _ZNKSt23_Rb_tree_const_iteratorISt4pairIKN4Json5Value8CZStringES2_EEeqERKS6_ @2952
    _ZNKSt23_Rb_tree_const_iteratorISt4pairIKN4Json5Value8CZStringES2_EEneERKS6_ @2953
    _ZNKSt23_Rb_tree_const_iteratorISt4pairIKSsN9Ptakopysk11GameManager20ComponentFactoryDataEEE13_M_const_castEv @2954
    _ZNKSt23_Rb_tree_const_iteratorISt4pairIKSsN9Ptakopysk11GameManager20ComponentFactoryDataEEEeqERKS6_ @2955
    _ZNKSt23_Rb_tree_const_iteratorISt4pairIKSsN9Ptakopysk11GameManager20ComponentFactoryDataEEEneERKS6_ @2956
    _ZNKSt23_Rb_tree_const_iteratorISt4pairIKSsPN2sf11SoundBufferEEE13_M_const_castEv @2957
    _ZNKSt23_Rb_tree_const_iteratorISt4pairIKSsPN2sf11SoundBufferEEEeqERKS6_ @2958
    _ZNKSt23_Rb_tree_const_iteratorISt4pairIKSsPN2sf11SoundBufferEEEneERKS6_ @2959
    _ZNKSt23_Rb_tree_const_iteratorISt4pairIKSsPN2sf4FontEEE13_M_const_castEv @2960
    _ZNKSt23_Rb_tree_const_iteratorISt4pairIKSsPN2sf4FontEEEeqERKS6_ @2961
    _ZNKSt23_Rb_tree_const_iteratorISt4pairIKSsPN2sf4FontEEEneERKS6_ @2962
    _ZNKSt23_Rb_tree_const_iteratorISt4pairIKSsPN2sf5MusicEEE13_M_const_castEv @2963
    _ZNKSt23_Rb_tree_const_iteratorISt4pairIKSsPN2sf5MusicEEEeqERKS6_ @2964
    _ZNKSt23_Rb_tree_const_iteratorISt4pairIKSsPN2sf5MusicEEEneERKS6_ @2965
    _ZNKSt23_Rb_tree_const_iteratorISt4pairIKSsPN2sf5SoundEEE13_M_const_castEv @2966
    _ZNKSt23_Rb_tree_const_iteratorISt4pairIKSsPN2sf5SoundEEEeqERKS6_ @2967
    _ZNKSt23_Rb_tree_const_iteratorISt4pairIKSsPN2sf5SoundEEEneERKS6_ @2968
    _ZNKSt23_Rb_tree_const_iteratorISt4pairIKSsPN2sf6ShaderEEE13_M_const_castEv @2969
    _ZNKSt23_Rb_tree_const_iteratorISt4pairIKSsPN2sf6ShaderEEEeqERKS6_ @2970
    _ZNKSt23_Rb_tree_const_iteratorISt4pairIKSsPN2sf6ShaderEEEneERKS6_ @2971
    _ZNKSt23_Rb_tree_const_iteratorISt4pairIKSsPN2sf7TextureEEE13_M_const_castEv @2972
    _ZNKSt23_Rb_tree_const_iteratorISt4pairIKSsPN2sf7TextureEEEeqERKS6_ @2973
    _ZNKSt23_Rb_tree_const_iteratorISt4pairIKSsPN2sf7TextureEEEneERKS6_ @2974
    _ZNKSt23_Rb_tree_const_iteratorISt4pairIKSsPN9Ptakopysk10Serialized17ICustomSerializerEEE13_M_const_castEv @2975
    _ZNKSt23_Rb_tree_const_iteratorISt4pairIKSsPN9Ptakopysk10Serialized17ICustomSerializerEEEeqERKS7_ @2976
    _ZNKSt23_Rb_tree_const_iteratorISt4pairIKSsPN9Ptakopysk10Serialized17ICustomSerializerEEEneERKS7_ @2977
    _ZNKSt23_Rb_tree_const_iteratorISt4pairIKSsSsEE13_M_const_castEv @2978
    _ZNKSt23_Rb_tree_const_iteratorISt4pairIKSsSsEEeqERKS3_ @2979
    _ZNKSt23_Rb_tree_const_iteratorISt4pairIKSsSsEEneERKS3_ @2980
    _ZNKSt23_Rb_tree_const_iteratorISt4pairIKSsiEE13_M_const_castEv @2981
    _ZNKSt23_Rb_tree_const_iteratorISt4pairIKSsiEEeqERKS3_ @2982
    _ZNKSt23_Rb_tree_const_iteratorISt4pairIKSsiEEneERKS3_ @2983
    _ZNKSt23_Rb_tree_const_iteratorISt4pairIKSsiEEptEv @2984
    _ZNKSt23_Rb_tree_const_iteratorISt4pairIKiPKN2sf7TextureEEE13_M_const_castEv @2985
    _ZNKSt23_Rb_tree_const_iteratorISt4pairIKiPKN2sf7TextureEEEptEv @2986
    _ZNKSt23_Rb_tree_const_iteratorISt4pairIKjN2sf4Font4PageEEE13_M_const_castEv @2987
    _ZNKSt23_Rb_tree_const_iteratorISt4pairIKjN2sf5GlyphEEEneERKS5_ @2988
    _ZNKSt23_Rb_tree_const_iteratorISt4pairIKjN2sf5GlyphEEEptEv @2989
    _ZNKSt23_Rb_tree_const_iteratorISt4pairIKjPN9Ptakopysk9ComponentEEE13_M_const_castEv @2990
    _ZNKSt23_Rb_tree_const_iteratorISt4pairIKjPN9Ptakopysk9ComponentEEEeqERKS6_ @2991
    _ZNKSt23_Rb_tree_const_iteratorISt4pairIKjPN9Ptakopysk9ComponentEEEneERKS6_ @2992
    _ZNKSt3mapIN4Json5Value8CZStringES1_St4lessIS2_ESaISt4pairIKS2_S1_EEE4sizeEv @2993
    _ZNKSt3mapIN4Json5Value8CZStringES1_St4lessIS2_ESaISt4pairIKS2_S1_EEE5emptyEv @2994
    _ZNKSt3mapISsN9Ptakopysk11GameManager20ComponentFactoryDataESt4lessISsESaISt4pairIKSsS2_EEE5countERS6_ @2995
    _ZNKSt3mapISsN9Ptakopysk11GameManager20ComponentFactoryDataESt4lessISsESaISt4pairIKSsS2_EEE8key_compEv @2996
    _ZNKSt3mapISsPN2sf11SoundBufferESt4lessISsESaISt4pairIKSsS2_EEE5countERS6_ @2997
    _ZNKSt3mapISsPN2sf11SoundBufferESt4lessISsESaISt4pairIKSsS2_EEE8key_compEv @2998
    _ZNKSt3mapISsPN2sf4FontESt4lessISsESaISt4pairIKSsS2_EEE5countERS6_ @2999
    _ZNKSt3mapISsPN2sf4FontESt4lessISsESaISt4pairIKSsS2_EEE8key_compEv @3000
    _ZNKSt3mapISsPN2sf5MusicESt4lessISsESaISt4pairIKSsS2_EEE5countERS6_ @3001
    _ZNKSt3mapISsPN2sf5MusicESt4lessISsESaISt4pairIKSsS2_EEE8key_compEv @3002
    _ZNKSt3mapISsPN2sf5SoundESt4lessISsESaISt4pairIKSsS2_EEE5countERS6_ @3003
    _ZNKSt3mapISsPN2sf5SoundESt4lessISsESaISt4pairIKSsS2_EEE8key_compEv @3004
    _ZNKSt3mapISsPN2sf6ShaderESt4lessISsESaISt4pairIKSsS2_EEE5countERS6_ @3005
    _ZNKSt3mapISsPN2sf6ShaderESt4lessISsESaISt4pairIKSsS2_EEE8key_compEv @3006
    _ZNKSt3mapISsPN2sf7TextureESt4lessISsESaISt4pairIKSsS2_EEE5countERS6_ @3007
    _ZNKSt3mapISsPN2sf7TextureESt4lessISsESaISt4pairIKSsS2_EEE8key_compEv @3008
    _ZNKSt3mapISsPN9Ptakopysk10Serialized17ICustomSerializerESt4lessISsESaISt4pairIKSsS3_EEE5countERS7_ @3009
    _ZNKSt3mapISsPN9Ptakopysk10Serialized17ICustomSerializerESt4lessISsESaISt4pairIKSsS3_EEE8key_compEv @3010
    _ZNKSt3mapISsSsSt4lessISsESaISt4pairIKSsSsEEE5countERS3_ @3011
    _ZNKSt3mapISsSsSt4lessISsESaISt4pairIKSsSsEEE8key_compEv @3012
    _ZNKSt3mapISsiSt4lessISsESaISt4pairIKSsiEEE5countERS3_ @3013
    _ZNKSt3mapISsiSt4lessISsESaISt4pairIKSsiEEE8key_compEv @3014
    _ZNKSt3mapIiPKN2sf7TextureESt4lessIiESaISt4pairIKiS3_EEE4sizeEv @3015
    _ZNKSt3mapIiPKN2sf7TextureESt4lessIiESaISt4pairIKiS3_EEE5beginEv @3016
    _ZNKSt3mapIiPKN2sf7TextureESt4lessIiESaISt4pairIKiS3_EEE8key_compEv @3017
    _ZNKSt3mapIjN2sf4Font4PageESt4lessIjESaISt4pairIKjS2_EEE8key_compEv @3018
    _ZNKSt3mapIjPN9Ptakopysk9ComponentESt4lessIjESaISt4pairIKjS2_EEE5countERS6_ @3019
    _ZNKSt3mapIjPN9Ptakopysk9ComponentESt4lessIjESaISt4pairIKjS2_EEE8key_compEv @3020
    _ZNKSt3setIPN2sf4priv9GlContextESt4lessIS3_ESaIS3_EE3endEv @3021
    _ZNKSt3setIPN2sf4priv9GlContextESt4lessIS3_ESaIS3_EE5beginEv @3022
    _ZNKSt3setIPN2sf5SoundESt4lessIS2_ESaIS2_EE3endEv @3023
    _ZNKSt3setIPN2sf5SoundESt4lessIS2_ESaIS2_EE5beginEv @3024
    _ZNKSt4fposIiEcvxEv @3025
    _ZNKSt4lessIN4Json5Value8CZStringEEclERKS2_S5_ @3026
    _ZNKSt4lessIPKjEclERKS1_S4_ @3027
    _ZNKSt4lessIPN2sf4priv9GlContextEEclERKS3_S6_ @3028
    _ZNKSt4lessIPN2sf5SoundEEclERKS2_S5_ @3029
    _ZNKSt4lessISsEclERKSsS2_ @3030
    _ZNKSt4lessIiEclERKiS2_ @3031
    _ZNKSt4lessIjEclERKjS2_ @3032
    _ZNKSt4listIPN9Ptakopysk10GameObjectESaIS2_EE5emptyEv @3033
    _ZNKSt5dequeIN2sf5EventESaIS1_EE3endEv @3034
    _ZNKSt5dequeIN2sf5EventESaIS1_EE4sizeEv @3035
    _ZNKSt5dequeIN2sf5EventESaIS1_EE5beginEv @3036
    _ZNKSt5dequeIN2sf5EventESaIS1_EE5emptyEv @3037
    _ZNKSt5dequeIN4Json6Reader9ErrorInfoESaIS2_EE3endEv @3038
    _ZNKSt5dequeIN4Json6Reader9ErrorInfoESaIS2_EE4sizeEv @3039
    _ZNKSt5dequeIN4Json6Reader9ErrorInfoESaIS2_EE5beginEv @3040
    _ZNKSt5dequeIN4Json6Reader9ErrorInfoESaIS2_EE8max_sizeEv @3041
    _ZNKSt5dequeIPN4Json5ValueESaIS2_EE3endEv @3042
    _ZNKSt5dequeIPN4Json5ValueESaIS2_EE4sizeEv @3043
    _ZNKSt5dequeIPN4Json5ValueESaIS2_EE5beginEv @3044
    _ZNKSt5dequeIPN4Json5ValueESaIS2_EE5emptyEv @3045
    _ZNKSt5queueIN2sf5EventESt5dequeIS1_SaIS1_EEE5emptyEv @3046
    _ZNKSt5stackIPN4Json5ValueESt5dequeIS2_SaIS2_EEE5emptyEv @3047
    _ZNKSt6vectorI6b2Vec2SaIS0_EE12_M_check_lenEjPKc @3048
    _ZNKSt6vectorI6b2Vec2SaIS0_EE3endEv @3049
    _ZNKSt6vectorI6b2Vec2SaIS0_EE4sizeEv @3050
    _ZNKSt6vectorI6b2Vec2SaIS0_EE5beginEv @3051
    _ZNKSt6vectorI6b2Vec2SaIS0_EE5emptyEv @3052
    _ZNKSt6vectorI6b2Vec2SaIS0_EE8capacityEv @3053
    _ZNKSt6vectorI6b2Vec2SaIS0_EE8max_sizeEv @3054
    _ZNKSt6vectorIN2sf4Font3RowESaIS2_EE12_M_check_lenEjPKc @3055
    _ZNKSt6vectorIN2sf4Font3RowESaIS2_EE3endEv @3056
    _ZNKSt6vectorIN2sf4Font3RowESaIS2_EE4sizeEv @3057
    _ZNKSt6vectorIN2sf4Font3RowESaIS2_EE5beginEv @3058
    _ZNKSt6vectorIN2sf4Font3RowESaIS2_EE8max_sizeEv @3059
    _ZNKSt6vectorIN2sf6VertexESaIS1_EE12_M_check_lenEjPKc @3060
    _ZNKSt6vectorIN2sf6VertexESaIS1_EE3endEv @3061
    _ZNKSt6vectorIN2sf6VertexESaIS1_EE4sizeEv @3062
    _ZNKSt6vectorIN2sf6VertexESaIS1_EE5beginEv @3063
    _ZNKSt6vectorIN2sf6VertexESaIS1_EE5emptyEv @3064
    _ZNKSt6vectorIN2sf6VertexESaIS1_EE8max_sizeEv @3065
    _ZNKSt6vectorIN2sf6VertexESaIS1_EEixEj @3066
    _ZNKSt6vectorIN2sf9VideoModeESaIS1_EE12_M_check_lenEjPKc @3067
    _ZNKSt6vectorIN2sf9VideoModeESaIS1_EE3endEv @3068
    _ZNKSt6vectorIN2sf9VideoModeESaIS1_EE4sizeEv @3069
    _ZNKSt6vectorIN2sf9VideoModeESaIS1_EE5beginEv @3070
    _ZNKSt6vectorIN2sf9VideoModeESaIS1_EE5emptyEv @3071
    _ZNKSt6vectorIN2sf9VideoModeESaIS1_EE8capacityEv @3072
    _ZNKSt6vectorIN2sf9VideoModeESaIS1_EE8max_sizeEv @3073
    _ZNKSt6vectorIN2sf9VideoModeESaIS1_EEixEj @3074
    _ZNKSt6vectorIN4Json12PathArgumentESaIS1_EE12_M_check_lenEjPKc @3075
    _ZNKSt6vectorIN4Json12PathArgumentESaIS1_EE3endEv @3076
    _ZNKSt6vectorIN4Json12PathArgumentESaIS1_EE4sizeEv @3077
    _ZNKSt6vectorIN4Json12PathArgumentESaIS1_EE5beginEv @3078
    _ZNKSt6vectorIN4Json12PathArgumentESaIS1_EE8max_sizeEv @3079
    _ZNKSt6vectorIN6XeCore6Common6StringESaIS2_EE12_M_check_lenEjPKc @3080
    _ZNKSt6vectorIN6XeCore6Common6StringESaIS2_EE4sizeEv @3081
    _ZNKSt6vectorIN6XeCore6Common6StringESaIS2_EE8max_sizeEv @3082
    _ZNKSt6vectorIPKN4Json12PathArgumentESaIS3_EE12_M_check_lenEjPKc @3083
    _ZNKSt6vectorIPKN4Json12PathArgumentESaIS3_EE3endEv @3084
    _ZNKSt6vectorIPKN4Json12PathArgumentESaIS3_EE4sizeEv @3085
    _ZNKSt6vectorIPKN4Json12PathArgumentESaIS3_EE5beginEv @3086
    _ZNKSt6vectorIPKN4Json12PathArgumentESaIS3_EE8max_sizeEv @3087
    _ZNKSt6vectorISsSaISsEE12_M_check_lenEjPKc @3088
    _ZNKSt6vectorISsSaISsEE3endEv @3089
    _ZNKSt6vectorISsSaISsEE4sizeEv @3090
    _ZNKSt6vectorISsSaISsEE5beginEv @3091
    _ZNKSt6vectorISsSaISsEE5emptyEv @3092
    _ZNKSt6vectorISsSaISsEE8capacityEv @3093
    _ZNKSt6vectorISsSaISsEE8max_sizeEv @3094
    _ZNKSt6vectorIcSaIcEE12_M_check_lenEjPKc @3095
    _ZNKSt6vectorIcSaIcEE4sizeEv @3096
    _ZNKSt6vectorIcSaIcEE8max_sizeEv @3097
    _ZNKSt6vectorIhSaIhEE12_M_check_lenEjPKc @3098
    _ZNKSt6vectorIhSaIhEE3endEv @3099
    _ZNKSt6vectorIhSaIhEE4sizeEv @3100
    _ZNKSt6vectorIhSaIhEE5beginEv @3101
    _ZNKSt6vectorIhSaIhEE5emptyEv @3102
    _ZNKSt6vectorIhSaIhEE8max_sizeEv @3103
    _ZNKSt6vectorIhSaIhEEixEj @3104
    _ZNKSt6vectorIsSaIsEE12_M_check_lenEjPKc @3105
    _ZNKSt6vectorIsSaIsEE3endEv @3106
    _ZNKSt6vectorIsSaIsEE4sizeEv @3107
    _ZNKSt6vectorIsSaIsEE5beginEv @3108
    _ZNKSt6vectorIsSaIsEE5emptyEv @3109
    _ZNKSt6vectorIsSaIsEE8capacityEv @3110
    _ZNKSt6vectorIsSaIsEE8max_sizeEv @3111
    _ZNKSt6vectorIsSaIsEEixEj @3112
    _ZNKSt7greaterIN2sf9VideoModeEEclERKS1_S4_ @3113
    _ZNKSt8_Rb_treeIN4Json5Value8CZStringESt4pairIKS2_S1_ESt10_Select1stIS5_ESt4lessIS2_ESaIS5_EE13get_allocatorEv @3114
    _ZNKSt8_Rb_treeIN4Json5Value8CZStringESt4pairIKS2_S1_ESt10_Select1stIS5_ESt4lessIS2_ESaIS5_EE21_M_get_Node_allocatorEv @3115
    _ZNKSt8_Rb_treeIN4Json5Value8CZStringESt4pairIKS2_S1_ESt10_Select1stIS5_ESt4lessIS2_ESaIS5_EE3endEv @3116
    _ZNKSt8_Rb_treeIN4Json5Value8CZStringESt4pairIKS2_S1_ESt10_Select1stIS5_ESt4lessIS2_ESaIS5_EE4sizeEv @3117
    _ZNKSt8_Rb_treeIN4Json5Value8CZStringESt4pairIKS2_S1_ESt10_Select1stIS5_ESt4lessIS2_ESaIS5_EE5beginEv @3118
    _ZNKSt8_Rb_treeIN4Json5Value8CZStringESt4pairIKS2_S1_ESt10_Select1stIS5_ESt4lessIS2_ESaIS5_EE5emptyEv @3119
    _ZNKSt8_Rb_treeIN4Json5Value8CZStringESt4pairIKS2_S1_ESt10_Select1stIS5_ESt4lessIS2_ESaIS5_EE7_M_rootEv @3120
    _ZNKSt8_Rb_treeIN4Json5Value8CZStringESt4pairIKS2_S1_ESt10_Select1stIS5_ESt4lessIS2_ESaIS5_EE8_M_beginEv @3121
    _ZNKSt8_Rb_treeIPN2sf4priv9GlContextES3_St9_IdentityIS3_ESt4lessIS3_ESaIS3_EE13get_allocatorEv @3122
    _ZNKSt8_Rb_treeIPN2sf4priv9GlContextES3_St9_IdentityIS3_ESt4lessIS3_ESaIS3_EE21_M_get_Node_allocatorEv @3123
    _ZNKSt8_Rb_treeIPN2sf4priv9GlContextES3_St9_IdentityIS3_ESt4lessIS3_ESaIS3_EE3endEv @3124
    _ZNKSt8_Rb_treeIPN2sf4priv9GlContextES3_St9_IdentityIS3_ESt4lessIS3_ESaIS3_EE5beginEv @3125
    _ZNKSt8_Rb_treeIPN2sf5SoundES2_St9_IdentityIS2_ESt4lessIS2_ESaIS2_EE13get_allocatorEv @3126
    _ZNKSt8_Rb_treeIPN2sf5SoundES2_St9_IdentityIS2_ESt4lessIS2_ESaIS2_EE21_M_get_Node_allocatorEv @3127
    _ZNKSt8_Rb_treeIPN2sf5SoundES2_St9_IdentityIS2_ESt4lessIS2_ESaIS2_EE3endEv @3128
    _ZNKSt8_Rb_treeIPN2sf5SoundES2_St9_IdentityIS2_ESt4lessIS2_ESaIS2_EE4sizeEv @3129
    _ZNKSt8_Rb_treeIPN2sf5SoundES2_St9_IdentityIS2_ESt4lessIS2_ESaIS2_EE5beginEv @3130
    _ZNKSt8_Rb_treeISsSt4pairIKSsN9Ptakopysk11GameManager20ComponentFactoryDataEESt10_Select1stIS5_ESt4lessISsESaIS5_EE13get_allocatorEv @3131
    _ZNKSt8_Rb_treeISsSt4pairIKSsN9Ptakopysk11GameManager20ComponentFactoryDataEESt10_Select1stIS5_ESt4lessISsESaIS5_EE14_M_lower_boundEPKSt13_Rb_tree_nodeIS5_ESF_RS1_ @3132
    _ZNKSt8_Rb_treeISsSt4pairIKSsN9Ptakopysk11GameManager20ComponentFactoryDataEESt10_Select1stIS5_ESt4lessISsESaIS5_EE21_M_get_Node_allocatorEv @3133
    _ZNKSt8_Rb_treeISsSt4pairIKSsN9Ptakopysk11GameManager20ComponentFactoryDataEESt10_Select1stIS5_ESt4lessISsESaIS5_EE3endEv @3134
    _ZNKSt8_Rb_treeISsSt4pairIKSsN9Ptakopysk11GameManager20ComponentFactoryDataEESt10_Select1stIS5_ESt4lessISsESaIS5_EE4findERS1_ @3135
    _ZNKSt8_Rb_treeISsSt4pairIKSsN9Ptakopysk11GameManager20ComponentFactoryDataEESt10_Select1stIS5_ESt4lessISsESaIS5_EE4sizeEv @3136
    _ZNKSt8_Rb_treeISsSt4pairIKSsN9Ptakopysk11GameManager20ComponentFactoryDataEESt10_Select1stIS5_ESt4lessISsESaIS5_EE6_M_endEv @3137
    _ZNKSt8_Rb_treeISsSt4pairIKSsN9Ptakopysk11GameManager20ComponentFactoryDataEESt10_Select1stIS5_ESt4lessISsESaIS5_EE8_M_beginEv @3138
    _ZNKSt8_Rb_treeISsSt4pairIKSsN9Ptakopysk11GameManager20ComponentFactoryDataEESt10_Select1stIS5_ESt4lessISsESaIS5_EE8key_compEv @3139
    _ZNKSt8_Rb_treeISsSt4pairIKSsPN2sf11SoundBufferEESt10_Select1stIS5_ESt4lessISsESaIS5_EE13get_allocatorEv @3140
    _ZNKSt8_Rb_treeISsSt4pairIKSsPN2sf11SoundBufferEESt10_Select1stIS5_ESt4lessISsESaIS5_EE14_M_lower_boundEPKSt13_Rb_tree_nodeIS5_ESF_RS1_ @3141
    _ZNKSt8_Rb_treeISsSt4pairIKSsPN2sf11SoundBufferEESt10_Select1stIS5_ESt4lessISsESaIS5_EE21_M_get_Node_allocatorEv @3142
    _ZNKSt8_Rb_treeISsSt4pairIKSsPN2sf11SoundBufferEESt10_Select1stIS5_ESt4lessISsESaIS5_EE3endEv @3143
    _ZNKSt8_Rb_treeISsSt4pairIKSsPN2sf11SoundBufferEESt10_Select1stIS5_ESt4lessISsESaIS5_EE4findERS1_ @3144
    _ZNKSt8_Rb_treeISsSt4pairIKSsPN2sf11SoundBufferEESt10_Select1stIS5_ESt4lessISsESaIS5_EE4sizeEv @3145
    _ZNKSt8_Rb_treeISsSt4pairIKSsPN2sf11SoundBufferEESt10_Select1stIS5_ESt4lessISsESaIS5_EE6_M_endEv @3146
    _ZNKSt8_Rb_treeISsSt4pairIKSsPN2sf11SoundBufferEESt10_Select1stIS5_ESt4lessISsESaIS5_EE8_M_beginEv @3147
    _ZNKSt8_Rb_treeISsSt4pairIKSsPN2sf11SoundBufferEESt10_Select1stIS5_ESt4lessISsESaIS5_EE8key_compEv @3148
    _ZNKSt8_Rb_treeISsSt4pairIKSsPN2sf4FontEESt10_Select1stIS5_ESt4lessISsESaIS5_EE13get_allocatorEv @3149
    _ZNKSt8_Rb_treeISsSt4pairIKSsPN2sf4FontEESt10_Select1stIS5_ESt4lessISsESaIS5_EE14_M_lower_boundEPKSt13_Rb_tree_nodeIS5_ESF_RS1_ @3150
    _ZNKSt8_Rb_treeISsSt4pairIKSsPN2sf4FontEESt10_Select1stIS5_ESt4lessISsESaIS5_EE21_M_get_Node_allocatorEv @3151
    _ZNKSt8_Rb_treeISsSt4pairIKSsPN2sf4FontEESt10_Select1stIS5_ESt4lessISsESaIS5_EE3endEv @3152
    _ZNKSt8_Rb_treeISsSt4pairIKSsPN2sf4FontEESt10_Select1stIS5_ESt4lessISsESaIS5_EE4findERS1_ @3153
    _ZNKSt8_Rb_treeISsSt4pairIKSsPN2sf4FontEESt10_Select1stIS5_ESt4lessISsESaIS5_EE4sizeEv @3154
    _ZNKSt8_Rb_treeISsSt4pairIKSsPN2sf4FontEESt10_Select1stIS5_ESt4lessISsESaIS5_EE6_M_endEv @3155
    _ZNKSt8_Rb_treeISsSt4pairIKSsPN2sf4FontEESt10_Select1stIS5_ESt4lessISsESaIS5_EE8_M_beginEv @3156
    _ZNKSt8_Rb_treeISsSt4pairIKSsPN2sf4FontEESt10_Select1stIS5_ESt4lessISsESaIS5_EE8key_compEv @3157
    _ZNKSt8_Rb_treeISsSt4pairIKSsPN2sf5MusicEESt10_Select1stIS5_ESt4lessISsESaIS5_EE13get_allocatorEv @3158
    _ZNKSt8_Rb_treeISsSt4pairIKSsPN2sf5MusicEESt10_Select1stIS5_ESt4lessISsESaIS5_EE14_M_lower_boundEPKSt13_Rb_tree_nodeIS5_ESF_RS1_ @3159
    _ZNKSt8_Rb_treeISsSt4pairIKSsPN2sf5MusicEESt10_Select1stIS5_ESt4lessISsESaIS5_EE21_M_get_Node_allocatorEv @3160
    _ZNKSt8_Rb_treeISsSt4pairIKSsPN2sf5MusicEESt10_Select1stIS5_ESt4lessISsESaIS5_EE3endEv @3161
    _ZNKSt8_Rb_treeISsSt4pairIKSsPN2sf5MusicEESt10_Select1stIS5_ESt4lessISsESaIS5_EE4findERS1_ @3162
    _ZNKSt8_Rb_treeISsSt4pairIKSsPN2sf5MusicEESt10_Select1stIS5_ESt4lessISsESaIS5_EE4sizeEv @3163
    _ZNKSt8_Rb_treeISsSt4pairIKSsPN2sf5MusicEESt10_Select1stIS5_ESt4lessISsESaIS5_EE6_M_endEv @3164
    _ZNKSt8_Rb_treeISsSt4pairIKSsPN2sf5MusicEESt10_Select1stIS5_ESt4lessISsESaIS5_EE8_M_beginEv @3165
    _ZNKSt8_Rb_treeISsSt4pairIKSsPN2sf5MusicEESt10_Select1stIS5_ESt4lessISsESaIS5_EE8key_compEv @3166
    _ZNKSt8_Rb_treeISsSt4pairIKSsPN2sf5SoundEESt10_Select1stIS5_ESt4lessISsESaIS5_EE13get_allocatorEv @3167
    _ZNKSt8_Rb_treeISsSt4pairIKSsPN2sf5SoundEESt10_Select1stIS5_ESt4lessISsESaIS5_EE14_M_lower_boundEPKSt13_Rb_tree_nodeIS5_ESF_RS1_ @3168
    _ZNKSt8_Rb_treeISsSt4pairIKSsPN2sf5SoundEESt10_Select1stIS5_ESt4lessISsESaIS5_EE21_M_get_Node_allocatorEv @3169
    _ZNKSt8_Rb_treeISsSt4pairIKSsPN2sf5SoundEESt10_Select1stIS5_ESt4lessISsESaIS5_EE3endEv @3170
    _ZNKSt8_Rb_treeISsSt4pairIKSsPN2sf5SoundEESt10_Select1stIS5_ESt4lessISsESaIS5_EE4findERS1_ @3171
    _ZNKSt8_Rb_treeISsSt4pairIKSsPN2sf5SoundEESt10_Select1stIS5_ESt4lessISsESaIS5_EE4sizeEv @3172
    _ZNKSt8_Rb_treeISsSt4pairIKSsPN2sf5SoundEESt10_Select1stIS5_ESt4lessISsESaIS5_EE6_M_endEv @3173
    _ZNKSt8_Rb_treeISsSt4pairIKSsPN2sf5SoundEESt10_Select1stIS5_ESt4lessISsESaIS5_EE8_M_beginEv @3174
    _ZNKSt8_Rb_treeISsSt4pairIKSsPN2sf5SoundEESt10_Select1stIS5_ESt4lessISsESaIS5_EE8key_compEv @3175
    _ZNKSt8_Rb_treeISsSt4pairIKSsPN2sf6ShaderEESt10_Select1stIS5_ESt4lessISsESaIS5_EE13get_allocatorEv @3176
    _ZNKSt8_Rb_treeISsSt4pairIKSsPN2sf6ShaderEESt10_Select1stIS5_ESt4lessISsESaIS5_EE14_M_lower_boundEPKSt13_Rb_tree_nodeIS5_ESF_RS1_ @3177
    _ZNKSt8_Rb_treeISsSt4pairIKSsPN2sf6ShaderEESt10_Select1stIS5_ESt4lessISsESaIS5_EE21_M_get_Node_allocatorEv @3178
    _ZNKSt8_Rb_treeISsSt4pairIKSsPN2sf6ShaderEESt10_Select1stIS5_ESt4lessISsESaIS5_EE3endEv @3179
    _ZNKSt8_Rb_treeISsSt4pairIKSsPN2sf6ShaderEESt10_Select1stIS5_ESt4lessISsESaIS5_EE4findERS1_ @3180
    _ZNKSt8_Rb_treeISsSt4pairIKSsPN2sf6ShaderEESt10_Select1stIS5_ESt4lessISsESaIS5_EE4sizeEv @3181
    _ZNKSt8_Rb_treeISsSt4pairIKSsPN2sf6ShaderEESt10_Select1stIS5_ESt4lessISsESaIS5_EE6_M_endEv @3182
    _ZNKSt8_Rb_treeISsSt4pairIKSsPN2sf6ShaderEESt10_Select1stIS5_ESt4lessISsESaIS5_EE8_M_beginEv @3183
    _ZNKSt8_Rb_treeISsSt4pairIKSsPN2sf6ShaderEESt10_Select1stIS5_ESt4lessISsESaIS5_EE8key_compEv @3184
    _ZNKSt8_Rb_treeISsSt4pairIKSsPN2sf7TextureEESt10_Select1stIS5_ESt4lessISsESaIS5_EE13get_allocatorEv @3185
    _ZNKSt8_Rb_treeISsSt4pairIKSsPN2sf7TextureEESt10_Select1stIS5_ESt4lessISsESaIS5_EE14_M_lower_boundEPKSt13_Rb_tree_nodeIS5_ESF_RS1_ @3186
    _ZNKSt8_Rb_treeISsSt4pairIKSsPN2sf7TextureEESt10_Select1stIS5_ESt4lessISsESaIS5_EE21_M_get_Node_allocatorEv @3187
    _ZNKSt8_Rb_treeISsSt4pairIKSsPN2sf7TextureEESt10_Select1stIS5_ESt4lessISsESaIS5_EE3endEv @3188
    _ZNKSt8_Rb_treeISsSt4pairIKSsPN2sf7TextureEESt10_Select1stIS5_ESt4lessISsESaIS5_EE4findERS1_ @3189
    _ZNKSt8_Rb_treeISsSt4pairIKSsPN2sf7TextureEESt10_Select1stIS5_ESt4lessISsESaIS5_EE4sizeEv @3190
    _ZNKSt8_Rb_treeISsSt4pairIKSsPN2sf7TextureEESt10_Select1stIS5_ESt4lessISsESaIS5_EE6_M_endEv @3191
    _ZNKSt8_Rb_treeISsSt4pairIKSsPN2sf7TextureEESt10_Select1stIS5_ESt4lessISsESaIS5_EE8_M_beginEv @3192
    _ZNKSt8_Rb_treeISsSt4pairIKSsPN2sf7TextureEESt10_Select1stIS5_ESt4lessISsESaIS5_EE8key_compEv @3193
    _ZNKSt8_Rb_treeISsSt4pairIKSsPN9Ptakopysk10Serialized17ICustomSerializerEESt10_Select1stIS6_ESt4lessISsESaIS6_EE13get_allocatorEv @3194
    _ZNKSt8_Rb_treeISsSt4pairIKSsPN9Ptakopysk10Serialized17ICustomSerializerEESt10_Select1stIS6_ESt4lessISsESaIS6_EE14_M_lower_boundEPKSt13_Rb_tree_nodeIS6_ESG_RS1_ @3195
    _ZNKSt8_Rb_treeISsSt4pairIKSsPN9Ptakopysk10Serialized17ICustomSerializerEESt10_Select1stIS6_ESt4lessISsESaIS6_EE21_M_get_Node_allocatorEv @3196
    _ZNKSt8_Rb_treeISsSt4pairIKSsPN9Ptakopysk10Serialized17ICustomSerializerEESt10_Select1stIS6_ESt4lessISsESaIS6_EE3endEv @3197
    _ZNKSt8_Rb_treeISsSt4pairIKSsPN9Ptakopysk10Serialized17ICustomSerializerEESt10_Select1stIS6_ESt4lessISsESaIS6_EE4findERS1_ @3198
    _ZNKSt8_Rb_treeISsSt4pairIKSsPN9Ptakopysk10Serialized17ICustomSerializerEESt10_Select1stIS6_ESt4lessISsESaIS6_EE4sizeEv @3199
    _ZNKSt8_Rb_treeISsSt4pairIKSsPN9Ptakopysk10Serialized17ICustomSerializerEESt10_Select1stIS6_ESt4lessISsESaIS6_EE6_M_endEv @3200
    _ZNKSt8_Rb_treeISsSt4pairIKSsPN9Ptakopysk10Serialized17ICustomSerializerEESt10_Select1stIS6_ESt4lessISsESaIS6_EE8_M_beginEv @3201
    _ZNKSt8_Rb_treeISsSt4pairIKSsPN9Ptakopysk10Serialized17ICustomSerializerEESt10_Select1stIS6_ESt4lessISsESaIS6_EE8key_compEv @3202
    _ZNKSt8_Rb_treeISsSt4pairIKSsSsESt10_Select1stIS2_ESt4lessISsESaIS2_EE13get_allocatorEv @3203
    _ZNKSt8_Rb_treeISsSt4pairIKSsSsESt10_Select1stIS2_ESt4lessISsESaIS2_EE14_M_lower_boundEPKSt13_Rb_tree_nodeIS2_ESC_RS1_ @3204
    _ZNKSt8_Rb_treeISsSt4pairIKSsSsESt10_Select1stIS2_ESt4lessISsESaIS2_EE21_M_get_Node_allocatorEv @3205
    _ZNKSt8_Rb_treeISsSt4pairIKSsSsESt10_Select1stIS2_ESt4lessISsESaIS2_EE3endEv @3206
    _ZNKSt8_Rb_treeISsSt4pairIKSsSsESt10_Select1stIS2_ESt4lessISsESaIS2_EE4findERS1_ @3207
    _ZNKSt8_Rb_treeISsSt4pairIKSsSsESt10_Select1stIS2_ESt4lessISsESaIS2_EE4sizeEv @3208
    _ZNKSt8_Rb_treeISsSt4pairIKSsSsESt10_Select1stIS2_ESt4lessISsESaIS2_EE6_M_endEv @3209
    _ZNKSt8_Rb_treeISsSt4pairIKSsSsESt10_Select1stIS2_ESt4lessISsESaIS2_EE8_M_beginEv @3210
    _ZNKSt8_Rb_treeISsSt4pairIKSsSsESt10_Select1stIS2_ESt4lessISsESaIS2_EE8key_compEv @3211
    _ZNKSt8_Rb_treeISsSt4pairIKSsiESt10_Select1stIS2_ESt4lessISsESaIS2_EE13get_allocatorEv @3212
    _ZNKSt8_Rb_treeISsSt4pairIKSsiESt10_Select1stIS2_ESt4lessISsESaIS2_EE14_M_lower_boundEPKSt13_Rb_tree_nodeIS2_ESC_RS1_ @3213
    _ZNKSt8_Rb_treeISsSt4pairIKSsiESt10_Select1stIS2_ESt4lessISsESaIS2_EE21_M_get_Node_allocatorEv @3214
    _ZNKSt8_Rb_treeISsSt4pairIKSsiESt10_Select1stIS2_ESt4lessISsESaIS2_EE3endEv @3215
    _ZNKSt8_Rb_treeISsSt4pairIKSsiESt10_Select1stIS2_ESt4lessISsESaIS2_EE4findERS1_ @3216
    _ZNKSt8_Rb_treeISsSt4pairIKSsiESt10_Select1stIS2_ESt4lessISsESaIS2_EE4sizeEv @3217
    _ZNKSt8_Rb_treeISsSt4pairIKSsiESt10_Select1stIS2_ESt4lessISsESaIS2_EE6_M_endEv @3218
    _ZNKSt8_Rb_treeISsSt4pairIKSsiESt10_Select1stIS2_ESt4lessISsESaIS2_EE7_M_rootEv @3219
    _ZNKSt8_Rb_treeISsSt4pairIKSsiESt10_Select1stIS2_ESt4lessISsESaIS2_EE8_M_beginEv @3220
    _ZNKSt8_Rb_treeISsSt4pairIKSsiESt10_Select1stIS2_ESt4lessISsESaIS2_EE8key_compEv @3221
    _ZNKSt8_Rb_treeIiSt4pairIKiPKN2sf7TextureEESt10_Select1stIS6_ESt4lessIiESaIS6_EE13get_allocatorEv @3222
    _ZNKSt8_Rb_treeIiSt4pairIKiPKN2sf7TextureEESt10_Select1stIS6_ESt4lessIiESaIS6_EE21_M_get_Node_allocatorEv @3223
    _ZNKSt8_Rb_treeIiSt4pairIKiPKN2sf7TextureEESt10_Select1stIS6_ESt4lessIiESaIS6_EE4sizeEv @3224
    _ZNKSt8_Rb_treeIiSt4pairIKiPKN2sf7TextureEESt10_Select1stIS6_ESt4lessIiESaIS6_EE5beginEv @3225
    _ZNKSt8_Rb_treeIiSt4pairIKiPKN2sf7TextureEESt10_Select1stIS6_ESt4lessIiESaIS6_EE8key_compEv @3226
    _ZNKSt8_Rb_treeIjSt4pairIKjN2sf4Font4PageEESt10_Select1stIS5_ESt4lessIjESaIS5_EE13get_allocatorEv @3227
    _ZNKSt8_Rb_treeIjSt4pairIKjN2sf4Font4PageEESt10_Select1stIS5_ESt4lessIjESaIS5_EE21_M_get_Node_allocatorEv @3228
    _ZNKSt8_Rb_treeIjSt4pairIKjN2sf4Font4PageEESt10_Select1stIS5_ESt4lessIjESaIS5_EE4sizeEv @3229
    _ZNKSt8_Rb_treeIjSt4pairIKjN2sf4Font4PageEESt10_Select1stIS5_ESt4lessIjESaIS5_EE7_M_rootEv @3230
    _ZNKSt8_Rb_treeIjSt4pairIKjN2sf4Font4PageEESt10_Select1stIS5_ESt4lessIjESaIS5_EE8_M_beginEv @3231
    _ZNKSt8_Rb_treeIjSt4pairIKjN2sf4Font4PageEESt10_Select1stIS5_ESt4lessIjESaIS5_EE8key_compEv @3232
    _ZNKSt8_Rb_treeIjSt4pairIKjN2sf5GlyphEESt10_Select1stIS4_ESt4lessIjESaIS4_EE13get_allocatorEv @3233
    _ZNKSt8_Rb_treeIjSt4pairIKjN2sf5GlyphEESt10_Select1stIS4_ESt4lessIjESaIS4_EE21_M_get_Node_allocatorEv @3234
    _ZNKSt8_Rb_treeIjSt4pairIKjN2sf5GlyphEESt10_Select1stIS4_ESt4lessIjESaIS4_EE7_M_rootEv @3235
    _ZNKSt8_Rb_treeIjSt4pairIKjN2sf5GlyphEESt10_Select1stIS4_ESt4lessIjESaIS4_EE8_M_beginEv @3236
    _ZNKSt8_Rb_treeIjSt4pairIKjPN9Ptakopysk9ComponentEESt10_Select1stIS5_ESt4lessIjESaIS5_EE13get_allocatorEv @3237
    _ZNKSt8_Rb_treeIjSt4pairIKjPN9Ptakopysk9ComponentEESt10_Select1stIS5_ESt4lessIjESaIS5_EE14_M_lower_boundEPKSt13_Rb_tree_nodeIS5_ESF_RS1_ @3238
    _ZNKSt8_Rb_treeIjSt4pairIKjPN9Ptakopysk9ComponentEESt10_Select1stIS5_ESt4lessIjESaIS5_EE21_M_get_Node_allocatorEv @3239
    _ZNKSt8_Rb_treeIjSt4pairIKjPN9Ptakopysk9ComponentEESt10_Select1stIS5_ESt4lessIjESaIS5_EE3endEv @3240
    _ZNKSt8_Rb_treeIjSt4pairIKjPN9Ptakopysk9ComponentEESt10_Select1stIS5_ESt4lessIjESaIS5_EE4findERS1_ @3241
    _ZNKSt8_Rb_treeIjSt4pairIKjPN9Ptakopysk9ComponentEESt10_Select1stIS5_ESt4lessIjESaIS5_EE4sizeEv @3242
    _ZNKSt8_Rb_treeIjSt4pairIKjPN9Ptakopysk9ComponentEESt10_Select1stIS5_ESt4lessIjESaIS5_EE6_M_endEv @3243
    _ZNKSt8_Rb_treeIjSt4pairIKjPN9Ptakopysk9ComponentEESt10_Select1stIS5_ESt4lessIjESaIS5_EE8_M_beginEv @3244
    _ZNKSt8_Rb_treeIjSt4pairIKjPN9Ptakopysk9ComponentEESt10_Select1stIS5_ESt4lessIjESaIS5_EE8key_compEv @3245
    _ZNKSt9_IdentityIPN2sf4priv9GlContextEEclERKS3_ @3246
    _ZNKSt9_IdentityIPN2sf5SoundEEclERKS2_ @3247
    _ZNSaI6b2Vec2EC2Ev @3248
    _ZNSaI6b2Vec2ED2Ev @3249
    _ZNSaIN2sf4Font3RowEEC2ERKS2_ @3250
    _ZNSaIN2sf4Font3RowEEC2Ev @3251
    _ZNSaIN2sf4Font3RowEED2Ev @3252
    _ZNSaIN2sf5EventEEC2ERKS1_ @3253
    _ZNSaIN2sf5EventEEC2Ev @3254
    _ZNSaIN2sf5EventEED2Ev @3255
    _ZNSaIN2sf6VertexEEC1Ev @3256
    _ZNSaIN2sf6VertexEEC2ERKS1_ @3257
    _ZNSaIN2sf6VertexEEC2Ev @3258
    _ZNSaIN2sf6VertexEED1Ev @3259
    _ZNSaIN2sf6VertexEED2Ev @3260
    _ZNSaIN2sf9VideoModeEEC2Ev @3261
    _ZNSaIN2sf9VideoModeEED2Ev @3262
    _ZNSaIN4Json12PathArgumentEEC2Ev @3263
    _ZNSaIN4Json12PathArgumentEED2Ev @3264
    _ZNSaIN4Json6Reader9ErrorInfoEEC2Ev @3265
    _ZNSaIN4Json6Reader9ErrorInfoEED2Ev @3266
    _ZNSaIN6XeCore6Common6StringEEC2Ev @3267
    _ZNSaIN6XeCore6Common6StringEED2Ev @3268
    _ZNSaIPKN4Json12PathArgumentEEC2Ev @3269
    _ZNSaIPKN4Json12PathArgumentEED2Ev @3270
    _ZNSaIPN2sf4priv9GlContextEEC1ISt13_Rb_tree_nodeIS2_EEERKSaIT_E @3271
    _ZNSaIPN2sf4priv9GlContextEED1Ev @3272
    _ZNSaIPN2sf5EventEEC1IS0_EERKSaIT_E @3273
    _ZNSaIPN2sf5EventEED1Ev @3274
    _ZNSaIPN2sf5SoundEEC1ISt13_Rb_tree_nodeIS1_EEERKSaIT_E @3275
    _ZNSaIPN2sf5SoundEED1Ev @3276
    _ZNSaIPN4Json5ValueEEC2ERKS2_ @3277
    _ZNSaIPN4Json5ValueEEC2Ev @3278
    _ZNSaIPN4Json5ValueEED2Ev @3279
    _ZNSaIPN4Json6Reader9ErrorInfoEEC1IS1_EERKSaIT_E @3280
    _ZNSaIPN4Json6Reader9ErrorInfoEED1Ev @3281
    _ZNSaIPN9Ptakopysk10GameObjectEEC1ISt10_List_nodeIS1_EEERKSaIT_E @3282
    _ZNSaIPN9Ptakopysk10GameObjectEED1Ev @3283
    _ZNSaIPN9Ptakopysk6Events5EventEEC1ISt10_List_nodeIS2_EEERKSaIT_E @3284
    _ZNSaIPN9Ptakopysk6Events5EventEED1Ev @3285
    _ZNSaIPPN4Json5ValueEEC1IS1_EERKSaIT_E @3286
    _ZNSaIPPN4Json5ValueEED1Ev @3287
    _ZNSaISsEC2ERKS_ @3288
    _ZNSaISsEC2Ev @3289
    _ZNSaISsED2Ev @3290
    _ZNSaISt10_List_nodeIPN9Ptakopysk10GameObjectEEEC2Ev @3291
    _ZNSaISt10_List_nodeIPN9Ptakopysk10GameObjectEEED2Ev @3292
    _ZNSaISt10_List_nodeIPN9Ptakopysk6Events5EventEEEC2Ev @3293
    _ZNSaISt10_List_nodeIPN9Ptakopysk6Events5EventEEED2Ev @3294
    _ZNSaISt13_Rb_tree_nodeIPN2sf4priv9GlContextEEEC2Ev @3295
    _ZNSaISt13_Rb_tree_nodeIPN2sf4priv9GlContextEEED2Ev @3296
    _ZNSaISt13_Rb_tree_nodeIPN2sf5SoundEEEC2Ev @3297
    _ZNSaISt13_Rb_tree_nodeIPN2sf5SoundEEED2Ev @3298
    _ZNSaISt13_Rb_tree_nodeISt4pairIKN4Json5Value8CZStringES2_EEEC2ERKS7_ @3299
    _ZNSaISt13_Rb_tree_nodeISt4pairIKN4Json5Value8CZStringES2_EEEC2Ev @3300
    _ZNSaISt13_Rb_tree_nodeISt4pairIKN4Json5Value8CZStringES2_EEED2Ev @3301
    _ZNSaISt13_Rb_tree_nodeISt4pairIKSsN9Ptakopysk11GameManager20ComponentFactoryDataEEEEC2Ev @3302
    _ZNSaISt13_Rb_tree_nodeISt4pairIKSsN9Ptakopysk11GameManager20ComponentFactoryDataEEEED2Ev @3303
    _ZNSaISt13_Rb_tree_nodeISt4pairIKSsPN2sf11SoundBufferEEEEC2Ev @3304
    _ZNSaISt13_Rb_tree_nodeISt4pairIKSsPN2sf11SoundBufferEEEED2Ev @3305
    _ZNSaISt13_Rb_tree_nodeISt4pairIKSsPN2sf4FontEEEEC2Ev @3306
    _ZNSaISt13_Rb_tree_nodeISt4pairIKSsPN2sf4FontEEEED2Ev @3307
    _ZNSaISt13_Rb_tree_nodeISt4pairIKSsPN2sf5MusicEEEEC2Ev @3308
    _ZNSaISt13_Rb_tree_nodeISt4pairIKSsPN2sf5MusicEEEED2Ev @3309
    _ZNSaISt13_Rb_tree_nodeISt4pairIKSsPN2sf5SoundEEEEC2Ev @3310
    _ZNSaISt13_Rb_tree_nodeISt4pairIKSsPN2sf5SoundEEEED2Ev @3311
    _ZNSaISt13_Rb_tree_nodeISt4pairIKSsPN2sf6ShaderEEEEC2Ev @3312
    _ZNSaISt13_Rb_tree_nodeISt4pairIKSsPN2sf6ShaderEEEED2Ev @3313
    _ZNSaISt13_Rb_tree_nodeISt4pairIKSsPN2sf7TextureEEEEC2Ev @3314
    _ZNSaISt13_Rb_tree_nodeISt4pairIKSsPN2sf7TextureEEEED2Ev @3315
    _ZNSaISt13_Rb_tree_nodeISt4pairIKSsPN9Ptakopysk10Serialized17ICustomSerializerEEEEC2Ev @3316
    _ZNSaISt13_Rb_tree_nodeISt4pairIKSsPN9Ptakopysk10Serialized17ICustomSerializerEEEED2Ev @3317
    _ZNSaISt13_Rb_tree_nodeISt4pairIKSsSsEEEC2Ev @3318
    _ZNSaISt13_Rb_tree_nodeISt4pairIKSsSsEEED2Ev @3319
    _ZNSaISt13_Rb_tree_nodeISt4pairIKSsiEEEC2ERKS4_ @3320
    _ZNSaISt13_Rb_tree_nodeISt4pairIKSsiEEEC2Ev @3321
    _ZNSaISt13_Rb_tree_nodeISt4pairIKSsiEEED2Ev @3322
    _ZNSaISt13_Rb_tree_nodeISt4pairIKiPKN2sf7TextureEEEEC2Ev @3323
    _ZNSaISt13_Rb_tree_nodeISt4pairIKiPKN2sf7TextureEEEED2Ev @3324
    _ZNSaISt13_Rb_tree_nodeISt4pairIKjN2sf4Font4PageEEEEC2ERKS7_ @3325
    _ZNSaISt13_Rb_tree_nodeISt4pairIKjN2sf4Font4PageEEEEC2Ev @3326
    _ZNSaISt13_Rb_tree_nodeISt4pairIKjN2sf4Font4PageEEEED2Ev @3327
    _ZNSaISt13_Rb_tree_nodeISt4pairIKjN2sf5GlyphEEEEC2ERKS6_ @3328
    _ZNSaISt13_Rb_tree_nodeISt4pairIKjN2sf5GlyphEEEEC2Ev @3329
    _ZNSaISt13_Rb_tree_nodeISt4pairIKjN2sf5GlyphEEEED2Ev @3330
    _ZNSaISt13_Rb_tree_nodeISt4pairIKjPN9Ptakopysk9ComponentEEEEC2Ev @3331
    _ZNSaISt13_Rb_tree_nodeISt4pairIKjPN9Ptakopysk9ComponentEEEED2Ev @3332
    _ZNSaISt4pairIKN4Json5Value8CZStringES1_EEC1ISt13_Rb_tree_nodeIS4_EEERKSaIT_E @3333
    _ZNSaISt4pairIKN4Json5Value8CZStringES1_EED1Ev @3334
    _ZNSaISt4pairIKSsN9Ptakopysk11GameManager20ComponentFactoryDataEEEC1ISt13_Rb_tree_nodeIS4_EEERKSaIT_E @3335
    _ZNSaISt4pairIKSsN9Ptakopysk11GameManager20ComponentFactoryDataEEED1Ev @3336
    _ZNSaISt4pairIKSsPN2sf11SoundBufferEEEC1ISt13_Rb_tree_nodeIS4_EEERKSaIT_E @3337
    _ZNSaISt4pairIKSsPN2sf11SoundBufferEEED1Ev @3338
    _ZNSaISt4pairIKSsPN2sf4FontEEEC1ISt13_Rb_tree_nodeIS4_EEERKSaIT_E @3339
    _ZNSaISt4pairIKSsPN2sf4FontEEED1Ev @3340
    _ZNSaISt4pairIKSsPN2sf5MusicEEEC1ISt13_Rb_tree_nodeIS4_EEERKSaIT_E @3341
    _ZNSaISt4pairIKSsPN2sf5MusicEEED1Ev @3342
    _ZNSaISt4pairIKSsPN2sf5SoundEEEC1ISt13_Rb_tree_nodeIS4_EEERKSaIT_E @3343
    _ZNSaISt4pairIKSsPN2sf5SoundEEED1Ev @3344
    _ZNSaISt4pairIKSsPN2sf6ShaderEEEC1ISt13_Rb_tree_nodeIS4_EEERKSaIT_E @3345
    _ZNSaISt4pairIKSsPN2sf6ShaderEEED1Ev @3346
    _ZNSaISt4pairIKSsPN2sf7TextureEEEC1ISt13_Rb_tree_nodeIS4_EEERKSaIT_E @3347
    _ZNSaISt4pairIKSsPN2sf7TextureEEED1Ev @3348
    _ZNSaISt4pairIKSsPN9Ptakopysk10Serialized17ICustomSerializerEEEC1ISt13_Rb_tree_nodeIS5_EEERKSaIT_E @3349
    _ZNSaISt4pairIKSsPN9Ptakopysk10Serialized17ICustomSerializerEEED1Ev @3350
    _ZNSaISt4pairIKSsSsEEC1ISt13_Rb_tree_nodeIS1_EEERKSaIT_E @3351
    _ZNSaISt4pairIKSsSsEED1Ev @3352
    _ZNSaISt4pairIKSsiEEC1ISt13_Rb_tree_nodeIS1_EEERKSaIT_E @3353
    _ZNSaISt4pairIKSsiEED1Ev @3354
    _ZNSaISt4pairIKiPKN2sf7TextureEEEC1ISt13_Rb_tree_nodeIS5_EEERKSaIT_E @3355
    _ZNSaISt4pairIKiPKN2sf7TextureEEED1Ev @3356
    _ZNSaISt4pairIKjN2sf4Font4PageEEEC1ISt13_Rb_tree_nodeIS4_EEERKSaIT_E @3357
    _ZNSaISt4pairIKjN2sf4Font4PageEEED1Ev @3358
    _ZNSaISt4pairIKjN2sf5GlyphEEEC1ISt13_Rb_tree_nodeIS3_EEERKSaIT_E @3359
    _ZNSaISt4pairIKjN2sf5GlyphEEED1Ev @3360
    _ZNSaISt4pairIKjPN9Ptakopysk9ComponentEEEC1ISt13_Rb_tree_nodeIS4_EEERKSaIT_E @3361
    _ZNSaISt4pairIKjPN9Ptakopysk9ComponentEEED1Ev @3362
    _ZNSaIcEC1IjEERKSaIT_E @3363
    _ZNSaIhEC1Ev @3364
    _ZNSaIhEC2ERKS_ @3365
    _ZNSaIhEC2Ev @3366
    _ZNSaIhED1Ev @3367
    _ZNSaIhED2Ev @3368
    _ZNSaIjEC1ERKS_ @3369
    _ZNSaIjEC1Ev @3370
    _ZNSaIjEC2ERKS_ @3371
    _ZNSaIjED1Ev @3372
    _ZNSaIjED2Ev @3373
    _ZNSaIsEC2ERKS_ @3374
    _ZNSaIsEC2Ev @3375
    _ZNSaIsED2Ev @3376
    _ZNSbIjSt11char_traitsIjESaIjEE10_S_compareEjj @3377
    _ZNSbIjSt11char_traitsIjESaIjEE12_Alloc_hiderC1EPjRKS1_ @3378
    _ZNSbIjSt11char_traitsIjESaIjEE12_Alloc_hiderD1Ev @3379
    _ZNSbIjSt11char_traitsIjESaIjEE12_M_leak_hardEv @3380
    _ZNSbIjSt11char_traitsIjESaIjEE12_S_constructEjjRKS1_ @3381
    _ZNSbIjSt11char_traitsIjESaIjEE15_M_replace_safeEjjPKjj @3382
    _ZNSbIjSt11char_traitsIjESaIjEE3endEv @3383
    _ZNSbIjSt11char_traitsIjESaIjEE4_Rep10_M_destroyERKS1_ @3384
    _ZNSbIjSt11char_traitsIjESaIjEE4_Rep10_M_disposeERKS1_ @3385
    _ZNSbIjSt11char_traitsIjESaIjEE4_Rep10_M_refcopyEv @3386
    _ZNSbIjSt11char_traitsIjESaIjEE4_Rep10_M_refdataEv @3387
    _ZNSbIjSt11char_traitsIjESaIjEE4_Rep11_S_terminalE @3388 DATA
    _ZNSbIjSt11char_traitsIjESaIjEE4_Rep13_M_set_leakedEv @3389
    _ZNSbIjSt11char_traitsIjESaIjEE4_Rep15_M_set_sharableEv @3390
    _ZNSbIjSt11char_traitsIjESaIjEE4_Rep26_M_set_length_and_sharableEj @3391
    _ZNSbIjSt11char_traitsIjESaIjEE4_Rep7_M_grabERKS1_S5_ @3392
    _ZNSbIjSt11char_traitsIjESaIjEE4_Rep8_M_cloneERKS1_j @3393
    _ZNSbIjSt11char_traitsIjESaIjEE4_Rep9_S_createEjjRKS1_ @3394
    _ZNSbIjSt11char_traitsIjESaIjEE5beginEv @3395
    _ZNSbIjSt11char_traitsIjESaIjEE5clearEv @3396
    _ZNSbIjSt11char_traitsIjESaIjEE5eraseEjj @3397
    _ZNSbIjSt11char_traitsIjESaIjEE6appendERKS2_ @3398
    _ZNSbIjSt11char_traitsIjESaIjEE6assignEPKj @3399
    _ZNSbIjSt11char_traitsIjESaIjEE6assignEPKjj @3400
    _ZNSbIjSt11char_traitsIjESaIjEE6assignERKS2_ @3401
    _ZNSbIjSt11char_traitsIjESaIjEE6insertEjPKjj @3402
    _ZNSbIjSt11char_traitsIjESaIjEE6insertEjRKS2_ @3403
    _ZNSbIjSt11char_traitsIjESaIjEE6insertEjRKS2_jj @3404
    _ZNSbIjSt11char_traitsIjESaIjEE7_M_copyEPjPKjj @3405
    _ZNSbIjSt11char_traitsIjESaIjEE7_M_dataEPj @3406
    _ZNSbIjSt11char_traitsIjESaIjEE7_M_leakEv @3407
    _ZNSbIjSt11char_traitsIjESaIjEE7_M_moveEPjPKjj @3408
    _ZNSbIjSt11char_traitsIjESaIjEE7reserveEj @3409
    _ZNSbIjSt11char_traitsIjESaIjEE9_M_assignEPjjj @3410
    _ZNSbIjSt11char_traitsIjESaIjEE9_M_mutateEjjj @3411
    _ZNSbIjSt11char_traitsIjESaIjEE9push_backEj @3412
    _ZNSbIjSt11char_traitsIjESaIjEEC1ERKS2_ @3413
    _ZNSbIjSt11char_traitsIjESaIjEEC1Ev @3414
    _ZNSbIjSt11char_traitsIjESaIjEED1Ev @3415
    _ZNSbIjSt11char_traitsIjESaIjEEaSEPKj @3416
    _ZNSbIjSt11char_traitsIjESaIjEEaSERKS2_ @3417
    _ZNSbIjSt11char_traitsIjESaIjEEixEj @3418
    _ZNSbIjSt11char_traitsIjESaIjEEpLERKS2_ @3419
    _ZNSbIjSt11char_traitsIjESaIjEEpLEj @3420
    _ZNSs12_S_constructIPKcEEPcT_S3_RKSaIcE @3421
    _ZNSs12_S_constructIPKcEEPcT_S3_RKSaIcESt20forward_iterator_tag @3422
    _ZNSs16_S_construct_auxIPKcEEPcT_S3_RKSaIcESt12__false_type @3423
    _ZNSsC1IPKcEET_S2_RKSaIcE @3424
    _ZNSt10_Iter_baseIN9__gnu_cxx17__normal_iteratorIP6b2Vec2St6vectorIS2_SaIS2_EEEELb0EE7_S_baseES7_ @3425
    _ZNSt10_Iter_baseIN9__gnu_cxx17__normal_iteratorIP6b2Vec2St6vectorIS2_SaIS2_EEEELb1EE7_S_baseES7_ @3426
    _ZNSt10_Iter_baseIN9__gnu_cxx17__normal_iteratorIPKN2sf9VideoModeESt6vectorIS3_SaIS3_EEEELb0EE7_S_baseES9_ @3427
    _ZNSt10_Iter_baseIN9__gnu_cxx17__normal_iteratorIPKN2sf9VideoModeESt6vectorIS3_SaIS3_EEEELb1EE7_S_baseES9_ @3428
    _ZNSt10_Iter_baseIN9__gnu_cxx17__normal_iteratorIPKhSt6vectorIhSaIhEEEELb0EE7_S_baseES7_ @3429
    _ZNSt10_Iter_baseIN9__gnu_cxx17__normal_iteratorIPKhSt6vectorIhSaIhEEEELb1EE7_S_baseES7_ @3430
    _ZNSt10_Iter_baseIN9__gnu_cxx17__normal_iteratorIPKsSt6vectorIsSaIsEEEELb0EE7_S_baseES7_ @3431
    _ZNSt10_Iter_baseIN9__gnu_cxx17__normal_iteratorIPKsSt6vectorIsSaIsEEEELb1EE7_S_baseES7_ @3432
    _ZNSt10_Iter_baseIN9__gnu_cxx17__normal_iteratorIPN2sf9VideoModeESt6vectorIS3_SaIS3_EEEELb0EE7_S_baseES8_ @3433
    _ZNSt10_Iter_baseIN9__gnu_cxx17__normal_iteratorIPN2sf9VideoModeESt6vectorIS3_SaIS3_EEEELb1EE7_S_baseES8_ @3434
    _ZNSt10_Iter_baseIP6b2PairLb0EE7_S_baseES1_ @3435
    _ZNSt10_Iter_baseIP6b2Vec2Lb0EE7_S_baseES1_ @3436
    _ZNSt10_Iter_baseIPKjLb0EE7_S_baseES1_ @3437
    _ZNSt10_Iter_baseIPKsLb0EE7_S_baseES1_ @3438
    _ZNSt10_Iter_baseIPN2sf4Font3RowELb0EE7_S_baseES3_ @3439
    _ZNSt10_Iter_baseIPN2sf6VertexELb0EE7_S_baseES2_ @3440
    _ZNSt10_Iter_baseIPN2sf9VideoModeELb0EE7_S_baseES2_ @3441
    _ZNSt10_Iter_baseIPN4Json12PathArgumentELb0EE7_S_baseES2_ @3442
    _ZNSt10_Iter_baseIPN4Json6Reader9ErrorInfoELb0EE7_S_baseES3_ @3443
    _ZNSt10_Iter_baseIPN6XeCore6Common6StringELb0EE7_S_baseES3_ @3444
    _ZNSt10_Iter_baseIPPKN4Json12PathArgumentELb0EE7_S_baseES4_ @3445
    _ZNSt10_Iter_baseIPPN2sf5EventELb0EE7_S_baseES3_ @3446
    _ZNSt10_Iter_baseIPPN4Json6Reader9ErrorInfoELb0EE7_S_baseES4_ @3447
    _ZNSt10_Iter_baseIPPPN4Json5ValueELb0EE7_S_baseES4_ @3448
    _ZNSt10_Iter_baseIPSsLb0EE7_S_baseES0_ @3449
    _ZNSt10_Iter_baseIPbLb0EE7_S_baseES0_ @3450
    _ZNSt10_Iter_baseIPcLb0EE7_S_baseES0_ @3451
    _ZNSt10_Iter_baseIPfLb0EE7_S_baseES0_ @3452
    _ZNSt10_Iter_baseIPhLb0EE7_S_baseES0_ @3453
    _ZNSt10_Iter_baseIPjLb0EE7_S_baseES0_ @3454
    _ZNSt10_Iter_baseIPsLb0EE7_S_baseES0_ @3455
    _ZNSt10_Iter_baseISt15_Deque_iteratorIN2sf5EventERKS2_PS3_ELb0EE7_S_baseES6_ @3456
    _ZNSt10_Iter_baseISt15_Deque_iteratorIN2sf5EventERS2_PS2_ELb0EE7_S_baseES5_ @3457
    _ZNSt10_Iter_baseISt15_Deque_iteratorIPN4Json5ValueERKS3_PS4_ELb0EE7_S_baseES7_ @3458
    _ZNSt10_Iter_baseISt15_Deque_iteratorIPN4Json5ValueERS3_PS3_ELb0EE7_S_baseES6_ @3459
    _ZNSt10_Iter_baseISt23_Rb_tree_const_iteratorISt4pairIKN4Json5Value8CZStringES3_EELb0EE7_S_baseES7_ @3460
    _ZNSt10_List_baseIPN9Ptakopysk10GameObjectESaIS2_EE10_List_implC1Ev @3461
    _ZNSt10_List_baseIPN9Ptakopysk10GameObjectESaIS2_EE10_List_implD1Ev @3462
    _ZNSt10_List_baseIPN9Ptakopysk10GameObjectESaIS2_EE11_M_get_nodeEv @3463
    _ZNSt10_List_baseIPN9Ptakopysk10GameObjectESaIS2_EE11_M_put_nodeEPSt10_List_nodeIS2_E @3464
    _ZNSt10_List_baseIPN9Ptakopysk10GameObjectESaIS2_EE21_M_get_Node_allocatorEv @3465
    _ZNSt10_List_baseIPN9Ptakopysk10GameObjectESaIS2_EE7_M_initEv @3466
    _ZNSt10_List_baseIPN9Ptakopysk10GameObjectESaIS2_EE8_M_clearEv @3467
    _ZNSt10_List_baseIPN9Ptakopysk10GameObjectESaIS2_EEC2Ev @3468
    _ZNSt10_List_baseIPN9Ptakopysk10GameObjectESaIS2_EED2Ev @3469
    _ZNSt10_List_baseIPN9Ptakopysk6Events5EventESaIS3_EE10_List_implC1Ev @3470
    _ZNSt10_List_baseIPN9Ptakopysk6Events5EventESaIS3_EE10_List_implD1Ev @3471
    _ZNSt10_List_baseIPN9Ptakopysk6Events5EventESaIS3_EE11_M_get_nodeEv @3472
    _ZNSt10_List_baseIPN9Ptakopysk6Events5EventESaIS3_EE11_M_put_nodeEPSt10_List_nodeIS3_E @3473
    _ZNSt10_List_baseIPN9Ptakopysk6Events5EventESaIS3_EE7_M_initEv @3474
    _ZNSt10_List_baseIPN9Ptakopysk6Events5EventESaIS3_EE8_M_clearEv @3475
    _ZNSt10_List_baseIPN9Ptakopysk6Events5EventESaIS3_EEC2Ev @3476
    _ZNSt10_List_baseIPN9Ptakopysk6Events5EventESaIS3_EED2Ev @3477
    _ZNSt11_Deque_baseIN2sf5EventESaIS1_EE11_Deque_implC1ERKS2_ @3478
    _ZNSt11_Deque_baseIN2sf5EventESaIS1_EE11_Deque_implC1Ev @3479
    _ZNSt11_Deque_baseIN2sf5EventESaIS1_EE11_Deque_implD1Ev @3480
    _ZNSt11_Deque_baseIN2sf5EventESaIS1_EE15_M_allocate_mapEj @3481
    _ZNSt11_Deque_baseIN2sf5EventESaIS1_EE15_M_create_nodesEPPS1_S5_ @3482
    _ZNSt11_Deque_baseIN2sf5EventESaIS1_EE16_M_allocate_nodeEv @3483
    _ZNSt11_Deque_baseIN2sf5EventESaIS1_EE16_M_destroy_nodesEPPS1_S5_ @3484
    _ZNSt11_Deque_baseIN2sf5EventESaIS1_EE17_M_deallocate_mapEPPS1_j @3485
    _ZNSt11_Deque_baseIN2sf5EventESaIS1_EE17_M_initialize_mapEj @3486
    _ZNSt11_Deque_baseIN2sf5EventESaIS1_EE18_M_deallocate_nodeEPS1_ @3487
    _ZNSt11_Deque_baseIN2sf5EventESaIS1_EE19_M_get_Tp_allocatorEv @3488
    _ZNSt11_Deque_baseIN2sf5EventESaIS1_EEC2ERKS2_j @3489
    _ZNSt11_Deque_baseIN2sf5EventESaIS1_EEC2Ev @3490
    _ZNSt11_Deque_baseIN2sf5EventESaIS1_EED2Ev @3491
    _ZNSt11_Deque_baseIN4Json6Reader9ErrorInfoESaIS2_EE11_Deque_implC1Ev @3492
    _ZNSt11_Deque_baseIN4Json6Reader9ErrorInfoESaIS2_EE11_Deque_implD1Ev @3493
    _ZNSt11_Deque_baseIN4Json6Reader9ErrorInfoESaIS2_EE15_M_allocate_mapEj @3494
    _ZNSt11_Deque_baseIN4Json6Reader9ErrorInfoESaIS2_EE15_M_create_nodesEPPS2_S6_ @3495
    _ZNSt11_Deque_baseIN4Json6Reader9ErrorInfoESaIS2_EE16_M_allocate_nodeEv @3496
    _ZNSt11_Deque_baseIN4Json6Reader9ErrorInfoESaIS2_EE16_M_destroy_nodesEPPS2_S6_ @3497
    _ZNSt11_Deque_baseIN4Json6Reader9ErrorInfoESaIS2_EE17_M_deallocate_mapEPPS2_j @3498
    _ZNSt11_Deque_baseIN4Json6Reader9ErrorInfoESaIS2_EE17_M_initialize_mapEj @3499
    _ZNSt11_Deque_baseIN4Json6Reader9ErrorInfoESaIS2_EE18_M_deallocate_nodeEPS2_ @3500
    _ZNSt11_Deque_baseIN4Json6Reader9ErrorInfoESaIS2_EE19_M_get_Tp_allocatorEv @3501
    _ZNSt11_Deque_baseIN4Json6Reader9ErrorInfoESaIS2_EEC2Ev @3502
    _ZNSt11_Deque_baseIN4Json6Reader9ErrorInfoESaIS2_EED2Ev @3503
    _ZNSt11_Deque_baseIPN4Json5ValueESaIS2_EE11_Deque_implC1ERKS3_ @3504
    _ZNSt11_Deque_baseIPN4Json5ValueESaIS2_EE11_Deque_implC1Ev @3505
    _ZNSt11_Deque_baseIPN4Json5ValueESaIS2_EE11_Deque_implD1Ev @3506
    _ZNSt11_Deque_baseIPN4Json5ValueESaIS2_EE15_M_allocate_mapEj @3507
    _ZNSt11_Deque_baseIPN4Json5ValueESaIS2_EE15_M_create_nodesEPPS2_S6_ @3508
    _ZNSt11_Deque_baseIPN4Json5ValueESaIS2_EE16_M_allocate_nodeEv @3509
    _ZNSt11_Deque_baseIPN4Json5ValueESaIS2_EE16_M_destroy_nodesEPPS2_S6_ @3510
    _ZNSt11_Deque_baseIPN4Json5ValueESaIS2_EE17_M_deallocate_mapEPPS2_j @3511
    _ZNSt11_Deque_baseIPN4Json5ValueESaIS2_EE17_M_initialize_mapEj @3512
    _ZNSt11_Deque_baseIPN4Json5ValueESaIS2_EE18_M_deallocate_nodeEPS2_ @3513
    _ZNSt11_Deque_baseIPN4Json5ValueESaIS2_EE19_M_get_Tp_allocatorEv @3514
    _ZNSt11_Deque_baseIPN4Json5ValueESaIS2_EEC2ERKS3_j @3515
    _ZNSt11_Deque_baseIPN4Json5ValueESaIS2_EEC2Ev @3516
    _ZNSt11_Deque_baseIPN4Json5ValueESaIS2_EED2Ev @3517
    _ZNSt11__alloc_neqISaISt10_List_nodeIPN9Ptakopysk10GameObjectEEELb1EE8_S_do_itERKS5_S8_ @3518
    _ZNSt11__copy_moveILb0ELb0ESt26random_access_iterator_tagE8__copy_mIP6b2Vec2S4_EET0_T_S6_S5_ @3519
    _ZNSt11__copy_moveILb0ELb0ESt26random_access_iterator_tagE8__copy_mIPKN2sf9VideoModeEPS4_EET0_T_S9_S8_ @3520
    _ZNSt11__copy_moveILb0ELb0ESt26random_access_iterator_tagE8__copy_mIPN2sf9VideoModeES5_EET0_T_S7_S6_ @3521
    _ZNSt11__copy_moveILb0ELb0ESt26random_access_iterator_tagE8__copy_mIPN4Json6Reader9ErrorInfoES6_EET0_T_S8_S7_ @3522
    _ZNSt11__copy_moveILb0ELb0ESt26random_access_iterator_tagE8__copy_mISt15_Deque_iteratorIN2sf5EventERKS5_PS6_ES3_IS5_RS5_PS5_EEET0_T_SE_SD_ @3523
    _ZNSt11__copy_moveILb0ELb0ESt26random_access_iterator_tagE8__copy_mISt15_Deque_iteratorIPN4Json5ValueERKS6_PS7_ES3_IS6_RS6_PS6_EEET0_T_SF_SE_ @3524
    _ZNSt11__copy_moveILb0ELb1ESt26random_access_iterator_tagE8__copy_mIPKN4Json12PathArgumentEEEPT_PKS7_SA_S8_ @3525
    _ZNSt11__copy_moveILb0ELb1ESt26random_access_iterator_tagE8__copy_mIPN2sf5EventEEEPT_PKS6_S9_S7_ @3526
    _ZNSt11__copy_moveILb0ELb1ESt26random_access_iterator_tagE8__copy_mIPN4Json6Reader9ErrorInfoEEEPT_PKS7_SA_S8_ @3527
    _ZNSt11__copy_moveILb0ELb1ESt26random_access_iterator_tagE8__copy_mIPPN4Json5ValueEEEPT_PKS7_SA_S8_ @3528
    _ZNSt11__copy_moveILb0ELb1ESt26random_access_iterator_tagE8__copy_mIcEEPT_PKS3_S6_S4_ @3529
    _ZNSt11__copy_moveILb0ELb1ESt26random_access_iterator_tagE8__copy_mIhEEPT_PKS3_S6_S4_ @3530
    _ZNSt11__copy_moveILb0ELb1ESt26random_access_iterator_tagE8__copy_mIjEEPT_PKS3_S6_S4_ @3531
    _ZNSt11__copy_moveILb0ELb1ESt26random_access_iterator_tagE8__copy_mIsEEPT_PKS3_S6_S4_ @3532
    _ZNSt11__iter_swapILb1EE9iter_swapIN9__gnu_cxx17__normal_iteratorIPN2sf9VideoModeESt6vectorIS5_SaIS5_EEEESA_EEvT_T0_ @3533
    _ZNSt11__iter_swapILb1EE9iter_swapIP6b2PairS3_EEvT_T0_ @3534
    _ZNSt11char_traitsIcE6lengthEPKc @3535
    _ZNSt11char_traitsIcE7compareEPKcS2_j @3536
    _ZNSt12_Destroy_auxILb0EE9__destroyIPN4Json12PathArgumentEEEvT_S5_ @3537
    _ZNSt12_Destroy_auxILb0EE9__destroyIPN4Json6Reader9ErrorInfoEEEvT_S6_ @3538
    _ZNSt12_Destroy_auxILb0EE9__destroyIPN6XeCore6Common6StringEEEvT_S6_ @3539
    _ZNSt12_Destroy_auxILb0EE9__destroyIPSsEEvT_S3_ @3540
    _ZNSt12_Destroy_auxILb0EE9__destroyISt15_Deque_iteratorIN4Json6Reader9ErrorInfoERS5_PS5_EEEvT_S9_ @3541
    _ZNSt12_Destroy_auxILb1EE9__destroyIN9__gnu_cxx17__normal_iteratorIPN2sf9VideoModeESt6vectorIS5_SaIS5_EEEEEEvT_SB_ @3542
    _ZNSt12_Destroy_auxILb1EE9__destroyIP6b2Vec2EEvT_S4_ @3543
    _ZNSt12_Destroy_auxILb1EE9__destroyIPN2sf4Font3RowEEEvT_S6_ @3544
    _ZNSt12_Destroy_auxILb1EE9__destroyIPN2sf6VertexEEEvT_S5_ @3545
    _ZNSt12_Destroy_auxILb1EE9__destroyIPN2sf9VideoModeEEEvT_S5_ @3546
    _ZNSt12_Destroy_auxILb1EE9__destroyIPPKN4Json12PathArgumentEEEvT_S7_ @3547
    _ZNSt12_Destroy_auxILb1EE9__destroyIPcEEvT_S3_ @3548
    _ZNSt12_Destroy_auxILb1EE9__destroyIPhEEvT_S3_ @3549
    _ZNSt12_Destroy_auxILb1EE9__destroyIPsEEvT_S3_ @3550
    _ZNSt12_Vector_baseI6b2Vec2SaIS0_EE11_M_allocateEj @3551
    _ZNSt12_Vector_baseI6b2Vec2SaIS0_EE12_Vector_implC1Ev @3552
    _ZNSt12_Vector_baseI6b2Vec2SaIS0_EE12_Vector_implD1Ev @3553
    _ZNSt12_Vector_baseI6b2Vec2SaIS0_EE13_M_deallocateEPS0_j @3554
    _ZNSt12_Vector_baseI6b2Vec2SaIS0_EE19_M_get_Tp_allocatorEv @3555
    _ZNSt12_Vector_baseI6b2Vec2SaIS0_EEC2Ev @3556
    _ZNSt12_Vector_baseI6b2Vec2SaIS0_EED2Ev @3557
    _ZNSt12_Vector_baseIN2sf4Font3RowESaIS2_EE11_M_allocateEj @3558
    _ZNSt12_Vector_baseIN2sf4Font3RowESaIS2_EE12_Vector_implC1ERKS3_ @3559
    _ZNSt12_Vector_baseIN2sf4Font3RowESaIS2_EE12_Vector_implC1Ev @3560
    _ZNSt12_Vector_baseIN2sf4Font3RowESaIS2_EE12_Vector_implD1Ev @3561
    _ZNSt12_Vector_baseIN2sf4Font3RowESaIS2_EE13_M_deallocateEPS2_j @3562
    _ZNSt12_Vector_baseIN2sf4Font3RowESaIS2_EE17_M_create_storageEj @3563
    _ZNSt12_Vector_baseIN2sf4Font3RowESaIS2_EE19_M_get_Tp_allocatorEv @3564
    _ZNSt12_Vector_baseIN2sf4Font3RowESaIS2_EEC2EjRKS3_ @3565
    _ZNSt12_Vector_baseIN2sf4Font3RowESaIS2_EEC2Ev @3566
    _ZNSt12_Vector_baseIN2sf4Font3RowESaIS2_EED2Ev @3567
    _ZNSt12_Vector_baseIN2sf6VertexESaIS1_EE11_M_allocateEj @3568
    _ZNSt12_Vector_baseIN2sf6VertexESaIS1_EE12_Vector_implC1ERKS2_ @3569
    _ZNSt12_Vector_baseIN2sf6VertexESaIS1_EE12_Vector_implC1Ev @3570
    _ZNSt12_Vector_baseIN2sf6VertexESaIS1_EE12_Vector_implD1Ev @3571
    _ZNSt12_Vector_baseIN2sf6VertexESaIS1_EE13_M_deallocateEPS1_j @3572
    _ZNSt12_Vector_baseIN2sf6VertexESaIS1_EE17_M_create_storageEj @3573
    _ZNSt12_Vector_baseIN2sf6VertexESaIS1_EE19_M_get_Tp_allocatorEv @3574
    _ZNSt12_Vector_baseIN2sf6VertexESaIS1_EEC2EjRKS2_ @3575
    _ZNSt12_Vector_baseIN2sf6VertexESaIS1_EEC2Ev @3576
    _ZNSt12_Vector_baseIN2sf6VertexESaIS1_EED2Ev @3577
    _ZNSt12_Vector_baseIN2sf9VideoModeESaIS1_EE11_M_allocateEj @3578
    _ZNSt12_Vector_baseIN2sf9VideoModeESaIS1_EE12_Vector_implC1Ev @3579
    _ZNSt12_Vector_baseIN2sf9VideoModeESaIS1_EE12_Vector_implD1Ev @3580
    _ZNSt12_Vector_baseIN2sf9VideoModeESaIS1_EE13_M_deallocateEPS1_j @3581
    _ZNSt12_Vector_baseIN2sf9VideoModeESaIS1_EE19_M_get_Tp_allocatorEv @3582
    _ZNSt12_Vector_baseIN2sf9VideoModeESaIS1_EEC2Ev @3583
    _ZNSt12_Vector_baseIN2sf9VideoModeESaIS1_EED2Ev @3584
    _ZNSt12_Vector_baseIN4Json12PathArgumentESaIS1_EE11_M_allocateEj @3585
    _ZNSt12_Vector_baseIN4Json12PathArgumentESaIS1_EE12_Vector_implC1Ev @3586
    _ZNSt12_Vector_baseIN4Json12PathArgumentESaIS1_EE12_Vector_implD1Ev @3587
    _ZNSt12_Vector_baseIN4Json12PathArgumentESaIS1_EE13_M_deallocateEPS1_j @3588
    _ZNSt12_Vector_baseIN4Json12PathArgumentESaIS1_EE19_M_get_Tp_allocatorEv @3589
    _ZNSt12_Vector_baseIN4Json12PathArgumentESaIS1_EEC2Ev @3590
    _ZNSt12_Vector_baseIN4Json12PathArgumentESaIS1_EED2Ev @3591
    _ZNSt12_Vector_baseIN6XeCore6Common6StringESaIS2_EE11_M_allocateEj @3592
    _ZNSt12_Vector_baseIN6XeCore6Common6StringESaIS2_EE12_Vector_implC1Ev @3593
    _ZNSt12_Vector_baseIN6XeCore6Common6StringESaIS2_EE12_Vector_implD1Ev @3594
    _ZNSt12_Vector_baseIN6XeCore6Common6StringESaIS2_EE13_M_deallocateEPS2_j @3595
    _ZNSt12_Vector_baseIN6XeCore6Common6StringESaIS2_EE19_M_get_Tp_allocatorEv @3596
    _ZNSt12_Vector_baseIN6XeCore6Common6StringESaIS2_EEC2Ev @3597
    _ZNSt12_Vector_baseIN6XeCore6Common6StringESaIS2_EED2Ev @3598
    _ZNSt12_Vector_baseIPKN4Json12PathArgumentESaIS3_EE11_M_allocateEj @3599
    _ZNSt12_Vector_baseIPKN4Json12PathArgumentESaIS3_EE12_Vector_implC1Ev @3600
    _ZNSt12_Vector_baseIPKN4Json12PathArgumentESaIS3_EE12_Vector_implD1Ev @3601
    _ZNSt12_Vector_baseIPKN4Json12PathArgumentESaIS3_EE13_M_deallocateEPS3_j @3602
    _ZNSt12_Vector_baseIPKN4Json12PathArgumentESaIS3_EE19_M_get_Tp_allocatorEv @3603
    _ZNSt12_Vector_baseIPKN4Json12PathArgumentESaIS3_EEC2Ev @3604
    _ZNSt12_Vector_baseIPKN4Json12PathArgumentESaIS3_EED2Ev @3605
    _ZNSt12_Vector_baseISsSaISsEE11_M_allocateEj @3606
    _ZNSt12_Vector_baseISsSaISsEE12_Vector_implC1ERKS0_ @3607
    _ZNSt12_Vector_baseISsSaISsEE12_Vector_implC1Ev @3608
    _ZNSt12_Vector_baseISsSaISsEE12_Vector_implD1Ev @3609
    _ZNSt12_Vector_baseISsSaISsEE13_M_deallocateEPSsj @3610
    _ZNSt12_Vector_baseISsSaISsEE17_M_create_storageEj @3611
    _ZNSt12_Vector_baseISsSaISsEE19_M_get_Tp_allocatorEv @3612
    _ZNSt12_Vector_baseISsSaISsEEC2EjRKS0_ @3613
    _ZNSt12_Vector_baseISsSaISsEEC2Ev @3614
    _ZNSt12_Vector_baseISsSaISsEED2Ev @3615
    _ZNSt12_Vector_baseIcSaIcEE11_M_allocateEj @3616
    _ZNSt12_Vector_baseIcSaIcEE12_Vector_implC1Ev @3617
    _ZNSt12_Vector_baseIcSaIcEE12_Vector_implD1Ev @3618
    _ZNSt12_Vector_baseIcSaIcEE13_M_deallocateEPcj @3619
    _ZNSt12_Vector_baseIcSaIcEE19_M_get_Tp_allocatorEv @3620
    _ZNSt12_Vector_baseIcSaIcEEC2Ev @3621
    _ZNSt12_Vector_baseIcSaIcEED2Ev @3622
    _ZNSt12_Vector_baseIhSaIhEE11_M_allocateEj @3623
    _ZNSt12_Vector_baseIhSaIhEE12_Vector_impl12_M_swap_dataERS2_ @3624
    _ZNSt12_Vector_baseIhSaIhEE12_Vector_implC1ERKS0_ @3625
    _ZNSt12_Vector_baseIhSaIhEE12_Vector_implC1Ev @3626
    _ZNSt12_Vector_baseIhSaIhEE12_Vector_implD1Ev @3627
    _ZNSt12_Vector_baseIhSaIhEE13_M_deallocateEPhj @3628
    _ZNSt12_Vector_baseIhSaIhEE17_M_create_storageEj @3629
    _ZNSt12_Vector_baseIhSaIhEE19_M_get_Tp_allocatorEv @3630
    _ZNSt12_Vector_baseIhSaIhEEC2EjRKS0_ @3631
    _ZNSt12_Vector_baseIhSaIhEEC2Ev @3632
    _ZNSt12_Vector_baseIhSaIhEED2Ev @3633
    _ZNSt12_Vector_baseIsSaIsEE11_M_allocateEj @3634
    _ZNSt12_Vector_baseIsSaIsEE12_Vector_impl12_M_swap_dataERS2_ @3635
    _ZNSt12_Vector_baseIsSaIsEE12_Vector_implC1ERKS0_ @3636
    _ZNSt12_Vector_baseIsSaIsEE12_Vector_implC1Ev @3637
    _ZNSt12_Vector_baseIsSaIsEE12_Vector_implD1Ev @3638
    _ZNSt12_Vector_baseIsSaIsEE13_M_deallocateEPsj @3639
    _ZNSt12_Vector_baseIsSaIsEE17_M_create_storageEj @3640
    _ZNSt12_Vector_baseIsSaIsEE19_M_get_Tp_allocatorEv @3641
    _ZNSt12_Vector_baseIsSaIsEEC2EjRKS0_ @3642
    _ZNSt12_Vector_baseIsSaIsEEC2Ev @3643
    _ZNSt12_Vector_baseIsSaIsEED2Ev @3644
    _ZNSt12__alloc_swapISaISt10_List_nodeIPN9Ptakopysk10GameObjectEEELb1EE8_S_do_itERS5_S7_ @3645
    _ZNSt12__alloc_swapISaISt13_Rb_tree_nodeIPN2sf5SoundEEELb1EE8_S_do_itERS5_S7_ @3646
    _ZNSt12__alloc_swapISaISt13_Rb_tree_nodeISt4pairIKjN2sf4Font4PageEEEELb1EE8_S_do_itERS8_SA_ @3647
    _ZNSt12__alloc_swapISaIhELb1EE8_S_do_itERS0_S2_ @3648
    _ZNSt12__alloc_swapISaIsELb1EE8_S_do_itERS0_S2_ @3649
    _ZNSt14_List_iteratorIPN9Ptakopysk10GameObjectEEC1EPNSt8__detail15_List_node_baseE @3650
    _ZNSt14_List_iteratorIPN9Ptakopysk10GameObjectEEppEi @3651
    _ZNSt14_List_iteratorIPN9Ptakopysk10GameObjectEEppEv @3652
    _ZNSt14_List_iteratorIPN9Ptakopysk6Events5EventEEC1EPNSt8__detail15_List_node_baseE @3653
    _ZNSt14_List_iteratorIPN9Ptakopysk6Events5EventEEppEi @3654
    _ZNSt14numeric_limitsIfE8infinityEv @3655
    _ZNSt15_Deque_iteratorIN2sf5EventERKS1_PS2_E11_M_set_nodeEPPS1_ @3656
    _ZNSt15_Deque_iteratorIN2sf5EventERKS1_PS2_E14_S_buffer_sizeEv @3657
    _ZNSt15_Deque_iteratorIN2sf5EventERKS1_PS2_EC1ERKS_IS1_RS1_PS1_E @3658
    _ZNSt15_Deque_iteratorIN2sf5EventERKS1_PS2_EppEv @3659
    _ZNSt15_Deque_iteratorIN2sf5EventERS1_PS1_E11_M_set_nodeEPS3_ @3660
    _ZNSt15_Deque_iteratorIN2sf5EventERS1_PS1_E14_S_buffer_sizeEv @3661
    _ZNSt15_Deque_iteratorIN2sf5EventERS1_PS1_EC1ERKS4_ @3662
    _ZNSt15_Deque_iteratorIN2sf5EventERS1_PS1_EC1Ev @3663
    _ZNSt15_Deque_iteratorIN2sf5EventERS1_PS1_EppEv @3664
    _ZNSt15_Deque_iteratorIN4Json6Reader9ErrorInfoERKS2_PS3_E11_M_set_nodeEPPS2_ @3665
    _ZNSt15_Deque_iteratorIN4Json6Reader9ErrorInfoERKS2_PS3_E14_S_buffer_sizeEv @3666
    _ZNSt15_Deque_iteratorIN4Json6Reader9ErrorInfoERKS2_PS3_EC1ERKS_IS2_RS2_PS2_E @3667
    _ZNSt15_Deque_iteratorIN4Json6Reader9ErrorInfoERKS2_PS3_EmIEi @3668
    _ZNSt15_Deque_iteratorIN4Json6Reader9ErrorInfoERKS2_PS3_EpLEi @3669
    _ZNSt15_Deque_iteratorIN4Json6Reader9ErrorInfoERKS2_PS3_EppEv @3670
    _ZNSt15_Deque_iteratorIN4Json6Reader9ErrorInfoERS2_PS2_E11_M_set_nodeEPS4_ @3671
    _ZNSt15_Deque_iteratorIN4Json6Reader9ErrorInfoERS2_PS2_E14_S_buffer_sizeEv @3672
    _ZNSt15_Deque_iteratorIN4Json6Reader9ErrorInfoERS2_PS2_EC1ERKS5_ @3673
    _ZNSt15_Deque_iteratorIN4Json6Reader9ErrorInfoERS2_PS2_EC1Ev @3674
    _ZNSt15_Deque_iteratorIN4Json6Reader9ErrorInfoERS2_PS2_EmIEi @3675
    _ZNSt15_Deque_iteratorIN4Json6Reader9ErrorInfoERS2_PS2_EpLEi @3676
    _ZNSt15_Deque_iteratorIN4Json6Reader9ErrorInfoERS2_PS2_EppEv @3677
    _ZNSt15_Deque_iteratorIPN4Json5ValueERKS2_PS3_E11_M_set_nodeEPPS2_ @3678
    _ZNSt15_Deque_iteratorIPN4Json5ValueERKS2_PS3_E14_S_buffer_sizeEv @3679
    _ZNSt15_Deque_iteratorIPN4Json5ValueERKS2_PS3_EC1ERKS_IS2_RS2_PS2_E @3680
    _ZNSt15_Deque_iteratorIPN4Json5ValueERKS2_PS3_EppEv @3681
    _ZNSt15_Deque_iteratorIPN4Json5ValueERS2_PS2_E11_M_set_nodeEPS4_ @3682
    _ZNSt15_Deque_iteratorIPN4Json5ValueERS2_PS2_E14_S_buffer_sizeEv @3683
    _ZNSt15_Deque_iteratorIPN4Json5ValueERS2_PS2_EC1ERKS5_ @3684
    _ZNSt15_Deque_iteratorIPN4Json5ValueERS2_PS2_EC1Ev @3685
    _ZNSt15_Deque_iteratorIPN4Json5ValueERS2_PS2_EmmEv @3686
    _ZNSt15_Deque_iteratorIPN4Json5ValueERS2_PS2_EppEv @3687
    _ZNSt17_Rb_tree_iteratorIPN2sf4priv9GlContextEEC1EPSt13_Rb_tree_nodeIS3_E @3688
    _ZNSt17_Rb_tree_iteratorIPN2sf4priv9GlContextEEmmEv @3689
    _ZNSt17_Rb_tree_iteratorIPN2sf5SoundEEC1EPSt13_Rb_tree_nodeIS2_E @3690
    _ZNSt17_Rb_tree_iteratorIPN2sf5SoundEEmmEv @3691
    _ZNSt17_Rb_tree_iteratorISt4pairIKN4Json5Value8CZStringES2_EEC1EPSt13_Rb_tree_nodeIS5_E @3692
    _ZNSt17_Rb_tree_iteratorISt4pairIKN4Json5Value8CZStringES2_EEC1Ev @3693
    _ZNSt17_Rb_tree_iteratorISt4pairIKN4Json5Value8CZStringES2_EEmmEv @3694
    _ZNSt17_Rb_tree_iteratorISt4pairIKN4Json5Value8CZStringES2_EEppEv @3695
    _ZNSt17_Rb_tree_iteratorISt4pairIKSsN9Ptakopysk11GameManager20ComponentFactoryDataEEEC1EPSt13_Rb_tree_nodeIS5_E @3696
    _ZNSt17_Rb_tree_iteratorISt4pairIKSsN9Ptakopysk11GameManager20ComponentFactoryDataEEEmmEv @3697
    _ZNSt17_Rb_tree_iteratorISt4pairIKSsN9Ptakopysk11GameManager20ComponentFactoryDataEEEppEi @3698
    _ZNSt17_Rb_tree_iteratorISt4pairIKSsPN2sf11SoundBufferEEEC1EPSt13_Rb_tree_nodeIS5_E @3699
    _ZNSt17_Rb_tree_iteratorISt4pairIKSsPN2sf11SoundBufferEEEmmEv @3700
    _ZNSt17_Rb_tree_iteratorISt4pairIKSsPN2sf11SoundBufferEEEppEi @3701
    _ZNSt17_Rb_tree_iteratorISt4pairIKSsPN2sf4FontEEEC1EPSt13_Rb_tree_nodeIS5_E @3702
    _ZNSt17_Rb_tree_iteratorISt4pairIKSsPN2sf4FontEEEmmEv @3703
    _ZNSt17_Rb_tree_iteratorISt4pairIKSsPN2sf4FontEEEppEi @3704
    _ZNSt17_Rb_tree_iteratorISt4pairIKSsPN2sf5MusicEEEC1EPSt13_Rb_tree_nodeIS5_E @3705
    _ZNSt17_Rb_tree_iteratorISt4pairIKSsPN2sf5MusicEEEmmEv @3706
    _ZNSt17_Rb_tree_iteratorISt4pairIKSsPN2sf5MusicEEEppEi @3707
    _ZNSt17_Rb_tree_iteratorISt4pairIKSsPN2sf5SoundEEEC1EPSt13_Rb_tree_nodeIS5_E @3708
    _ZNSt17_Rb_tree_iteratorISt4pairIKSsPN2sf5SoundEEEmmEv @3709
    _ZNSt17_Rb_tree_iteratorISt4pairIKSsPN2sf5SoundEEEppEi @3710
    _ZNSt17_Rb_tree_iteratorISt4pairIKSsPN2sf6ShaderEEEC1EPSt13_Rb_tree_nodeIS5_E @3711
    _ZNSt17_Rb_tree_iteratorISt4pairIKSsPN2sf6ShaderEEEmmEv @3712
    _ZNSt17_Rb_tree_iteratorISt4pairIKSsPN2sf6ShaderEEEppEi @3713
    _ZNSt17_Rb_tree_iteratorISt4pairIKSsPN2sf7TextureEEEC1EPSt13_Rb_tree_nodeIS5_E @3714
    _ZNSt17_Rb_tree_iteratorISt4pairIKSsPN2sf7TextureEEEmmEv @3715
    _ZNSt17_Rb_tree_iteratorISt4pairIKSsPN2sf7TextureEEEppEi @3716
    _ZNSt17_Rb_tree_iteratorISt4pairIKSsPN9Ptakopysk10Serialized17ICustomSerializerEEEC1EPSt13_Rb_tree_nodeIS6_E @3717
    _ZNSt17_Rb_tree_iteratorISt4pairIKSsPN9Ptakopysk10Serialized17ICustomSerializerEEEmmEv @3718
    _ZNSt17_Rb_tree_iteratorISt4pairIKSsPN9Ptakopysk10Serialized17ICustomSerializerEEEppEi @3719
    _ZNSt17_Rb_tree_iteratorISt4pairIKSsSsEEC1EPSt13_Rb_tree_nodeIS2_E @3720
    _ZNSt17_Rb_tree_iteratorISt4pairIKSsSsEEmmEv @3721
    _ZNSt17_Rb_tree_iteratorISt4pairIKSsSsEEppEi @3722
    _ZNSt17_Rb_tree_iteratorISt4pairIKSsiEEC1EPSt13_Rb_tree_nodeIS2_E @3723
    _ZNSt17_Rb_tree_iteratorISt4pairIKSsiEEmmEv @3724
    _ZNSt17_Rb_tree_iteratorISt4pairIKSsiEEppEi @3725
    _ZNSt17_Rb_tree_iteratorISt4pairIKiPKN2sf7TextureEEEC1EPSt13_Rb_tree_nodeIS6_E @3726
    _ZNSt17_Rb_tree_iteratorISt4pairIKiPKN2sf7TextureEEEmmEv @3727
    _ZNSt17_Rb_tree_iteratorISt4pairIKjN2sf4Font4PageEEEC1EPSt13_Rb_tree_nodeIS5_E @3728
    _ZNSt17_Rb_tree_iteratorISt4pairIKjN2sf4Font4PageEEEmmEv @3729
    _ZNSt17_Rb_tree_iteratorISt4pairIKjN2sf5GlyphEEEC1EPSt13_Rb_tree_nodeIS4_E @3730
    _ZNSt17_Rb_tree_iteratorISt4pairIKjN2sf5GlyphEEEmmEv @3731
    _ZNSt17_Rb_tree_iteratorISt4pairIKjPN9Ptakopysk9ComponentEEEC1EPSt13_Rb_tree_nodeIS5_E @3732
    _ZNSt17_Rb_tree_iteratorISt4pairIKjPN9Ptakopysk9ComponentEEEmmEv @3733
    _ZNSt17_Rb_tree_iteratorISt4pairIKjPN9Ptakopysk9ComponentEEEppEi @3734
    _ZNSt18_Rb_tree_node_base10_S_maximumEPS_ @3735
    _ZNSt18_Rb_tree_node_base10_S_minimumEPS_ @3736
    _ZNSt20__copy_move_backwardILb0ELb0ESt26random_access_iterator_tagE13__copy_move_bIP6b2Vec2S4_EET0_T_S6_S5_ @3737
    _ZNSt20__copy_move_backwardILb0ELb0ESt26random_access_iterator_tagE13__copy_move_bIPN2sf4Font3RowES6_EET0_T_S8_S7_ @3738
    _ZNSt20__copy_move_backwardILb0ELb0ESt26random_access_iterator_tagE13__copy_move_bIPN2sf6VertexES5_EET0_T_S7_S6_ @3739
    _ZNSt20__copy_move_backwardILb0ELb0ESt26random_access_iterator_tagE13__copy_move_bIPN2sf9VideoModeES5_EET0_T_S7_S6_ @3740
    _ZNSt20__copy_move_backwardILb0ELb0ESt26random_access_iterator_tagE13__copy_move_bIPN4Json12PathArgumentES5_EET0_T_S7_S6_ @3741
    _ZNSt20__copy_move_backwardILb0ELb0ESt26random_access_iterator_tagE13__copy_move_bIPN4Json6Reader9ErrorInfoES6_EET0_T_S8_S7_ @3742
    _ZNSt20__copy_move_backwardILb0ELb0ESt26random_access_iterator_tagE13__copy_move_bIPN6XeCore6Common6StringES6_EET0_T_S8_S7_ @3743
    _ZNSt20__copy_move_backwardILb0ELb0ESt26random_access_iterator_tagE13__copy_move_bIPSsS3_EET0_T_S5_S4_ @3744
    _ZNSt20__copy_move_backwardILb0ELb1ESt26random_access_iterator_tagE13__copy_move_bI6b2PairEEPT_PKS4_S7_S5_ @3745
    _ZNSt20__copy_move_backwardILb0ELb1ESt26random_access_iterator_tagE13__copy_move_bIPKN4Json12PathArgumentEEEPT_PKS7_SA_S8_ @3746
    _ZNSt20__copy_move_backwardILb0ELb1ESt26random_access_iterator_tagE13__copy_move_bIPN2sf5EventEEEPT_PKS6_S9_S7_ @3747
    _ZNSt20__copy_move_backwardILb0ELb1ESt26random_access_iterator_tagE13__copy_move_bIPN4Json6Reader9ErrorInfoEEEPT_PKS7_SA_S8_ @3748
    _ZNSt20__copy_move_backwardILb0ELb1ESt26random_access_iterator_tagE13__copy_move_bIPPN4Json5ValueEEEPT_PKS7_SA_S8_ @3749
    _ZNSt20__copy_move_backwardILb0ELb1ESt26random_access_iterator_tagE13__copy_move_bIcEEPT_PKS3_S6_S4_ @3750
    _ZNSt20__copy_move_backwardILb0ELb1ESt26random_access_iterator_tagE13__copy_move_bIhEEPT_PKS3_S6_S4_ @3751
    _ZNSt20__copy_move_backwardILb0ELb1ESt26random_access_iterator_tagE13__copy_move_bIsEEPT_PKS3_S6_S4_ @3752
    _ZNSt20__uninitialized_copyILb0EE13__uninit_copyIN9__gnu_cxx17__normal_iteratorIP6b2Vec2St6vectorIS4_SaIS4_EEEES5_EET0_T_SB_SA_ @3753
    _ZNSt20__uninitialized_copyILb0EE13__uninit_copyIN9__gnu_cxx17__normal_iteratorIPKN2sf4Font3RowESt6vectorIS6_SaIS6_EEEEPS6_EET0_T_SF_SE_ @3754
    _ZNSt20__uninitialized_copyILb0EE13__uninit_copyIN9__gnu_cxx17__normal_iteratorIPKN2sf9VideoModeESt6vectorIS5_SaIS5_EEEEPS5_EET0_T_SE_SD_ @3755
    _ZNSt20__uninitialized_copyILb0EE13__uninit_copyIN9__gnu_cxx17__normal_iteratorIPKSsSt6vectorISsSaISsEEEEPSsEET0_T_SC_SB_ @3756
    _ZNSt20__uninitialized_copyILb0EE13__uninit_copyIP6b2Vec2S3_EET0_T_S5_S4_ @3757
    _ZNSt20__uninitialized_copyILb0EE13__uninit_copyIPN2sf4Font3RowES5_EET0_T_S7_S6_ @3758
    _ZNSt20__uninitialized_copyILb0EE13__uninit_copyIPN2sf6VertexES4_EET0_T_S6_S5_ @3759
    _ZNSt20__uninitialized_copyILb0EE13__uninit_copyIPN2sf9VideoModeES4_EET0_T_S6_S5_ @3760
    _ZNSt20__uninitialized_copyILb0EE13__uninit_copyIPN4Json12PathArgumentES4_EET0_T_S6_S5_ @3761
    _ZNSt20__uninitialized_copyILb0EE13__uninit_copyIPN6XeCore6Common6StringES5_EET0_T_S7_S6_ @3762
    _ZNSt20__uninitialized_copyILb0EE13__uninit_copyIPSsS2_EET0_T_S4_S3_ @3763
    _ZNSt20__uninitialized_copyILb0EE13__uninit_copyISt15_Deque_iteratorIN4Json6Reader9ErrorInfoERS5_PS5_ES8_EET0_T_SA_S9_ @3764
    _ZNSt20__uninitialized_copyILb1EE13__uninit_copyIN9__gnu_cxx17__normal_iteratorIPKhSt6vectorIhSaIhEEEEPhEET0_T_SC_SB_ @3765
    _ZNSt20__uninitialized_copyILb1EE13__uninit_copyIN9__gnu_cxx17__normal_iteratorIPKsSt6vectorIsSaIsEEEEPsEET0_T_SC_SB_ @3766
    _ZNSt20__uninitialized_copyILb1EE13__uninit_copyIPKsPsEET0_T_S6_S5_ @3767
    _ZNSt20__uninitialized_copyILb1EE13__uninit_copyIPPKN4Json12PathArgumentES6_EET0_T_S8_S7_ @3768
    _ZNSt20__uninitialized_copyILb1EE13__uninit_copyIPcS2_EET0_T_S4_S3_ @3769
    _ZNSt20__uninitialized_copyILb1EE13__uninit_copyIPhS2_EET0_T_S4_S3_ @3770
    _ZNSt20__uninitialized_copyILb1EE13__uninit_copyIPsS2_EET0_T_S4_S3_ @3771
    _ZNSt20__uninitialized_copyILb1EE13__uninit_copyISt15_Deque_iteratorIN2sf5EventERKS4_PS5_ES2_IS4_RS4_PS4_EEET0_T_SD_SC_ @3772
    _ZNSt20__uninitialized_copyILb1EE13__uninit_copyISt15_Deque_iteratorIPN4Json5ValueERKS5_PS6_ES2_IS5_RS5_PS5_EEET0_T_SE_SD_ @3773
    _ZNSt20__uninitialized_fillILb0EE13__uninit_fillISt15_Deque_iteratorIN4Json6Reader9ErrorInfoERS5_PS5_ES5_EEvT_S9_RKT0_ @3774
    _ZNSt20back_insert_iteratorISbIjSt11char_traitsIjESaIjEEEC1ERS3_ @3775
    _ZNSt20back_insert_iteratorISbIjSt11char_traitsIjESaIjEEEaSERKj @3776
    _ZNSt20back_insert_iteratorISbIjSt11char_traitsIjESaIjEEEdeEv @3777
    _ZNSt20back_insert_iteratorISbIjSt11char_traitsIjESaIjEEEppEi @3778
    _ZNSt20back_insert_iteratorISbIwSt11char_traitsIwESaIwEEEC1ERS3_ @3779
    _ZNSt20back_insert_iteratorISbIwSt11char_traitsIwESaIwEEEaSERKw @3780
    _ZNSt20back_insert_iteratorISbIwSt11char_traitsIwESaIwEEEdeEv @3781
    _ZNSt20back_insert_iteratorISbIwSt11char_traitsIwESaIwEEEppEi @3782
    _ZNSt20back_insert_iteratorISsEC1ERSs @3783
    _ZNSt20back_insert_iteratorISsEaSERKc @3784
    _ZNSt20back_insert_iteratorISsEdeEv @3785
    _ZNSt20back_insert_iteratorISsEppEi @3786
    _ZNSt22__uninitialized_fill_nILb0EE15__uninit_fill_nIP6b2Vec2jS2_EEvT_T0_RKT1_ @3787
    _ZNSt22__uninitialized_fill_nILb0EE15__uninit_fill_nIPN2sf6VertexEjS3_EEvT_T0_RKT1_ @3788
    _ZNSt22__uninitialized_fill_nILb1EE15__uninit_fill_nIPcjcEEvT_T0_RKT1_ @3789
    _ZNSt22__uninitialized_fill_nILb1EE15__uninit_fill_nIPhjhEEvT_T0_RKT1_ @3790
    _ZNSt22__uninitialized_fill_nILb1EE15__uninit_fill_nIPsjsEEvT_T0_RKT1_ @3791
    _ZNSt23_Rb_tree_const_iteratorIPN2sf4priv9GlContextEEC1EPKSt13_Rb_tree_nodeIS3_E @3792
    _ZNSt23_Rb_tree_const_iteratorIPN2sf4priv9GlContextEEC1ERKSt17_Rb_tree_iteratorIS3_E @3793
    _ZNSt23_Rb_tree_const_iteratorIPN2sf4priv9GlContextEEppEv @3794
    _ZNSt23_Rb_tree_const_iteratorIPN2sf5SoundEEC1EPKSt13_Rb_tree_nodeIS2_E @3795
    _ZNSt23_Rb_tree_const_iteratorIPN2sf5SoundEEC1ERKSt17_Rb_tree_iteratorIS2_E @3796
    _ZNSt23_Rb_tree_const_iteratorIPN2sf5SoundEEppEi @3797
    _ZNSt23_Rb_tree_const_iteratorIPN2sf5SoundEEppEv @3798
    _ZNSt23_Rb_tree_const_iteratorISt4pairIKN4Json5Value8CZStringES2_EEC1EPKSt13_Rb_tree_nodeIS5_E @3799
    _ZNSt23_Rb_tree_const_iteratorISt4pairIKN4Json5Value8CZStringES2_EEC1ERKSt17_Rb_tree_iteratorIS5_E @3800
    _ZNSt23_Rb_tree_const_iteratorISt4pairIKN4Json5Value8CZStringES2_EEmmEv @3801
    _ZNSt23_Rb_tree_const_iteratorISt4pairIKN4Json5Value8CZStringES2_EEppEi @3802
    _ZNSt23_Rb_tree_const_iteratorISt4pairIKN4Json5Value8CZStringES2_EEppEv @3803
    _ZNSt23_Rb_tree_const_iteratorISt4pairIKSsN9Ptakopysk11GameManager20ComponentFactoryDataEEEC1EPKSt13_Rb_tree_nodeIS5_E @3804
    _ZNSt23_Rb_tree_const_iteratorISt4pairIKSsN9Ptakopysk11GameManager20ComponentFactoryDataEEEC1ERKSt17_Rb_tree_iteratorIS5_E @3805
    _ZNSt23_Rb_tree_const_iteratorISt4pairIKSsN9Ptakopysk11GameManager20ComponentFactoryDataEEEmmEv @3806
    _ZNSt23_Rb_tree_const_iteratorISt4pairIKSsN9Ptakopysk11GameManager20ComponentFactoryDataEEEppEi @3807
    _ZNSt23_Rb_tree_const_iteratorISt4pairIKSsN9Ptakopysk11GameManager20ComponentFactoryDataEEEppEv @3808
    _ZNSt23_Rb_tree_const_iteratorISt4pairIKSsPN2sf11SoundBufferEEEC1EPKSt13_Rb_tree_nodeIS5_E @3809
    _ZNSt23_Rb_tree_const_iteratorISt4pairIKSsPN2sf11SoundBufferEEEC1ERKSt17_Rb_tree_iteratorIS5_E @3810
    _ZNSt23_Rb_tree_const_iteratorISt4pairIKSsPN2sf11SoundBufferEEEmmEv @3811
    _ZNSt23_Rb_tree_const_iteratorISt4pairIKSsPN2sf11SoundBufferEEEppEi @3812
    _ZNSt23_Rb_tree_const_iteratorISt4pairIKSsPN2sf11SoundBufferEEEppEv @3813
    _ZNSt23_Rb_tree_const_iteratorISt4pairIKSsPN2sf4FontEEEC1EPKSt13_Rb_tree_nodeIS5_E @3814
    _ZNSt23_Rb_tree_const_iteratorISt4pairIKSsPN2sf4FontEEEC1ERKSt17_Rb_tree_iteratorIS5_E @3815
    _ZNSt23_Rb_tree_const_iteratorISt4pairIKSsPN2sf4FontEEEmmEv @3816
    _ZNSt23_Rb_tree_const_iteratorISt4pairIKSsPN2sf4FontEEEppEi @3817
    _ZNSt23_Rb_tree_const_iteratorISt4pairIKSsPN2sf4FontEEEppEv @3818
    _ZNSt23_Rb_tree_const_iteratorISt4pairIKSsPN2sf5MusicEEEC1EPKSt13_Rb_tree_nodeIS5_E @3819
    _ZNSt23_Rb_tree_const_iteratorISt4pairIKSsPN2sf5MusicEEEC1ERKSt17_Rb_tree_iteratorIS5_E @3820
    _ZNSt23_Rb_tree_const_iteratorISt4pairIKSsPN2sf5MusicEEEmmEv @3821
    _ZNSt23_Rb_tree_const_iteratorISt4pairIKSsPN2sf5MusicEEEppEi @3822
    _ZNSt23_Rb_tree_const_iteratorISt4pairIKSsPN2sf5MusicEEEppEv @3823
    _ZNSt23_Rb_tree_const_iteratorISt4pairIKSsPN2sf5SoundEEEC1EPKSt13_Rb_tree_nodeIS5_E @3824
    _ZNSt23_Rb_tree_const_iteratorISt4pairIKSsPN2sf5SoundEEEC1ERKSt17_Rb_tree_iteratorIS5_E @3825
    _ZNSt23_Rb_tree_const_iteratorISt4pairIKSsPN2sf5SoundEEEmmEv @3826
    _ZNSt23_Rb_tree_const_iteratorISt4pairIKSsPN2sf5SoundEEEppEi @3827
    _ZNSt23_Rb_tree_const_iteratorISt4pairIKSsPN2sf5SoundEEEppEv @3828
    _ZNSt23_Rb_tree_const_iteratorISt4pairIKSsPN2sf6ShaderEEEC1EPKSt13_Rb_tree_nodeIS5_E @3829
    _ZNSt23_Rb_tree_const_iteratorISt4pairIKSsPN2sf6ShaderEEEC1ERKSt17_Rb_tree_iteratorIS5_E @3830
    _ZNSt23_Rb_tree_const_iteratorISt4pairIKSsPN2sf6ShaderEEEmmEv @3831
    _ZNSt23_Rb_tree_const_iteratorISt4pairIKSsPN2sf6ShaderEEEppEi @3832
    _ZNSt23_Rb_tree_const_iteratorISt4pairIKSsPN2sf6ShaderEEEppEv @3833
    _ZNSt23_Rb_tree_const_iteratorISt4pairIKSsPN2sf7TextureEEEC1EPKSt13_Rb_tree_nodeIS5_E @3834
    _ZNSt23_Rb_tree_const_iteratorISt4pairIKSsPN2sf7TextureEEEC1ERKSt17_Rb_tree_iteratorIS5_E @3835
    _ZNSt23_Rb_tree_const_iteratorISt4pairIKSsPN2sf7TextureEEEmmEv @3836
    _ZNSt23_Rb_tree_const_iteratorISt4pairIKSsPN2sf7TextureEEEppEi @3837
    _ZNSt23_Rb_tree_const_iteratorISt4pairIKSsPN2sf7TextureEEEppEv @3838
    _ZNSt23_Rb_tree_const_iteratorISt4pairIKSsPN9Ptakopysk10Serialized17ICustomSerializerEEEC1EPKSt13_Rb_tree_nodeIS6_E @3839
    _ZNSt23_Rb_tree_const_iteratorISt4pairIKSsPN9Ptakopysk10Serialized17ICustomSerializerEEEC1ERKSt17_Rb_tree_iteratorIS6_E @3840
    _ZNSt23_Rb_tree_const_iteratorISt4pairIKSsPN9Ptakopysk10Serialized17ICustomSerializerEEEmmEv @3841
    _ZNSt23_Rb_tree_const_iteratorISt4pairIKSsPN9Ptakopysk10Serialized17ICustomSerializerEEEppEi @3842
    _ZNSt23_Rb_tree_const_iteratorISt4pairIKSsPN9Ptakopysk10Serialized17ICustomSerializerEEEppEv @3843
    _ZNSt23_Rb_tree_const_iteratorISt4pairIKSsSsEEC1EPKSt13_Rb_tree_nodeIS2_E @3844
    _ZNSt23_Rb_tree_const_iteratorISt4pairIKSsSsEEC1ERKSt17_Rb_tree_iteratorIS2_E @3845
    _ZNSt23_Rb_tree_const_iteratorISt4pairIKSsSsEEmmEv @3846
    _ZNSt23_Rb_tree_const_iteratorISt4pairIKSsSsEEppEi @3847
    _ZNSt23_Rb_tree_const_iteratorISt4pairIKSsSsEEppEv @3848
    _ZNSt23_Rb_tree_const_iteratorISt4pairIKSsiEEC1EPKSt13_Rb_tree_nodeIS2_E @3849
    _ZNSt23_Rb_tree_const_iteratorISt4pairIKSsiEEC1ERKSt17_Rb_tree_iteratorIS2_E @3850
    _ZNSt23_Rb_tree_const_iteratorISt4pairIKSsiEEmmEv @3851
    _ZNSt23_Rb_tree_const_iteratorISt4pairIKSsiEEppEv @3852
    _ZNSt23_Rb_tree_const_iteratorISt4pairIKiPKN2sf7TextureEEEC1EPKSt13_Rb_tree_nodeIS6_E @3853
    _ZNSt23_Rb_tree_const_iteratorISt4pairIKiPKN2sf7TextureEEEC1ERKSt17_Rb_tree_iteratorIS6_E @3854
    _ZNSt23_Rb_tree_const_iteratorISt4pairIKiPKN2sf7TextureEEEmmEv @3855
    _ZNSt23_Rb_tree_const_iteratorISt4pairIKiPKN2sf7TextureEEEppEv @3856
    _ZNSt23_Rb_tree_const_iteratorISt4pairIKjN2sf4Font4PageEEEC1ERKSt17_Rb_tree_iteratorIS5_E @3857
    _ZNSt23_Rb_tree_const_iteratorISt4pairIKjN2sf4Font4PageEEEmmEv @3858
    _ZNSt23_Rb_tree_const_iteratorISt4pairIKjN2sf4Font4PageEEEppEv @3859
    _ZNSt23_Rb_tree_const_iteratorISt4pairIKjN2sf5GlyphEEEC1ERKSt17_Rb_tree_iteratorIS4_E @3860
    _ZNSt23_Rb_tree_const_iteratorISt4pairIKjPN9Ptakopysk9ComponentEEEC1EPKSt13_Rb_tree_nodeIS5_E @3861
    _ZNSt23_Rb_tree_const_iteratorISt4pairIKjPN9Ptakopysk9ComponentEEEC1ERKSt17_Rb_tree_iteratorIS5_E @3862
    _ZNSt23_Rb_tree_const_iteratorISt4pairIKjPN9Ptakopysk9ComponentEEEmmEv @3863
    _ZNSt23_Rb_tree_const_iteratorISt4pairIKjPN9Ptakopysk9ComponentEEEppEi @3864
    _ZNSt23_Rb_tree_const_iteratorISt4pairIKjPN9Ptakopysk9ComponentEEEppEv @3865
    _ZNSt25__lexicographical_compareILb0EE4__lcISt23_Rb_tree_const_iteratorISt4pairIKN4Json5Value8CZStringES5_EES9_EEbT_SA_T0_SB_ @3866
    _ZNSt3mapIN4Json5Value8CZStringES1_St4lessIS2_ESaISt4pairIKS2_S1_EEE11lower_boundERS6_ @3867
    _ZNSt3mapIN4Json5Value8CZStringES1_St4lessIS2_ESaISt4pairIKS2_S1_EEE3endEv @3868
    _ZNSt3mapIN4Json5Value8CZStringES1_St4lessIS2_ESaISt4pairIKS2_S1_EEE4findERS6_ @3869
    _ZNSt3mapIN4Json5Value8CZStringES1_St4lessIS2_ESaISt4pairIKS2_S1_EEE5beginEv @3870
    _ZNSt3mapIN4Json5Value8CZStringES1_St4lessIS2_ESaISt4pairIKS2_S1_EEE5clearEv @3871
    _ZNSt3mapIN4Json5Value8CZStringES1_St4lessIS2_ESaISt4pairIKS2_S1_EEE5eraseERS6_ @3872
    _ZNSt3mapIN4Json5Value8CZStringES1_St4lessIS2_ESaISt4pairIKS2_S1_EEE5eraseESt17_Rb_tree_iteratorIS7_E @3873
    _ZNSt3mapIN4Json5Value8CZStringES1_St4lessIS2_ESaISt4pairIKS2_S1_EEE6insertESt17_Rb_tree_iteratorIS7_ERKS7_ @3874
    _ZNSt3mapIN4Json5Value8CZStringES1_St4lessIS2_ESaISt4pairIKS2_S1_EEEC1ERKS9_ @3875
    _ZNSt3mapIN4Json5Value8CZStringES1_St4lessIS2_ESaISt4pairIKS2_S1_EEEC1Ev @3876
    _ZNSt3mapIN4Json5Value8CZStringES1_St4lessIS2_ESaISt4pairIKS2_S1_EEED1Ev @3877
    _ZNSt3mapISsN9Ptakopysk11GameManager20ComponentFactoryDataESt4lessISsESaISt4pairIKSsS2_EEE11lower_boundERS6_ @3878
    _ZNSt3mapISsN9Ptakopysk11GameManager20ComponentFactoryDataESt4lessISsESaISt4pairIKSsS2_EEE3endEv @3879
    _ZNSt3mapISsN9Ptakopysk11GameManager20ComponentFactoryDataESt4lessISsESaISt4pairIKSsS2_EEE5beginEv @3880
    _ZNSt3mapISsN9Ptakopysk11GameManager20ComponentFactoryDataESt4lessISsESaISt4pairIKSsS2_EEE5clearEv @3881
    _ZNSt3mapISsN9Ptakopysk11GameManager20ComponentFactoryDataESt4lessISsESaISt4pairIKSsS2_EEE5eraseERS6_ @3882
    _ZNSt3mapISsN9Ptakopysk11GameManager20ComponentFactoryDataESt4lessISsESaISt4pairIKSsS2_EEE5eraseESt17_Rb_tree_iteratorIS7_E @3883
    _ZNSt3mapISsN9Ptakopysk11GameManager20ComponentFactoryDataESt4lessISsESaISt4pairIKSsS2_EEE6insertESt17_Rb_tree_iteratorIS7_ERKS7_ @3884
    _ZNSt3mapISsN9Ptakopysk11GameManager20ComponentFactoryDataESt4lessISsESaISt4pairIKSsS2_EEEC1Ev @3885
    _ZNSt3mapISsN9Ptakopysk11GameManager20ComponentFactoryDataESt4lessISsESaISt4pairIKSsS2_EEED1Ev @3886
    _ZNSt3mapISsN9Ptakopysk11GameManager20ComponentFactoryDataESt4lessISsESaISt4pairIKSsS2_EEEixERS6_ @3887
    _ZNSt3mapISsPN2sf11SoundBufferESt4lessISsESaISt4pairIKSsS2_EEE11lower_boundERS6_ @3888
    _ZNSt3mapISsPN2sf11SoundBufferESt4lessISsESaISt4pairIKSsS2_EEE3endEv @3889
    _ZNSt3mapISsPN2sf11SoundBufferESt4lessISsESaISt4pairIKSsS2_EEE5beginEv @3890
    _ZNSt3mapISsPN2sf11SoundBufferESt4lessISsESaISt4pairIKSsS2_EEE5clearEv @3891
    _ZNSt3mapISsPN2sf11SoundBufferESt4lessISsESaISt4pairIKSsS2_EEE5eraseERS6_ @3892
    _ZNSt3mapISsPN2sf11SoundBufferESt4lessISsESaISt4pairIKSsS2_EEE6insertESt17_Rb_tree_iteratorIS7_ERKS7_ @3893
    _ZNSt3mapISsPN2sf11SoundBufferESt4lessISsESaISt4pairIKSsS2_EEEC1Ev @3894
    _ZNSt3mapISsPN2sf11SoundBufferESt4lessISsESaISt4pairIKSsS2_EEED1Ev @3895
    _ZNSt3mapISsPN2sf11SoundBufferESt4lessISsESaISt4pairIKSsS2_EEEixERS6_ @3896
    _ZNSt3mapISsPN2sf4FontESt4lessISsESaISt4pairIKSsS2_EEE11lower_boundERS6_ @3897
    _ZNSt3mapISsPN2sf4FontESt4lessISsESaISt4pairIKSsS2_EEE3endEv @3898
    _ZNSt3mapISsPN2sf4FontESt4lessISsESaISt4pairIKSsS2_EEE5beginEv @3899
    _ZNSt3mapISsPN2sf4FontESt4lessISsESaISt4pairIKSsS2_EEE5clearEv @3900
    _ZNSt3mapISsPN2sf4FontESt4lessISsESaISt4pairIKSsS2_EEE5eraseERS6_ @3901
    _ZNSt3mapISsPN2sf4FontESt4lessISsESaISt4pairIKSsS2_EEE6insertESt17_Rb_tree_iteratorIS7_ERKS7_ @3902
    _ZNSt3mapISsPN2sf4FontESt4lessISsESaISt4pairIKSsS2_EEEC1Ev @3903
    _ZNSt3mapISsPN2sf4FontESt4lessISsESaISt4pairIKSsS2_EEED1Ev @3904
    _ZNSt3mapISsPN2sf4FontESt4lessISsESaISt4pairIKSsS2_EEEixERS6_ @3905
    _ZNSt3mapISsPN2sf5MusicESt4lessISsESaISt4pairIKSsS2_EEE11lower_boundERS6_ @3906
    _ZNSt3mapISsPN2sf5MusicESt4lessISsESaISt4pairIKSsS2_EEE3endEv @3907
    _ZNSt3mapISsPN2sf5MusicESt4lessISsESaISt4pairIKSsS2_EEE5beginEv @3908
    _ZNSt3mapISsPN2sf5MusicESt4lessISsESaISt4pairIKSsS2_EEE5clearEv @3909
    _ZNSt3mapISsPN2sf5MusicESt4lessISsESaISt4pairIKSsS2_EEE5eraseERS6_ @3910
    _ZNSt3mapISsPN2sf5MusicESt4lessISsESaISt4pairIKSsS2_EEE6insertESt17_Rb_tree_iteratorIS7_ERKS7_ @3911
    _ZNSt3mapISsPN2sf5MusicESt4lessISsESaISt4pairIKSsS2_EEEC1Ev @3912
    _ZNSt3mapISsPN2sf5MusicESt4lessISsESaISt4pairIKSsS2_EEED1Ev @3913
    _ZNSt3mapISsPN2sf5MusicESt4lessISsESaISt4pairIKSsS2_EEEixERS6_ @3914
    _ZNSt3mapISsPN2sf5SoundESt4lessISsESaISt4pairIKSsS2_EEE11lower_boundERS6_ @3915
    _ZNSt3mapISsPN2sf5SoundESt4lessISsESaISt4pairIKSsS2_EEE3endEv @3916
    _ZNSt3mapISsPN2sf5SoundESt4lessISsESaISt4pairIKSsS2_EEE5beginEv @3917
    _ZNSt3mapISsPN2sf5SoundESt4lessISsESaISt4pairIKSsS2_EEE5clearEv @3918
    _ZNSt3mapISsPN2sf5SoundESt4lessISsESaISt4pairIKSsS2_EEE5eraseERS6_ @3919
    _ZNSt3mapISsPN2sf5SoundESt4lessISsESaISt4pairIKSsS2_EEE6insertESt17_Rb_tree_iteratorIS7_ERKS7_ @3920
    _ZNSt3mapISsPN2sf5SoundESt4lessISsESaISt4pairIKSsS2_EEEC1Ev @3921
    _ZNSt3mapISsPN2sf5SoundESt4lessISsESaISt4pairIKSsS2_EEED1Ev @3922
    _ZNSt3mapISsPN2sf5SoundESt4lessISsESaISt4pairIKSsS2_EEEixERS6_ @3923
    _ZNSt3mapISsPN2sf6ShaderESt4lessISsESaISt4pairIKSsS2_EEE11lower_boundERS6_ @3924
    _ZNSt3mapISsPN2sf6ShaderESt4lessISsESaISt4pairIKSsS2_EEE3endEv @3925
    _ZNSt3mapISsPN2sf6ShaderESt4lessISsESaISt4pairIKSsS2_EEE5beginEv @3926
    _ZNSt3mapISsPN2sf6ShaderESt4lessISsESaISt4pairIKSsS2_EEE5clearEv @3927
    _ZNSt3mapISsPN2sf6ShaderESt4lessISsESaISt4pairIKSsS2_EEE5eraseERS6_ @3928
    _ZNSt3mapISsPN2sf6ShaderESt4lessISsESaISt4pairIKSsS2_EEE6insertESt17_Rb_tree_iteratorIS7_ERKS7_ @3929
    _ZNSt3mapISsPN2sf6ShaderESt4lessISsESaISt4pairIKSsS2_EEEC1Ev @3930
    _ZNSt3mapISsPN2sf6ShaderESt4lessISsESaISt4pairIKSsS2_EEED1Ev @3931
    _ZNSt3mapISsPN2sf6ShaderESt4lessISsESaISt4pairIKSsS2_EEEixERS6_ @3932
    _ZNSt3mapISsPN2sf7TextureESt4lessISsESaISt4pairIKSsS2_EEE11lower_boundERS6_ @3933
    _ZNSt3mapISsPN2sf7TextureESt4lessISsESaISt4pairIKSsS2_EEE3endEv @3934
    _ZNSt3mapISsPN2sf7TextureESt4lessISsESaISt4pairIKSsS2_EEE5beginEv @3935
    _ZNSt3mapISsPN2sf7TextureESt4lessISsESaISt4pairIKSsS2_EEE5clearEv @3936
    _ZNSt3mapISsPN2sf7TextureESt4lessISsESaISt4pairIKSsS2_EEE5eraseERS6_ @3937
    _ZNSt3mapISsPN2sf7TextureESt4lessISsESaISt4pairIKSsS2_EEE6insertESt17_Rb_tree_iteratorIS7_ERKS7_ @3938
    _ZNSt3mapISsPN2sf7TextureESt4lessISsESaISt4pairIKSsS2_EEEC1Ev @3939
    _ZNSt3mapISsPN2sf7TextureESt4lessISsESaISt4pairIKSsS2_EEED1Ev @3940
    _ZNSt3mapISsPN2sf7TextureESt4lessISsESaISt4pairIKSsS2_EEEixERS6_ @3941
    _ZNSt3mapISsPN9Ptakopysk10Serialized17ICustomSerializerESt4lessISsESaISt4pairIKSsS3_EEE11lower_boundERS7_ @3942
    _ZNSt3mapISsPN9Ptakopysk10Serialized17ICustomSerializerESt4lessISsESaISt4pairIKSsS3_EEE3endEv @3943
    _ZNSt3mapISsPN9Ptakopysk10Serialized17ICustomSerializerESt4lessISsESaISt4pairIKSsS3_EEE5beginEv @3944
    _ZNSt3mapISsPN9Ptakopysk10Serialized17ICustomSerializerESt4lessISsESaISt4pairIKSsS3_EEE5clearEv @3945
    _ZNSt3mapISsPN9Ptakopysk10Serialized17ICustomSerializerESt4lessISsESaISt4pairIKSsS3_EEE5eraseERS7_ @3946
    _ZNSt3mapISsPN9Ptakopysk10Serialized17ICustomSerializerESt4lessISsESaISt4pairIKSsS3_EEE5eraseESt17_Rb_tree_iteratorIS8_E @3947
    _ZNSt3mapISsPN9Ptakopysk10Serialized17ICustomSerializerESt4lessISsESaISt4pairIKSsS3_EEE6insertESt17_Rb_tree_iteratorIS8_ERKS8_ @3948
    _ZNSt3mapISsPN9Ptakopysk10Serialized17ICustomSerializerESt4lessISsESaISt4pairIKSsS3_EEEC1Ev @3949
    _ZNSt3mapISsPN9Ptakopysk10Serialized17ICustomSerializerESt4lessISsESaISt4pairIKSsS3_EEED1Ev @3950
    _ZNSt3mapISsPN9Ptakopysk10Serialized17ICustomSerializerESt4lessISsESaISt4pairIKSsS3_EEEixERS7_ @3951
    _ZNSt3mapISsSsSt4lessISsESaISt4pairIKSsSsEEE11lower_boundERS3_ @3952
    _ZNSt3mapISsSsSt4lessISsESaISt4pairIKSsSsEEE3endEv @3953
    _ZNSt3mapISsSsSt4lessISsESaISt4pairIKSsSsEEE5beginEv @3954
    _ZNSt3mapISsSsSt4lessISsESaISt4pairIKSsSsEEE5clearEv @3955
    _ZNSt3mapISsSsSt4lessISsESaISt4pairIKSsSsEEE5eraseERS3_ @3956
    _ZNSt3mapISsSsSt4lessISsESaISt4pairIKSsSsEEE6insertESt17_Rb_tree_iteratorIS4_ERKS4_ @3957
    _ZNSt3mapISsSsSt4lessISsESaISt4pairIKSsSsEEEC1Ev @3958
    _ZNSt3mapISsSsSt4lessISsESaISt4pairIKSsSsEEED1Ev @3959
    _ZNSt3mapISsSsSt4lessISsESaISt4pairIKSsSsEEEixERS3_ @3960
    _ZNSt3mapISsiSt4lessISsESaISt4pairIKSsiEEE11lower_boundERS3_ @3961
    _ZNSt3mapISsiSt4lessISsESaISt4pairIKSsiEEE3endEv @3962
    _ZNSt3mapISsiSt4lessISsESaISt4pairIKSsiEEE4findERS3_ @3963
    _ZNSt3mapISsiSt4lessISsESaISt4pairIKSsiEEE5beginEv @3964
    _ZNSt3mapISsiSt4lessISsESaISt4pairIKSsiEEE5clearEv @3965
    _ZNSt3mapISsiSt4lessISsESaISt4pairIKSsiEEE6insertERKS4_ @3966
    _ZNSt3mapISsiSt4lessISsESaISt4pairIKSsiEEE6insertESt17_Rb_tree_iteratorIS4_ERKS4_ @3967
    _ZNSt3mapISsiSt4lessISsESaISt4pairIKSsiEEEC1ERKS6_ @3968
    _ZNSt3mapISsiSt4lessISsESaISt4pairIKSsiEEEC1Ev @3969
    _ZNSt3mapISsiSt4lessISsESaISt4pairIKSsiEEED1Ev @3970
    _ZNSt3mapISsiSt4lessISsESaISt4pairIKSsiEEEaSERKS6_ @3971
    _ZNSt3mapISsiSt4lessISsESaISt4pairIKSsiEEEixERS3_ @3972
    _ZNSt3mapIiPKN2sf7TextureESt4lessIiESaISt4pairIKiS3_EEE11lower_boundERS7_ @3973
    _ZNSt3mapIiPKN2sf7TextureESt4lessIiESaISt4pairIKiS3_EEE3endEv @3974
    _ZNSt3mapIiPKN2sf7TextureESt4lessIiESaISt4pairIKiS3_EEE4findERS7_ @3975
    _ZNSt3mapIiPKN2sf7TextureESt4lessIiESaISt4pairIKiS3_EEE5clearEv @3976
    _ZNSt3mapIiPKN2sf7TextureESt4lessIiESaISt4pairIKiS3_EEE6insertESt17_Rb_tree_iteratorIS8_ERKS8_ @3977
    _ZNSt3mapIiPKN2sf7TextureESt4lessIiESaISt4pairIKiS3_EEEC1Ev @3978
    _ZNSt3mapIiPKN2sf7TextureESt4lessIiESaISt4pairIKiS3_EEED1Ev @3979
    _ZNSt3mapIiPKN2sf7TextureESt4lessIiESaISt4pairIKiS3_EEEixERS7_ @3980
    _ZNSt3mapIjN2sf4Font4PageESt4lessIjESaISt4pairIKjS2_EEE11lower_boundERS6_ @3981
    _ZNSt3mapIjN2sf4Font4PageESt4lessIjESaISt4pairIKjS2_EEE3endEv @3982
    _ZNSt3mapIjN2sf4Font4PageESt4lessIjESaISt4pairIKjS2_EEE4swapERS9_ @3983
    _ZNSt3mapIjN2sf4Font4PageESt4lessIjESaISt4pairIKjS2_EEE5clearEv @3984
    _ZNSt3mapIjN2sf4Font4PageESt4lessIjESaISt4pairIKjS2_EEE6insertESt17_Rb_tree_iteratorIS7_ERKS7_ @3985
    _ZNSt3mapIjN2sf4Font4PageESt4lessIjESaISt4pairIKjS2_EEEC1ERKS9_ @3986
    _ZNSt3mapIjN2sf4Font4PageESt4lessIjESaISt4pairIKjS2_EEEC1Ev @3987
    _ZNSt3mapIjN2sf4Font4PageESt4lessIjESaISt4pairIKjS2_EEED1Ev @3988
    _ZNSt3mapIjN2sf4Font4PageESt4lessIjESaISt4pairIKjS2_EEEixERS6_ @3989
    _ZNSt3mapIjN2sf5GlyphESt4lessIjESaISt4pairIKjS1_EEE3endEv @3990
    _ZNSt3mapIjN2sf5GlyphESt4lessIjESaISt4pairIKjS1_EEE4findERS5_ @3991
    _ZNSt3mapIjN2sf5GlyphESt4lessIjESaISt4pairIKjS1_EEE6insertERKS6_ @3992
    _ZNSt3mapIjN2sf5GlyphESt4lessIjESaISt4pairIKjS1_EEEC1ERKS8_ @3993
    _ZNSt3mapIjN2sf5GlyphESt4lessIjESaISt4pairIKjS1_EEEC1Ev @3994
    _ZNSt3mapIjN2sf5GlyphESt4lessIjESaISt4pairIKjS1_EEED1Ev @3995
    _ZNSt3mapIjPN9Ptakopysk9ComponentESt4lessIjESaISt4pairIKjS2_EEE11lower_boundERS6_ @3996
    _ZNSt3mapIjPN9Ptakopysk9ComponentESt4lessIjESaISt4pairIKjS2_EEE3endEv @3997
    _ZNSt3mapIjPN9Ptakopysk9ComponentESt4lessIjESaISt4pairIKjS2_EEE5beginEv @3998
    _ZNSt3mapIjPN9Ptakopysk9ComponentESt4lessIjESaISt4pairIKjS2_EEE5clearEv @3999
    _ZNSt3mapIjPN9Ptakopysk9ComponentESt4lessIjESaISt4pairIKjS2_EEE5eraseERS6_ @4000
    _ZNSt3mapIjPN9Ptakopysk9ComponentESt4lessIjESaISt4pairIKjS2_EEE6insertESt17_Rb_tree_iteratorIS7_ERKS7_ @4001
    _ZNSt3mapIjPN9Ptakopysk9ComponentESt4lessIjESaISt4pairIKjS2_EEEC1Ev @4002
    _ZNSt3mapIjPN9Ptakopysk9ComponentESt4lessIjESaISt4pairIKjS2_EEED1Ev @4003
    _ZNSt3mapIjPN9Ptakopysk9ComponentESt4lessIjESaISt4pairIKjS2_EEEixERS6_ @4004
    _ZNSt3setIPN2sf4priv9GlContextESt4lessIS3_ESaIS3_EE4findERKS3_ @4005
    _ZNSt3setIPN2sf4priv9GlContextESt4lessIS3_ESaIS3_EE5clearEv @4006
    _ZNSt3setIPN2sf4priv9GlContextESt4lessIS3_ESaIS3_EE6insertERKS3_ @4007
    _ZNSt3setIPN2sf4priv9GlContextESt4lessIS3_ESaIS3_EEC1Ev @4008
    _ZNSt3setIPN2sf4priv9GlContextESt4lessIS3_ESaIS3_EED1Ev @4009
    _ZNSt3setIPN2sf5SoundESt4lessIS2_ESaIS2_EE4swapERS6_ @4010
    _ZNSt3setIPN2sf5SoundESt4lessIS2_ESaIS2_EE5eraseERKS2_ @4011
    _ZNSt3setIPN2sf5SoundESt4lessIS2_ESaIS2_EE6insertERKS2_ @4012
    _ZNSt3setIPN2sf5SoundESt4lessIS2_ESaIS2_EEC1Ev @4013
    _ZNSt3setIPN2sf5SoundESt4lessIS2_ESaIS2_EED1Ev @4014
    _ZNSt4listIPN9Ptakopysk10GameObjectESaIS2_EE11_M_transferESt14_List_iteratorIS2_ES6_S6_ @4015
    _ZNSt4listIPN9Ptakopysk10GameObjectESaIS2_EE14_M_create_nodeERKS2_ @4016
    _ZNSt4listIPN9Ptakopysk10GameObjectESaIS2_EE25_M_check_equal_allocatorsERS4_ @4017
    _ZNSt4listIPN9Ptakopysk10GameObjectESaIS2_EE3endEv @4018
    _ZNSt4listIPN9Ptakopysk10GameObjectESaIS2_EE4sortINS0_11GameManager18CompareGameObjectsEEEvT_ @4019
    _ZNSt4listIPN9Ptakopysk10GameObjectESaIS2_EE4swapERS4_ @4020
    _ZNSt4listIPN9Ptakopysk10GameObjectESaIS2_EE5beginEv @4021
    _ZNSt4listIPN9Ptakopysk10GameObjectESaIS2_EE5clearEv @4022
    _ZNSt4listIPN9Ptakopysk10GameObjectESaIS2_EE5mergeINS0_11GameManager18CompareGameObjectsEEEvRS4_T_ @4023
    _ZNSt4listIPN9Ptakopysk10GameObjectESaIS2_EE6removeERKS2_ @4024
    _ZNSt4listIPN9Ptakopysk10GameObjectESaIS2_EE6spliceESt14_List_iteratorIS2_ERS4_S6_ @4025
    _ZNSt4listIPN9Ptakopysk10GameObjectESaIS2_EE8_M_eraseESt14_List_iteratorIS2_E @4026
    _ZNSt4listIPN9Ptakopysk10GameObjectESaIS2_EE9_M_insertESt14_List_iteratorIS2_ERKS2_ @4027
    _ZNSt4listIPN9Ptakopysk10GameObjectESaIS2_EE9push_backERKS2_ @4028
    _ZNSt4listIPN9Ptakopysk10GameObjectESaIS2_EEC1Ev @4029
    _ZNSt4listIPN9Ptakopysk10GameObjectESaIS2_EED1Ev @4030
    _ZNSt4listIPN9Ptakopysk6Events5EventESaIS3_EE14_M_create_nodeERKS3_ @4031
    _ZNSt4listIPN9Ptakopysk6Events5EventESaIS3_EE3endEv @4032
    _ZNSt4listIPN9Ptakopysk6Events5EventESaIS3_EE5beginEv @4033
    _ZNSt4listIPN9Ptakopysk6Events5EventESaIS3_EE5clearEv @4034
    _ZNSt4listIPN9Ptakopysk6Events5EventESaIS3_EE9_M_insertESt14_List_iteratorIS3_ERKS3_ @4035
    _ZNSt4listIPN9Ptakopysk6Events5EventESaIS3_EE9push_backERKS3_ @4036
    _ZNSt4listIPN9Ptakopysk6Events5EventESaIS3_EEC1Ev @4037
    _ZNSt4listIPN9Ptakopysk6Events5EventESaIS3_EED1Ev @4038
    _ZNSt4pairIKN4Json5Value8CZStringES1_EC1ERKS4_ @4039
    _ZNSt4pairIKN4Json5Value8CZStringES1_EC1ERS3_RKS1_ @4040
    _ZNSt4pairIKN4Json5Value8CZStringES1_ED1Ev @4041
    _ZNSt4pairIKSsN9Ptakopysk11GameManager20ComponentFactoryDataEEC1ERKS4_ @4042
    _ZNSt4pairIKSsN9Ptakopysk11GameManager20ComponentFactoryDataEEC1ERS0_RKS3_ @4043
    _ZNSt4pairIKSsN9Ptakopysk11GameManager20ComponentFactoryDataEED1Ev @4044
    _ZNSt4pairIKSsPN2sf11SoundBufferEEC1ERKS4_ @4045
    _ZNSt4pairIKSsPN2sf11SoundBufferEEC1ERS0_RKS3_ @4046
    _ZNSt4pairIKSsPN2sf11SoundBufferEED1Ev @4047
    _ZNSt4pairIKSsPN2sf4FontEEC1ERKS4_ @4048
    _ZNSt4pairIKSsPN2sf4FontEEC1ERS0_RKS3_ @4049
    _ZNSt4pairIKSsPN2sf4FontEED1Ev @4050
    _ZNSt4pairIKSsPN2sf5MusicEEC1ERKS4_ @4051
    _ZNSt4pairIKSsPN2sf5MusicEEC1ERS0_RKS3_ @4052
    _ZNSt4pairIKSsPN2sf5MusicEED1Ev @4053
    _ZNSt4pairIKSsPN2sf5SoundEEC1ERKS4_ @4054
    _ZNSt4pairIKSsPN2sf5SoundEEC1ERS0_RKS3_ @4055
    _ZNSt4pairIKSsPN2sf5SoundEED1Ev @4056
    _ZNSt4pairIKSsPN2sf6ShaderEEC1ERKS4_ @4057
    _ZNSt4pairIKSsPN2sf6ShaderEEC1ERS0_RKS3_ @4058
    _ZNSt4pairIKSsPN2sf6ShaderEED1Ev @4059
    _ZNSt4pairIKSsPN2sf7TextureEEC1ERKS4_ @4060
    _ZNSt4pairIKSsPN2sf7TextureEEC1ERS0_RKS3_ @4061
    _ZNSt4pairIKSsPN2sf7TextureEED1Ev @4062
    _ZNSt4pairIKSsPN9Ptakopysk10Serialized17ICustomSerializerEEC1ERKS5_ @4063
    _ZNSt4pairIKSsPN9Ptakopysk10Serialized17ICustomSerializerEEC1ERS0_RKS4_ @4064
    _ZNSt4pairIKSsPN9Ptakopysk10Serialized17ICustomSerializerEED1Ev @4065
    _ZNSt4pairIKSsSsEC1ERKS1_ @4066
    _ZNSt4pairIKSsSsEC1ERS0_S2_ @4067
    _ZNSt4pairIKSsSsED1Ev @4068
    _ZNSt4pairIKSsiEC1ERKS1_ @4069
    _ZNSt4pairIKSsiEC1ERS0_RKi @4070
    _ZNSt4pairIKSsiEC1ISsiEERKS_IT_T0_E @4071
    _ZNSt4pairIKSsiED1Ev @4072
    _ZNSt4pairIKiPKN2sf7TextureEEC1ERS0_RKS4_ @4073
    _ZNSt4pairIKjN2sf4Font4PageEEC1ERKS4_ @4074
    _ZNSt4pairIKjN2sf4Font4PageEEC1ERS0_RKS3_ @4075
    _ZNSt4pairIKjN2sf4Font4PageEED1Ev @4076
    _ZNSt4pairIKjN2sf5GlyphEEC1IjS2_EERKS_IT_T0_E @4077
    _ZNSt4pairIKjPN9Ptakopysk9ComponentEEC1ERS0_RKS3_ @4078
    _ZNSt4pairISsiEC1ERKSsRKi @4079
    _ZNSt4pairISsiED1Ev @4080
    _ZNSt4pairISt17_Rb_tree_iteratorIPN2sf4priv9GlContextEEbEC1ERKS5_RKb @4081
    _ZNSt4pairISt17_Rb_tree_iteratorIPN2sf5SoundEES4_EC1ERKS4_S7_ @4082
    _ZNSt4pairISt17_Rb_tree_iteratorIPN2sf5SoundEEbEC1ERKS4_RKb @4083
    _ZNSt4pairISt17_Rb_tree_iteratorIS_IKN4Json5Value8CZStringES2_EES6_EC1ERKS6_S9_ @4084
    _ZNSt4pairISt17_Rb_tree_iteratorIS_IKN4Json5Value8CZStringES2_EEbEC1ERKS6_RKb @4085
    _ZNSt4pairISt17_Rb_tree_iteratorIS_IKSsN9Ptakopysk11GameManager20ComponentFactoryDataEEES6_EC1ERKS6_S9_ @4086
    _ZNSt4pairISt17_Rb_tree_iteratorIS_IKSsN9Ptakopysk11GameManager20ComponentFactoryDataEEEbEC1ERKS6_RKb @4087
    _ZNSt4pairISt17_Rb_tree_iteratorIS_IKSsPN2sf11SoundBufferEEES6_EC1ERKS6_S9_ @4088
    _ZNSt4pairISt17_Rb_tree_iteratorIS_IKSsPN2sf11SoundBufferEEEbEC1ERKS6_RKb @4089
    _ZNSt4pairISt17_Rb_tree_iteratorIS_IKSsPN2sf4FontEEES6_EC1ERKS6_S9_ @4090
    _ZNSt4pairISt17_Rb_tree_iteratorIS_IKSsPN2sf4FontEEEbEC1ERKS6_RKb @4091
    _ZNSt4pairISt17_Rb_tree_iteratorIS_IKSsPN2sf5MusicEEES6_EC1ERKS6_S9_ @4092
    _ZNSt4pairISt17_Rb_tree_iteratorIS_IKSsPN2sf5MusicEEEbEC1ERKS6_RKb @4093
    _ZNSt4pairISt17_Rb_tree_iteratorIS_IKSsPN2sf5SoundEEES6_EC1ERKS6_S9_ @4094
    _ZNSt4pairISt17_Rb_tree_iteratorIS_IKSsPN2sf5SoundEEEbEC1ERKS6_RKb @4095
    _ZNSt4pairISt17_Rb_tree_iteratorIS_IKSsPN2sf6ShaderEEES6_EC1ERKS6_S9_ @4096
    _ZNSt4pairISt17_Rb_tree_iteratorIS_IKSsPN2sf6ShaderEEEbEC1ERKS6_RKb @4097
    _ZNSt4pairISt17_Rb_tree_iteratorIS_IKSsPN2sf7TextureEEES6_EC1ERKS6_S9_ @4098
    _ZNSt4pairISt17_Rb_tree_iteratorIS_IKSsPN2sf7TextureEEEbEC1ERKS6_RKb @4099
    _ZNSt4pairISt17_Rb_tree_iteratorIS_IKSsPN9Ptakopysk10Serialized17ICustomSerializerEEES7_EC1ERKS7_SA_ @4100
    _ZNSt4pairISt17_Rb_tree_iteratorIS_IKSsPN9Ptakopysk10Serialized17ICustomSerializerEEEbEC1ERKS7_RKb @4101
    _ZNSt4pairISt17_Rb_tree_iteratorIS_IKSsSsEES3_EC1ERKS3_S6_ @4102
    _ZNSt4pairISt17_Rb_tree_iteratorIS_IKSsSsEEbEC1ERKS3_RKb @4103
    _ZNSt4pairISt17_Rb_tree_iteratorIS_IKSsiEEbEC1ERKS3_RKb @4104
    _ZNSt4pairISt17_Rb_tree_iteratorIS_IKiPKN2sf7TextureEEEbEC1ERKS7_RKb @4105
    _ZNSt4pairISt17_Rb_tree_iteratorIS_IKjN2sf4Font4PageEEEbEC1ERKS6_RKb @4106
    _ZNSt4pairISt17_Rb_tree_iteratorIS_IKjN2sf5GlyphEEEbEC1ERKS5_RKb @4107
    _ZNSt4pairISt17_Rb_tree_iteratorIS_IKjPN9Ptakopysk9ComponentEEES6_EC1ERKS6_S9_ @4108
    _ZNSt4pairISt17_Rb_tree_iteratorIS_IKjPN9Ptakopysk9ComponentEEEbEC1ERKS6_RKb @4109
    _ZNSt4pairISt23_Rb_tree_const_iteratorIPN2sf4priv9GlContextEEbEC1ERKS5_RKb @4110
    _ZNSt4pairISt23_Rb_tree_const_iteratorIPN2sf5SoundEEbEC1ERKS4_RKb @4111
    _ZNSt4pairIjN2sf5GlyphEEC1ERKjRKS1_ @4112
    _ZNSt5dequeIN2sf5EventESaIS1_EE15_M_destroy_dataESt15_Deque_iteratorIS1_RS1_PS1_ES7_RKS2_ @4113
    _ZNSt5dequeIN2sf5EventESaIS1_EE16_M_pop_front_auxEv @4114
    _ZNSt5dequeIN2sf5EventESaIS1_EE16_M_push_back_auxERKS1_ @4115
    _ZNSt5dequeIN2sf5EventESaIS1_EE17_M_reallocate_mapEjb @4116
    _ZNSt5dequeIN2sf5EventESaIS1_EE22_M_reserve_map_at_backEj @4117
    _ZNSt5dequeIN2sf5EventESaIS1_EE3endEv @4118
    _ZNSt5dequeIN2sf5EventESaIS1_EE5beginEv @4119
    _ZNSt5dequeIN2sf5EventESaIS1_EE5frontEv @4120
    _ZNSt5dequeIN2sf5EventESaIS1_EE9pop_frontEv @4121
    _ZNSt5dequeIN2sf5EventESaIS1_EE9push_backERKS1_ @4122
    _ZNSt5dequeIN2sf5EventESaIS1_EEC1ERKS3_ @4123
    _ZNSt5dequeIN2sf5EventESaIS1_EEC1Ev @4124
    _ZNSt5dequeIN2sf5EventESaIS1_EED1Ev @4125
    _ZNSt5dequeIN4Json6Reader9ErrorInfoESaIS2_EE13_M_insert_auxESt15_Deque_iteratorIS2_RS2_PS2_EjRKS2_ @4126
    _ZNSt5dequeIN4Json6Reader9ErrorInfoESaIS2_EE14_M_fill_insertESt15_Deque_iteratorIS2_RS2_PS2_EjRKS2_ @4127
    _ZNSt5dequeIN4Json6Reader9ErrorInfoESaIS2_EE14_S_buffer_sizeEv @4128
    _ZNSt5dequeIN4Json6Reader9ErrorInfoESaIS2_EE15_M_destroy_dataESt15_Deque_iteratorIS2_RS2_PS2_ES8_RKS3_ @4129
    _ZNSt5dequeIN4Json6Reader9ErrorInfoESaIS2_EE15_M_erase_at_endESt15_Deque_iteratorIS2_RS2_PS2_E @4130
    _ZNSt5dequeIN4Json6Reader9ErrorInfoESaIS2_EE16_M_push_back_auxERKS2_ @4131
    _ZNSt5dequeIN4Json6Reader9ErrorInfoESaIS2_EE17_M_reallocate_mapEjb @4132
    _ZNSt5dequeIN4Json6Reader9ErrorInfoESaIS2_EE19_M_destroy_data_auxESt15_Deque_iteratorIS2_RS2_PS2_ES8_ @4133
    _ZNSt5dequeIN4Json6Reader9ErrorInfoESaIS2_EE22_M_reserve_map_at_backEj @4134
    _ZNSt5dequeIN4Json6Reader9ErrorInfoESaIS2_EE23_M_new_elements_at_backEj @4135
    _ZNSt5dequeIN4Json6Reader9ErrorInfoESaIS2_EE23_M_reserve_map_at_frontEj @4136
    _ZNSt5dequeIN4Json6Reader9ErrorInfoESaIS2_EE24_M_new_elements_at_frontEj @4137
    _ZNSt5dequeIN4Json6Reader9ErrorInfoESaIS2_EE27_M_reserve_elements_at_backEj @4138
    _ZNSt5dequeIN4Json6Reader9ErrorInfoESaIS2_EE28_M_reserve_elements_at_frontEj @4139
    _ZNSt5dequeIN4Json6Reader9ErrorInfoESaIS2_EE3endEv @4140
    _ZNSt5dequeIN4Json6Reader9ErrorInfoESaIS2_EE5beginEv @4141
    _ZNSt5dequeIN4Json6Reader9ErrorInfoESaIS2_EE5clearEv @4142
    _ZNSt5dequeIN4Json6Reader9ErrorInfoESaIS2_EE6insertESt15_Deque_iteratorIS2_RS2_PS2_EjRKS2_ @4143
    _ZNSt5dequeIN4Json6Reader9ErrorInfoESaIS2_EE6resizeEjS2_ @4144
    _ZNSt5dequeIN4Json6Reader9ErrorInfoESaIS2_EE9push_backERKS2_ @4145
    _ZNSt5dequeIN4Json6Reader9ErrorInfoESaIS2_EEC1Ev @4146
    _ZNSt5dequeIN4Json6Reader9ErrorInfoESaIS2_EED1Ev @4147
    _ZNSt5dequeIPN4Json5ValueESaIS2_EE15_M_destroy_dataESt15_Deque_iteratorIS2_RS2_PS2_ES8_RKS3_ @4148
    _ZNSt5dequeIPN4Json5ValueESaIS2_EE15_M_pop_back_auxEv @4149
    _ZNSt5dequeIPN4Json5ValueESaIS2_EE16_M_push_back_auxERKS2_ @4150
    _ZNSt5dequeIPN4Json5ValueESaIS2_EE17_M_reallocate_mapEjb @4151
    _ZNSt5dequeIPN4Json5ValueESaIS2_EE22_M_reserve_map_at_backEj @4152
    _ZNSt5dequeIPN4Json5ValueESaIS2_EE3endEv @4153
    _ZNSt5dequeIPN4Json5ValueESaIS2_EE4backEv @4154
    _ZNSt5dequeIPN4Json5ValueESaIS2_EE5beginEv @4155
    _ZNSt5dequeIPN4Json5ValueESaIS2_EE8pop_backEv @4156
    _ZNSt5dequeIPN4Json5ValueESaIS2_EE9push_backERKS2_ @4157
    _ZNSt5dequeIPN4Json5ValueESaIS2_EEC1ERKS4_ @4158
    _ZNSt5dequeIPN4Json5ValueESaIS2_EEC1Ev @4159
    _ZNSt5dequeIPN4Json5ValueESaIS2_EED1Ev @4160
    _ZNSt5queueIN2sf5EventESt5dequeIS1_SaIS1_EEE3popEv @4161
    _ZNSt5queueIN2sf5EventESt5dequeIS1_SaIS1_EEE4pushERKS1_ @4162
    _ZNSt5queueIN2sf5EventESt5dequeIS1_SaIS1_EEE5frontEv @4163
    _ZNSt5queueIN2sf5EventESt5dequeIS1_SaIS1_EEEC1ERKS4_ @4164
    _ZNSt5queueIN2sf5EventESt5dequeIS1_SaIS1_EEED1Ev @4165
    _ZNSt5stackIPN4Json5ValueESt5dequeIS2_SaIS2_EEE3popEv @4166
    _ZNSt5stackIPN4Json5ValueESt5dequeIS2_SaIS2_EEE3topEv @4167
    _ZNSt5stackIPN4Json5ValueESt5dequeIS2_SaIS2_EEE4pushERKS2_ @4168
    _ZNSt5stackIPN4Json5ValueESt5dequeIS2_SaIS2_EEEC1ERKS5_ @4169
    _ZNSt5stackIPN4Json5ValueESt5dequeIS2_SaIS2_EEED1Ev @4170
    _ZNSt6vectorI6b2Vec2SaIS0_EE13_M_assign_auxIN9__gnu_cxx17__normal_iteratorIPS0_S2_EEEEvT_S8_St20forward_iterator_tag @4171
    _ZNSt6vectorI6b2Vec2SaIS0_EE13_M_insert_auxEN9__gnu_cxx17__normal_iteratorIPS0_S2_EERKS0_ @4172
    _ZNSt6vectorI6b2Vec2SaIS0_EE14_M_fill_insertEN9__gnu_cxx17__normal_iteratorIPS0_S2_EEjRKS0_ @4173
    _ZNSt6vectorI6b2Vec2SaIS0_EE15_M_erase_at_endEPS0_ @4174
    _ZNSt6vectorI6b2Vec2SaIS0_EE18_M_assign_dispatchIN9__gnu_cxx17__normal_iteratorIPS0_S2_EEEEvT_S8_St12__false_type @4175
    _ZNSt6vectorI6b2Vec2SaIS0_EE20_M_allocate_and_copyIN9__gnu_cxx17__normal_iteratorIPS0_S2_EEEES6_jT_S8_ @4176
    _ZNSt6vectorI6b2Vec2SaIS0_EE20_M_allocate_and_copyIPS0_EES4_jT_S5_ @4177
    _ZNSt6vectorI6b2Vec2SaIS0_EE3endEv @4178
    _ZNSt6vectorI6b2Vec2SaIS0_EE4dataEv @4179
    _ZNSt6vectorI6b2Vec2SaIS0_EE5beginEv @4180
    _ZNSt6vectorI6b2Vec2SaIS0_EE5frontEv @4181
    _ZNSt6vectorI6b2Vec2SaIS0_EE6assignIN9__gnu_cxx17__normal_iteratorIPS0_S2_EEEEvT_S8_ @4182
    _ZNSt6vectorI6b2Vec2SaIS0_EE6insertEN9__gnu_cxx17__normal_iteratorIPS0_S2_EEjRKS0_ @4183
    _ZNSt6vectorI6b2Vec2SaIS0_EE6resizeEjS0_ @4184
    _ZNSt6vectorI6b2Vec2SaIS0_EE7reserveEj @4185
    _ZNSt6vectorI6b2Vec2SaIS0_EE9push_backERKS0_ @4186
    _ZNSt6vectorI6b2Vec2SaIS0_EEC1Ev @4187
    _ZNSt6vectorI6b2Vec2SaIS0_EED1Ev @4188
    _ZNSt6vectorIN2sf4Font3RowESaIS2_EE13_M_insert_auxEN9__gnu_cxx17__normal_iteratorIPS2_S4_EERKS2_ @4189
    _ZNSt6vectorIN2sf4Font3RowESaIS2_EE3endEv @4190
    _ZNSt6vectorIN2sf4Font3RowESaIS2_EE4backEv @4191
    _ZNSt6vectorIN2sf4Font3RowESaIS2_EE5beginEv @4192
    _ZNSt6vectorIN2sf4Font3RowESaIS2_EE9push_backERKS2_ @4193
    _ZNSt6vectorIN2sf4Font3RowESaIS2_EEC1ERKS4_ @4194
    _ZNSt6vectorIN2sf4Font3RowESaIS2_EEC1Ev @4195
    _ZNSt6vectorIN2sf4Font3RowESaIS2_EED1Ev @4196
    _ZNSt6vectorIN2sf6VertexESaIS1_EE13_M_insert_auxEN9__gnu_cxx17__normal_iteratorIPS1_S3_EERKS1_ @4197
    _ZNSt6vectorIN2sf6VertexESaIS1_EE14_M_fill_insertEN9__gnu_cxx17__normal_iteratorIPS1_S3_EEjRKS1_ @4198
    _ZNSt6vectorIN2sf6VertexESaIS1_EE15_M_erase_at_endEPS1_ @4199
    _ZNSt6vectorIN2sf6VertexESaIS1_EE18_M_fill_initializeEjRKS1_ @4200
    _ZNSt6vectorIN2sf6VertexESaIS1_EE3endEv @4201
    _ZNSt6vectorIN2sf6VertexESaIS1_EE5beginEv @4202
    _ZNSt6vectorIN2sf6VertexESaIS1_EE5clearEv @4203
    _ZNSt6vectorIN2sf6VertexESaIS1_EE6insertEN9__gnu_cxx17__normal_iteratorIPS1_S3_EEjRKS1_ @4204
    _ZNSt6vectorIN2sf6VertexESaIS1_EE6resizeEjS1_ @4205
    _ZNSt6vectorIN2sf6VertexESaIS1_EE9push_backERKS1_ @4206
    _ZNSt6vectorIN2sf6VertexESaIS1_EEC1EjRKS1_RKS2_ @4207
    _ZNSt6vectorIN2sf6VertexESaIS1_EEC1Ev @4208
    _ZNSt6vectorIN2sf6VertexESaIS1_EED1Ev @4209
    _ZNSt6vectorIN2sf6VertexESaIS1_EEixEj @4210
    _ZNSt6vectorIN2sf9VideoModeESaIS1_EE13_M_insert_auxEN9__gnu_cxx17__normal_iteratorIPS1_S3_EERKS1_ @4211
    _ZNSt6vectorIN2sf9VideoModeESaIS1_EE20_M_allocate_and_copyIN9__gnu_cxx17__normal_iteratorIPKS1_S3_EEEEPS1_jT_SB_ @4212
    _ZNSt6vectorIN2sf9VideoModeESaIS1_EE3endEv @4213
    _ZNSt6vectorIN2sf9VideoModeESaIS1_EE5beginEv @4214
    _ZNSt6vectorIN2sf9VideoModeESaIS1_EE9push_backERKS1_ @4215
    _ZNSt6vectorIN2sf9VideoModeESaIS1_EEC1Ev @4216
    _ZNSt6vectorIN2sf9VideoModeESaIS1_EED1Ev @4217
    _ZNSt6vectorIN2sf9VideoModeESaIS1_EEaSERKS3_ @4218
    _ZNSt6vectorIN4Json12PathArgumentESaIS1_EE13_M_insert_auxEN9__gnu_cxx17__normal_iteratorIPS1_S3_EERKS1_ @4219
    _ZNSt6vectorIN4Json12PathArgumentESaIS1_EE3endEv @4220
    _ZNSt6vectorIN4Json12PathArgumentESaIS1_EE5beginEv @4221
    _ZNSt6vectorIN4Json12PathArgumentESaIS1_EE9push_backERKS1_ @4222
    _ZNSt6vectorIN4Json12PathArgumentESaIS1_EEC1Ev @4223
    _ZNSt6vectorIN4Json12PathArgumentESaIS1_EED1Ev @4224
    _ZNSt6vectorIN6XeCore6Common6StringESaIS2_EE13_M_insert_auxEN9__gnu_cxx17__normal_iteratorIPS2_S4_EERKS2_ @4225
    _ZNSt6vectorIN6XeCore6Common6StringESaIS2_EE3endEv @4226
    _ZNSt6vectorIN6XeCore6Common6StringESaIS2_EE5beginEv @4227
    _ZNSt6vectorIN6XeCore6Common6StringESaIS2_EE9push_backERKS2_ @4228
    _ZNSt6vectorIN6XeCore6Common6StringESaIS2_EEC2Ev @4229
    _ZNSt6vectorIN6XeCore6Common6StringESaIS2_EED2Ev @4230
    _ZNSt6vectorIN6XeCore6Common6StringESaIS2_EEixEj @4231
    _ZNSt6vectorIPKN4Json12PathArgumentESaIS3_EE13_M_insert_auxEN9__gnu_cxx17__normal_iteratorIPS3_S5_EERKS3_ @4232
    _ZNSt6vectorIPKN4Json12PathArgumentESaIS3_EE3endEv @4233
    _ZNSt6vectorIPKN4Json12PathArgumentESaIS3_EE5beginEv @4234
    _ZNSt6vectorIPKN4Json12PathArgumentESaIS3_EE9push_backERKS3_ @4235
    _ZNSt6vectorIPKN4Json12PathArgumentESaIS3_EEC1Ev @4236
    _ZNSt6vectorIPKN4Json12PathArgumentESaIS3_EED1Ev @4237
    _ZNSt6vectorISsSaISsEE13_M_insert_auxEN9__gnu_cxx17__normal_iteratorIPSsS1_EERKSs @4238
    _ZNSt6vectorISsSaISsEE15_M_erase_at_endEPSs @4239
    _ZNSt6vectorISsSaISsEE20_M_allocate_and_copyIPSsEES3_jT_S4_ @4240
    _ZNSt6vectorISsSaISsEE3endEv @4241
    _ZNSt6vectorISsSaISsEE5beginEv @4242
    _ZNSt6vectorISsSaISsEE5clearEv @4243
    _ZNSt6vectorISsSaISsEE7reserveEj @4244
    _ZNSt6vectorISsSaISsEE9push_backERKSs @4245
    _ZNSt6vectorISsSaISsEEC1ERKS1_ @4246
    _ZNSt6vectorISsSaISsEEC1Ev @4247
    _ZNSt6vectorISsSaISsEED1Ev @4248
    _ZNSt6vectorISsSaISsEEixEj @4249
    _ZNSt6vectorIcSaIcEE13_M_insert_auxEN9__gnu_cxx17__normal_iteratorIPcS1_EERKc @4250
    _ZNSt6vectorIcSaIcEE14_M_fill_insertEN9__gnu_cxx17__normal_iteratorIPcS1_EEjRKc @4251
    _ZNSt6vectorIcSaIcEE15_M_erase_at_endEPc @4252
    _ZNSt6vectorIcSaIcEE3endEv @4253
    _ZNSt6vectorIcSaIcEE5beginEv @4254
    _ZNSt6vectorIcSaIcEE6insertEN9__gnu_cxx17__normal_iteratorIPcS1_EEjRKc @4255
    _ZNSt6vectorIcSaIcEE6resizeEjc @4256
    _ZNSt6vectorIcSaIcEE9push_backERKc @4257
    _ZNSt6vectorIcSaIcEEC1Ev @4258
    _ZNSt6vectorIcSaIcEED1Ev @4259
    _ZNSt6vectorIcSaIcEEixEj @4260
    _ZNSt6vectorIhSaIhEE14_M_fill_insertEN9__gnu_cxx17__normal_iteratorIPhS1_EEjRKh @4261
    _ZNSt6vectorIhSaIhEE15_M_erase_at_endEPh @4262
    _ZNSt6vectorIhSaIhEE18_M_fill_initializeEjRKh @4263
    _ZNSt6vectorIhSaIhEE3endEv @4264
    _ZNSt6vectorIhSaIhEE4swapERS1_ @4265
    _ZNSt6vectorIhSaIhEE5beginEv @4266
    _ZNSt6vectorIhSaIhEE5clearEv @4267
    _ZNSt6vectorIhSaIhEE6insertEN9__gnu_cxx17__normal_iteratorIPhS1_EEjRKh @4268
    _ZNSt6vectorIhSaIhEE6resizeEjh @4269
    _ZNSt6vectorIhSaIhEEC1ERKS1_ @4270
    _ZNSt6vectorIhSaIhEEC1EjRKhRKS0_ @4271
    _ZNSt6vectorIhSaIhEEC1Ev @4272
    _ZNSt6vectorIhSaIhEED1Ev @4273
    _ZNSt6vectorIhSaIhEEixEj @4274
    _ZNSt6vectorIsSaIsEE13_M_assign_auxIPKsEEvT_S5_St20forward_iterator_tag @4275
    _ZNSt6vectorIsSaIsEE14_M_fill_insertEN9__gnu_cxx17__normal_iteratorIPsS1_EEjRKs @4276
    _ZNSt6vectorIsSaIsEE15_M_erase_at_endEPs @4277
    _ZNSt6vectorIsSaIsEE18_M_assign_dispatchIPKsEEvT_S5_St12__false_type @4278
    _ZNSt6vectorIsSaIsEE20_M_allocate_and_copyIPKsEEPsjT_S6_ @4279
    _ZNSt6vectorIsSaIsEE3endEv @4280
    _ZNSt6vectorIsSaIsEE4swapERS1_ @4281
    _ZNSt6vectorIsSaIsEE5beginEv @4282
    _ZNSt6vectorIsSaIsEE6assignIPKsEEvT_S5_ @4283
    _ZNSt6vectorIsSaIsEE6insertEN9__gnu_cxx17__normal_iteratorIPsS1_EEjRKs @4284
    _ZNSt6vectorIsSaIsEE6resizeEjs @4285
    _ZNSt6vectorIsSaIsEEC1ERKS1_ @4286
    _ZNSt6vectorIsSaIsEEC1Ev @4287
    _ZNSt6vectorIsSaIsEED1Ev @4288
    _ZNSt6vectorIsSaIsEEixEj @4289
    _ZNSt7__equalILb0EE5equalISt23_Rb_tree_const_iteratorISt4pairIKN4Json5Value8CZStringES5_EES9_EEbT_SA_T0_ @4290
    _ZNSt8_Rb_treeIN4Json5Value8CZStringESt4pairIKS2_S1_ESt10_Select1stIS5_ESt4lessIS2_ESaIS5_EE10_M_insert_EPKSt18_Rb_tree_node_baseSE_RKS5_ @4291
    _ZNSt8_Rb_treeIN4Json5Value8CZStringESt4pairIKS2_S1_ESt10_Select1stIS5_ESt4lessIS2_ESaIS5_EE10_S_maximumEPSt18_Rb_tree_node_base @4292
    _ZNSt8_Rb_treeIN4Json5Value8CZStringESt4pairIKS2_S1_ESt10_Select1stIS5_ESt4lessIS2_ESaIS5_EE10_S_minimumEPSt18_Rb_tree_node_base @4293
    _ZNSt8_Rb_treeIN4Json5Value8CZStringESt4pairIKS2_S1_ESt10_Select1stIS5_ESt4lessIS2_ESaIS5_EE11_M_get_nodeEv @4294
    _ZNSt8_Rb_treeIN4Json5Value8CZStringESt4pairIKS2_S1_ESt10_Select1stIS5_ESt4lessIS2_ESaIS5_EE11_M_leftmostEv @4295
    _ZNSt8_Rb_treeIN4Json5Value8CZStringESt4pairIKS2_S1_ESt10_Select1stIS5_ESt4lessIS2_ESaIS5_EE11_M_put_nodeEPSt13_Rb_tree_nodeIS5_E @4296
    _ZNSt8_Rb_treeIN4Json5Value8CZStringESt4pairIKS2_S1_ESt10_Select1stIS5_ESt4lessIS2_ESaIS5_EE11equal_rangeERS4_ @4297
    _ZNSt8_Rb_treeIN4Json5Value8CZStringESt4pairIKS2_S1_ESt10_Select1stIS5_ESt4lessIS2_ESaIS5_EE11lower_boundERS4_ @4298
    _ZNSt8_Rb_treeIN4Json5Value8CZStringESt4pairIKS2_S1_ESt10_Select1stIS5_ESt4lessIS2_ESaIS5_EE12_M_erase_auxESt23_Rb_tree_const_iteratorIS5_E @4299
    _ZNSt8_Rb_treeIN4Json5Value8CZStringESt4pairIKS2_S1_ESt10_Select1stIS5_ESt4lessIS2_ESaIS5_EE12_M_erase_auxESt23_Rb_tree_const_iteratorIS5_ESD_ @4300
    _ZNSt8_Rb_treeIN4Json5Value8CZStringESt4pairIKS2_S1_ESt10_Select1stIS5_ESt4lessIS2_ESaIS5_EE12_M_rightmostEv @4301
    _ZNSt8_Rb_treeIN4Json5Value8CZStringESt4pairIKS2_S1_ESt10_Select1stIS5_ESt4lessIS2_ESaIS5_EE13_M_clone_nodeEPKSt13_Rb_tree_nodeIS5_E @4302
    _ZNSt8_Rb_treeIN4Json5Value8CZStringESt4pairIKS2_S1_ESt10_Select1stIS5_ESt4lessIS2_ESaIS5_EE13_Rb_tree_implIS9_Lb0EE13_M_initializeEv @4303
    _ZNSt8_Rb_treeIN4Json5Value8CZStringESt4pairIKS2_S1_ESt10_Select1stIS5_ESt4lessIS2_ESaIS5_EE13_Rb_tree_implIS9_Lb0EEC1ERKS9_RKSaISt13_Rb_tree_nodeIS5_EE @4304
    _ZNSt8_Rb_treeIN4Json5Value8CZStringESt4pairIKS2_S1_ESt10_Select1stIS5_ESt4lessIS2_ESaIS5_EE13_Rb_tree_implIS9_Lb0EEC1Ev @4305
    _ZNSt8_Rb_treeIN4Json5Value8CZStringESt4pairIKS2_S1_ESt10_Select1stIS5_ESt4lessIS2_ESaIS5_EE13_Rb_tree_implIS9_Lb0EED1Ev @4306
    _ZNSt8_Rb_treeIN4Json5Value8CZStringESt4pairIKS2_S1_ESt10_Select1stIS5_ESt4lessIS2_ESaIS5_EE14_M_create_nodeERKS5_ @4307
    _ZNSt8_Rb_treeIN4Json5Value8CZStringESt4pairIKS2_S1_ESt10_Select1stIS5_ESt4lessIS2_ESaIS5_EE14_M_lower_boundEPSt13_Rb_tree_nodeIS5_ESE_RS4_ @4308
    _ZNSt8_Rb_treeIN4Json5Value8CZStringESt4pairIKS2_S1_ESt10_Select1stIS5_ESt4lessIS2_ESaIS5_EE14_M_upper_boundEPSt13_Rb_tree_nodeIS5_ESE_RS4_ @4309
    _ZNSt8_Rb_treeIN4Json5Value8CZStringESt4pairIKS2_S1_ESt10_Select1stIS5_ESt4lessIS2_ESaIS5_EE15_M_destroy_nodeEPSt13_Rb_tree_nodeIS5_E @4310
    _ZNSt8_Rb_treeIN4Json5Value8CZStringESt4pairIKS2_S1_ESt10_Select1stIS5_ESt4lessIS2_ESaIS5_EE16_M_insert_uniqueERKS5_ @4311
    _ZNSt8_Rb_treeIN4Json5Value8CZStringESt4pairIKS2_S1_ESt10_Select1stIS5_ESt4lessIS2_ESaIS5_EE17_M_insert_unique_ESt23_Rb_tree_const_iteratorIS5_ERKS5_ @4312
    _ZNSt8_Rb_treeIN4Json5Value8CZStringESt4pairIKS2_S1_ESt10_Select1stIS5_ESt4lessIS2_ESaIS5_EE3endEv @4313
    _ZNSt8_Rb_treeIN4Json5Value8CZStringESt4pairIKS2_S1_ESt10_Select1stIS5_ESt4lessIS2_ESaIS5_EE4findERS4_ @4314
    _ZNSt8_Rb_treeIN4Json5Value8CZStringESt4pairIKS2_S1_ESt10_Select1stIS5_ESt4lessIS2_ESaIS5_EE5beginEv @4315
    _ZNSt8_Rb_treeIN4Json5Value8CZStringESt4pairIKS2_S1_ESt10_Select1stIS5_ESt4lessIS2_ESaIS5_EE5clearEv @4316
    _ZNSt8_Rb_treeIN4Json5Value8CZStringESt4pairIKS2_S1_ESt10_Select1stIS5_ESt4lessIS2_ESaIS5_EE5eraseERS4_ @4317
    _ZNSt8_Rb_treeIN4Json5Value8CZStringESt4pairIKS2_S1_ESt10_Select1stIS5_ESt4lessIS2_ESaIS5_EE5eraseESt17_Rb_tree_iteratorIS5_E @4318
    _ZNSt8_Rb_treeIN4Json5Value8CZStringESt4pairIKS2_S1_ESt10_Select1stIS5_ESt4lessIS2_ESaIS5_EE5eraseESt17_Rb_tree_iteratorIS5_ESD_ @4319
    _ZNSt8_Rb_treeIN4Json5Value8CZStringESt4pairIKS2_S1_ESt10_Select1stIS5_ESt4lessIS2_ESaIS5_EE5eraseESt23_Rb_tree_const_iteratorIS5_E @4320
    _ZNSt8_Rb_treeIN4Json5Value8CZStringESt4pairIKS2_S1_ESt10_Select1stIS5_ESt4lessIS2_ESaIS5_EE6_M_endEv @4321
    _ZNSt8_Rb_treeIN4Json5Value8CZStringESt4pairIKS2_S1_ESt10_Select1stIS5_ESt4lessIS2_ESaIS5_EE6_S_keyEPKSt13_Rb_tree_nodeIS5_E @4322
    _ZNSt8_Rb_treeIN4Json5Value8CZStringESt4pairIKS2_S1_ESt10_Select1stIS5_ESt4lessIS2_ESaIS5_EE6_S_keyEPKSt18_Rb_tree_node_base @4323
    _ZNSt8_Rb_treeIN4Json5Value8CZStringESt4pairIKS2_S1_ESt10_Select1stIS5_ESt4lessIS2_ESaIS5_EE7_M_copyEPKSt13_Rb_tree_nodeIS5_EPSD_ @4324
    _ZNSt8_Rb_treeIN4Json5Value8CZStringESt4pairIKS2_S1_ESt10_Select1stIS5_ESt4lessIS2_ESaIS5_EE7_M_rootEv @4325
    _ZNSt8_Rb_treeIN4Json5Value8CZStringESt4pairIKS2_S1_ESt10_Select1stIS5_ESt4lessIS2_ESaIS5_EE7_S_leftEPKSt18_Rb_tree_node_base @4326
    _ZNSt8_Rb_treeIN4Json5Value8CZStringESt4pairIKS2_S1_ESt10_Select1stIS5_ESt4lessIS2_ESaIS5_EE7_S_leftEPSt18_Rb_tree_node_base @4327
    _ZNSt8_Rb_treeIN4Json5Value8CZStringESt4pairIKS2_S1_ESt10_Select1stIS5_ESt4lessIS2_ESaIS5_EE8_M_beginEv @4328
    _ZNSt8_Rb_treeIN4Json5Value8CZStringESt4pairIKS2_S1_ESt10_Select1stIS5_ESt4lessIS2_ESaIS5_EE8_M_eraseEPSt13_Rb_tree_nodeIS5_E @4329
    _ZNSt8_Rb_treeIN4Json5Value8CZStringESt4pairIKS2_S1_ESt10_Select1stIS5_ESt4lessIS2_ESaIS5_EE8_S_rightEPKSt18_Rb_tree_node_base @4330
    _ZNSt8_Rb_treeIN4Json5Value8CZStringESt4pairIKS2_S1_ESt10_Select1stIS5_ESt4lessIS2_ESaIS5_EE8_S_rightEPSt18_Rb_tree_node_base @4331
    _ZNSt8_Rb_treeIN4Json5Value8CZStringESt4pairIKS2_S1_ESt10_Select1stIS5_ESt4lessIS2_ESaIS5_EE8_S_valueEPKSt13_Rb_tree_nodeIS5_E @4332
    _ZNSt8_Rb_treeIN4Json5Value8CZStringESt4pairIKS2_S1_ESt10_Select1stIS5_ESt4lessIS2_ESaIS5_EE8_S_valueEPKSt18_Rb_tree_node_base @4333
    _ZNSt8_Rb_treeIN4Json5Value8CZStringESt4pairIKS2_S1_ESt10_Select1stIS5_ESt4lessIS2_ESaIS5_EEC1ERKSB_ @4334
    _ZNSt8_Rb_treeIN4Json5Value8CZStringESt4pairIKS2_S1_ESt10_Select1stIS5_ESt4lessIS2_ESaIS5_EEC1Ev @4335
    _ZNSt8_Rb_treeIN4Json5Value8CZStringESt4pairIKS2_S1_ESt10_Select1stIS5_ESt4lessIS2_ESaIS5_EED1Ev @4336
    _ZNSt8_Rb_treeIPN2sf4priv9GlContextES3_St9_IdentityIS3_ESt4lessIS3_ESaIS3_EE10_M_insert_EPKSt18_Rb_tree_node_baseSC_RKS3_ @4337
    _ZNSt8_Rb_treeIPN2sf4priv9GlContextES3_St9_IdentityIS3_ESt4lessIS3_ESaIS3_EE11_M_get_nodeEv @4338
    _ZNSt8_Rb_treeIPN2sf4priv9GlContextES3_St9_IdentityIS3_ESt4lessIS3_ESaIS3_EE11_M_leftmostEv @4339
    _ZNSt8_Rb_treeIPN2sf4priv9GlContextES3_St9_IdentityIS3_ESt4lessIS3_ESaIS3_EE11_M_put_nodeEPSt13_Rb_tree_nodeIS3_E @4340
    _ZNSt8_Rb_treeIPN2sf4priv9GlContextES3_St9_IdentityIS3_ESt4lessIS3_ESaIS3_EE12_M_rightmostEv @4341
    _ZNSt8_Rb_treeIPN2sf4priv9GlContextES3_St9_IdentityIS3_ESt4lessIS3_ESaIS3_EE13_Rb_tree_implIS7_Lb0EE13_M_initializeEv @4342
    _ZNSt8_Rb_treeIPN2sf4priv9GlContextES3_St9_IdentityIS3_ESt4lessIS3_ESaIS3_EE13_Rb_tree_implIS7_Lb0EEC1Ev @4343
    _ZNSt8_Rb_treeIPN2sf4priv9GlContextES3_St9_IdentityIS3_ESt4lessIS3_ESaIS3_EE13_Rb_tree_implIS7_Lb0EED1Ev @4344
    _ZNSt8_Rb_treeIPN2sf4priv9GlContextES3_St9_IdentityIS3_ESt4lessIS3_ESaIS3_EE14_M_create_nodeERKS3_ @4345
    _ZNSt8_Rb_treeIPN2sf4priv9GlContextES3_St9_IdentityIS3_ESt4lessIS3_ESaIS3_EE14_M_lower_boundEPSt13_Rb_tree_nodeIS3_ESC_RKS3_ @4346
    _ZNSt8_Rb_treeIPN2sf4priv9GlContextES3_St9_IdentityIS3_ESt4lessIS3_ESaIS3_EE15_M_destroy_nodeEPSt13_Rb_tree_nodeIS3_E @4347
    _ZNSt8_Rb_treeIPN2sf4priv9GlContextES3_St9_IdentityIS3_ESt4lessIS3_ESaIS3_EE16_M_insert_uniqueERKS3_ @4348
    _ZNSt8_Rb_treeIPN2sf4priv9GlContextES3_St9_IdentityIS3_ESt4lessIS3_ESaIS3_EE3endEv @4349
    _ZNSt8_Rb_treeIPN2sf4priv9GlContextES3_St9_IdentityIS3_ESt4lessIS3_ESaIS3_EE4findERKS3_ @4350
    _ZNSt8_Rb_treeIPN2sf4priv9GlContextES3_St9_IdentityIS3_ESt4lessIS3_ESaIS3_EE5beginEv @4351
    _ZNSt8_Rb_treeIPN2sf4priv9GlContextES3_St9_IdentityIS3_ESt4lessIS3_ESaIS3_EE5clearEv @4352
    _ZNSt8_Rb_treeIPN2sf4priv9GlContextES3_St9_IdentityIS3_ESt4lessIS3_ESaIS3_EE6_M_endEv @4353
    _ZNSt8_Rb_treeIPN2sf4priv9GlContextES3_St9_IdentityIS3_ESt4lessIS3_ESaIS3_EE6_S_keyEPKSt13_Rb_tree_nodeIS3_E @4354
    _ZNSt8_Rb_treeIPN2sf4priv9GlContextES3_St9_IdentityIS3_ESt4lessIS3_ESaIS3_EE6_S_keyEPKSt18_Rb_tree_node_base @4355
    _ZNSt8_Rb_treeIPN2sf4priv9GlContextES3_St9_IdentityIS3_ESt4lessIS3_ESaIS3_EE7_M_rootEv @4356
    _ZNSt8_Rb_treeIPN2sf4priv9GlContextES3_St9_IdentityIS3_ESt4lessIS3_ESaIS3_EE7_S_leftEPSt18_Rb_tree_node_base @4357
    _ZNSt8_Rb_treeIPN2sf4priv9GlContextES3_St9_IdentityIS3_ESt4lessIS3_ESaIS3_EE8_M_beginEv @4358
    _ZNSt8_Rb_treeIPN2sf4priv9GlContextES3_St9_IdentityIS3_ESt4lessIS3_ESaIS3_EE8_M_eraseEPSt13_Rb_tree_nodeIS3_E @4359
    _ZNSt8_Rb_treeIPN2sf4priv9GlContextES3_St9_IdentityIS3_ESt4lessIS3_ESaIS3_EE8_S_rightEPSt18_Rb_tree_node_base @4360
    _ZNSt8_Rb_treeIPN2sf4priv9GlContextES3_St9_IdentityIS3_ESt4lessIS3_ESaIS3_EE8_S_valueEPKSt13_Rb_tree_nodeIS3_E @4361
    _ZNSt8_Rb_treeIPN2sf4priv9GlContextES3_St9_IdentityIS3_ESt4lessIS3_ESaIS3_EE8_S_valueEPKSt18_Rb_tree_node_base @4362
    _ZNSt8_Rb_treeIPN2sf4priv9GlContextES3_St9_IdentityIS3_ESt4lessIS3_ESaIS3_EEC1Ev @4363
    _ZNSt8_Rb_treeIPN2sf4priv9GlContextES3_St9_IdentityIS3_ESt4lessIS3_ESaIS3_EED1Ev @4364
    _ZNSt8_Rb_treeIPN2sf5SoundES2_St9_IdentityIS2_ESt4lessIS2_ESaIS2_EE10_M_insert_EPKSt18_Rb_tree_node_baseSB_RKS2_ @4365
    _ZNSt8_Rb_treeIPN2sf5SoundES2_St9_IdentityIS2_ESt4lessIS2_ESaIS2_EE11_M_get_nodeEv @4366
    _ZNSt8_Rb_treeIPN2sf5SoundES2_St9_IdentityIS2_ESt4lessIS2_ESaIS2_EE11_M_leftmostEv @4367
    _ZNSt8_Rb_treeIPN2sf5SoundES2_St9_IdentityIS2_ESt4lessIS2_ESaIS2_EE11_M_put_nodeEPSt13_Rb_tree_nodeIS2_E @4368
    _ZNSt8_Rb_treeIPN2sf5SoundES2_St9_IdentityIS2_ESt4lessIS2_ESaIS2_EE11equal_rangeERKS2_ @4369
    _ZNSt8_Rb_treeIPN2sf5SoundES2_St9_IdentityIS2_ESt4lessIS2_ESaIS2_EE12_M_erase_auxESt23_Rb_tree_const_iteratorIS2_E @4370
    _ZNSt8_Rb_treeIPN2sf5SoundES2_St9_IdentityIS2_ESt4lessIS2_ESaIS2_EE12_M_erase_auxESt23_Rb_tree_const_iteratorIS2_ESA_ @4371
    _ZNSt8_Rb_treeIPN2sf5SoundES2_St9_IdentityIS2_ESt4lessIS2_ESaIS2_EE12_M_rightmostEv @4372
    _ZNSt8_Rb_treeIPN2sf5SoundES2_St9_IdentityIS2_ESt4lessIS2_ESaIS2_EE13_Rb_tree_implIS6_Lb0EE13_M_initializeEv @4373
    _ZNSt8_Rb_treeIPN2sf5SoundES2_St9_IdentityIS2_ESt4lessIS2_ESaIS2_EE13_Rb_tree_implIS6_Lb0EEC1Ev @4374
    _ZNSt8_Rb_treeIPN2sf5SoundES2_St9_IdentityIS2_ESt4lessIS2_ESaIS2_EE13_Rb_tree_implIS6_Lb0EED1Ev @4375
    _ZNSt8_Rb_treeIPN2sf5SoundES2_St9_IdentityIS2_ESt4lessIS2_ESaIS2_EE14_M_create_nodeERKS2_ @4376
    _ZNSt8_Rb_treeIPN2sf5SoundES2_St9_IdentityIS2_ESt4lessIS2_ESaIS2_EE14_M_lower_boundEPSt13_Rb_tree_nodeIS2_ESB_RKS2_ @4377
    _ZNSt8_Rb_treeIPN2sf5SoundES2_St9_IdentityIS2_ESt4lessIS2_ESaIS2_EE14_M_upper_boundEPSt13_Rb_tree_nodeIS2_ESB_RKS2_ @4378
    _ZNSt8_Rb_treeIPN2sf5SoundES2_St9_IdentityIS2_ESt4lessIS2_ESaIS2_EE15_M_destroy_nodeEPSt13_Rb_tree_nodeIS2_E @4379
    _ZNSt8_Rb_treeIPN2sf5SoundES2_St9_IdentityIS2_ESt4lessIS2_ESaIS2_EE16_M_insert_uniqueERKS2_ @4380
    _ZNSt8_Rb_treeIPN2sf5SoundES2_St9_IdentityIS2_ESt4lessIS2_ESaIS2_EE21_M_get_Node_allocatorEv @4381
    _ZNSt8_Rb_treeIPN2sf5SoundES2_St9_IdentityIS2_ESt4lessIS2_ESaIS2_EE3endEv @4382
    _ZNSt8_Rb_treeIPN2sf5SoundES2_St9_IdentityIS2_ESt4lessIS2_ESaIS2_EE4swapERS8_ @4383
    _ZNSt8_Rb_treeIPN2sf5SoundES2_St9_IdentityIS2_ESt4lessIS2_ESaIS2_EE5beginEv @4384
    _ZNSt8_Rb_treeIPN2sf5SoundES2_St9_IdentityIS2_ESt4lessIS2_ESaIS2_EE5clearEv @4385
    _ZNSt8_Rb_treeIPN2sf5SoundES2_St9_IdentityIS2_ESt4lessIS2_ESaIS2_EE5eraseERKS2_ @4386
    _ZNSt8_Rb_treeIPN2sf5SoundES2_St9_IdentityIS2_ESt4lessIS2_ESaIS2_EE5eraseESt17_Rb_tree_iteratorIS2_ESA_ @4387
    _ZNSt8_Rb_treeIPN2sf5SoundES2_St9_IdentityIS2_ESt4lessIS2_ESaIS2_EE5eraseESt23_Rb_tree_const_iteratorIS2_E @4388
    _ZNSt8_Rb_treeIPN2sf5SoundES2_St9_IdentityIS2_ESt4lessIS2_ESaIS2_EE6_M_endEv @4389
    _ZNSt8_Rb_treeIPN2sf5SoundES2_St9_IdentityIS2_ESt4lessIS2_ESaIS2_EE6_S_keyEPKSt13_Rb_tree_nodeIS2_E @4390
    _ZNSt8_Rb_treeIPN2sf5SoundES2_St9_IdentityIS2_ESt4lessIS2_ESaIS2_EE6_S_keyEPKSt18_Rb_tree_node_base @4391
    _ZNSt8_Rb_treeIPN2sf5SoundES2_St9_IdentityIS2_ESt4lessIS2_ESaIS2_EE7_M_rootEv @4392
    _ZNSt8_Rb_treeIPN2sf5SoundES2_St9_IdentityIS2_ESt4lessIS2_ESaIS2_EE7_S_leftEPSt18_Rb_tree_node_base @4393
    _ZNSt8_Rb_treeIPN2sf5SoundES2_St9_IdentityIS2_ESt4lessIS2_ESaIS2_EE8_M_beginEv @4394
    _ZNSt8_Rb_treeIPN2sf5SoundES2_St9_IdentityIS2_ESt4lessIS2_ESaIS2_EE8_M_eraseEPSt13_Rb_tree_nodeIS2_E @4395
    _ZNSt8_Rb_treeIPN2sf5SoundES2_St9_IdentityIS2_ESt4lessIS2_ESaIS2_EE8_S_rightEPSt18_Rb_tree_node_base @4396
    _ZNSt8_Rb_treeIPN2sf5SoundES2_St9_IdentityIS2_ESt4lessIS2_ESaIS2_EE8_S_valueEPKSt13_Rb_tree_nodeIS2_E @4397
    _ZNSt8_Rb_treeIPN2sf5SoundES2_St9_IdentityIS2_ESt4lessIS2_ESaIS2_EE8_S_valueEPKSt18_Rb_tree_node_base @4398
    _ZNSt8_Rb_treeIPN2sf5SoundES2_St9_IdentityIS2_ESt4lessIS2_ESaIS2_EEC1Ev @4399
    _ZNSt8_Rb_treeIPN2sf5SoundES2_St9_IdentityIS2_ESt4lessIS2_ESaIS2_EED1Ev @4400
    _ZNSt8_Rb_treeISsSt4pairIKSsN9Ptakopysk11GameManager20ComponentFactoryDataEESt10_Select1stIS5_ESt4lessISsESaIS5_EE10_M_insert_EPKSt18_Rb_tree_node_baseSE_RKS5_ @4401
    _ZNSt8_Rb_treeISsSt4pairIKSsN9Ptakopysk11GameManager20ComponentFactoryDataEESt10_Select1stIS5_ESt4lessISsESaIS5_EE11_M_get_nodeEv @4402
    _ZNSt8_Rb_treeISsSt4pairIKSsN9Ptakopysk11GameManager20ComponentFactoryDataEESt10_Select1stIS5_ESt4lessISsESaIS5_EE11_M_leftmostEv @4403
    _ZNSt8_Rb_treeISsSt4pairIKSsN9Ptakopysk11GameManager20ComponentFactoryDataEESt10_Select1stIS5_ESt4lessISsESaIS5_EE11_M_put_nodeEPSt13_Rb_tree_nodeIS5_E @4404
    _ZNSt8_Rb_treeISsSt4pairIKSsN9Ptakopysk11GameManager20ComponentFactoryDataEESt10_Select1stIS5_ESt4lessISsESaIS5_EE11equal_rangeERS1_ @4405
    _ZNSt8_Rb_treeISsSt4pairIKSsN9Ptakopysk11GameManager20ComponentFactoryDataEESt10_Select1stIS5_ESt4lessISsESaIS5_EE11lower_boundERS1_ @4406
    _ZNSt8_Rb_treeISsSt4pairIKSsN9Ptakopysk11GameManager20ComponentFactoryDataEESt10_Select1stIS5_ESt4lessISsESaIS5_EE12_M_erase_auxESt23_Rb_tree_const_iteratorIS5_E @4407
    _ZNSt8_Rb_treeISsSt4pairIKSsN9Ptakopysk11GameManager20ComponentFactoryDataEESt10_Select1stIS5_ESt4lessISsESaIS5_EE12_M_erase_auxESt23_Rb_tree_const_iteratorIS5_ESD_ @4408
    _ZNSt8_Rb_treeISsSt4pairIKSsN9Ptakopysk11GameManager20ComponentFactoryDataEESt10_Select1stIS5_ESt4lessISsESaIS5_EE12_M_rightmostEv @4409
    _ZNSt8_Rb_treeISsSt4pairIKSsN9Ptakopysk11GameManager20ComponentFactoryDataEESt10_Select1stIS5_ESt4lessISsESaIS5_EE13_Rb_tree_implIS9_Lb0EE13_M_initializeEv @4410
    _ZNSt8_Rb_treeISsSt4pairIKSsN9Ptakopysk11GameManager20ComponentFactoryDataEESt10_Select1stIS5_ESt4lessISsESaIS5_EE13_Rb_tree_implIS9_Lb0EEC1Ev @4411
    _ZNSt8_Rb_treeISsSt4pairIKSsN9Ptakopysk11GameManager20ComponentFactoryDataEESt10_Select1stIS5_ESt4lessISsESaIS5_EE13_Rb_tree_implIS9_Lb0EED1Ev @4412
    _ZNSt8_Rb_treeISsSt4pairIKSsN9Ptakopysk11GameManager20ComponentFactoryDataEESt10_Select1stIS5_ESt4lessISsESaIS5_EE14_M_create_nodeERKS5_ @4413
    _ZNSt8_Rb_treeISsSt4pairIKSsN9Ptakopysk11GameManager20ComponentFactoryDataEESt10_Select1stIS5_ESt4lessISsESaIS5_EE14_M_lower_boundEPSt13_Rb_tree_nodeIS5_ESE_RS1_ @4414
    _ZNSt8_Rb_treeISsSt4pairIKSsN9Ptakopysk11GameManager20ComponentFactoryDataEESt10_Select1stIS5_ESt4lessISsESaIS5_EE14_M_upper_boundEPSt13_Rb_tree_nodeIS5_ESE_RS1_ @4415
    _ZNSt8_Rb_treeISsSt4pairIKSsN9Ptakopysk11GameManager20ComponentFactoryDataEESt10_Select1stIS5_ESt4lessISsESaIS5_EE15_M_destroy_nodeEPSt13_Rb_tree_nodeIS5_E @4416
    _ZNSt8_Rb_treeISsSt4pairIKSsN9Ptakopysk11GameManager20ComponentFactoryDataEESt10_Select1stIS5_ESt4lessISsESaIS5_EE16_M_insert_uniqueERKS5_ @4417
    _ZNSt8_Rb_treeISsSt4pairIKSsN9Ptakopysk11GameManager20ComponentFactoryDataEESt10_Select1stIS5_ESt4lessISsESaIS5_EE17_M_insert_unique_ESt23_Rb_tree_const_iteratorIS5_ERKS5_ @4418
    _ZNSt8_Rb_treeISsSt4pairIKSsN9Ptakopysk11GameManager20ComponentFactoryDataEESt10_Select1stIS5_ESt4lessISsESaIS5_EE3endEv @4419
    _ZNSt8_Rb_treeISsSt4pairIKSsN9Ptakopysk11GameManager20ComponentFactoryDataEESt10_Select1stIS5_ESt4lessISsESaIS5_EE5beginEv @4420
    _ZNSt8_Rb_treeISsSt4pairIKSsN9Ptakopysk11GameManager20ComponentFactoryDataEESt10_Select1stIS5_ESt4lessISsESaIS5_EE5clearEv @4421
    _ZNSt8_Rb_treeISsSt4pairIKSsN9Ptakopysk11GameManager20ComponentFactoryDataEESt10_Select1stIS5_ESt4lessISsESaIS5_EE5eraseERS1_ @4422
    _ZNSt8_Rb_treeISsSt4pairIKSsN9Ptakopysk11GameManager20ComponentFactoryDataEESt10_Select1stIS5_ESt4lessISsESaIS5_EE5eraseESt17_Rb_tree_iteratorIS5_E @4423
    _ZNSt8_Rb_treeISsSt4pairIKSsN9Ptakopysk11GameManager20ComponentFactoryDataEESt10_Select1stIS5_ESt4lessISsESaIS5_EE5eraseESt17_Rb_tree_iteratorIS5_ESD_ @4424
    _ZNSt8_Rb_treeISsSt4pairIKSsN9Ptakopysk11GameManager20ComponentFactoryDataEESt10_Select1stIS5_ESt4lessISsESaIS5_EE5eraseESt23_Rb_tree_const_iteratorIS5_E @4425
    _ZNSt8_Rb_treeISsSt4pairIKSsN9Ptakopysk11GameManager20ComponentFactoryDataEESt10_Select1stIS5_ESt4lessISsESaIS5_EE6_M_endEv @4426
    _ZNSt8_Rb_treeISsSt4pairIKSsN9Ptakopysk11GameManager20ComponentFactoryDataEESt10_Select1stIS5_ESt4lessISsESaIS5_EE6_S_keyEPKSt13_Rb_tree_nodeIS5_E @4427
    _ZNSt8_Rb_treeISsSt4pairIKSsN9Ptakopysk11GameManager20ComponentFactoryDataEESt10_Select1stIS5_ESt4lessISsESaIS5_EE6_S_keyEPKSt18_Rb_tree_node_base @4428
    _ZNSt8_Rb_treeISsSt4pairIKSsN9Ptakopysk11GameManager20ComponentFactoryDataEESt10_Select1stIS5_ESt4lessISsESaIS5_EE7_M_rootEv @4429
    _ZNSt8_Rb_treeISsSt4pairIKSsN9Ptakopysk11GameManager20ComponentFactoryDataEESt10_Select1stIS5_ESt4lessISsESaIS5_EE7_S_leftEPKSt18_Rb_tree_node_base @4430
    _ZNSt8_Rb_treeISsSt4pairIKSsN9Ptakopysk11GameManager20ComponentFactoryDataEESt10_Select1stIS5_ESt4lessISsESaIS5_EE7_S_leftEPSt18_Rb_tree_node_base @4431
    _ZNSt8_Rb_treeISsSt4pairIKSsN9Ptakopysk11GameManager20ComponentFactoryDataEESt10_Select1stIS5_ESt4lessISsESaIS5_EE8_M_beginEv @4432
    _ZNSt8_Rb_treeISsSt4pairIKSsN9Ptakopysk11GameManager20ComponentFactoryDataEESt10_Select1stIS5_ESt4lessISsESaIS5_EE8_M_eraseEPSt13_Rb_tree_nodeIS5_E @4433
    _ZNSt8_Rb_treeISsSt4pairIKSsN9Ptakopysk11GameManager20ComponentFactoryDataEESt10_Select1stIS5_ESt4lessISsESaIS5_EE8_S_rightEPKSt18_Rb_tree_node_base @4434
    _ZNSt8_Rb_treeISsSt4pairIKSsN9Ptakopysk11GameManager20ComponentFactoryDataEESt10_Select1stIS5_ESt4lessISsESaIS5_EE8_S_rightEPSt18_Rb_tree_node_base @4435
    _ZNSt8_Rb_treeISsSt4pairIKSsN9Ptakopysk11GameManager20ComponentFactoryDataEESt10_Select1stIS5_ESt4lessISsESaIS5_EE8_S_valueEPKSt13_Rb_tree_nodeIS5_E @4436
    _ZNSt8_Rb_treeISsSt4pairIKSsN9Ptakopysk11GameManager20ComponentFactoryDataEESt10_Select1stIS5_ESt4lessISsESaIS5_EE8_S_valueEPKSt18_Rb_tree_node_base @4437
    _ZNSt8_Rb_treeISsSt4pairIKSsN9Ptakopysk11GameManager20ComponentFactoryDataEESt10_Select1stIS5_ESt4lessISsESaIS5_EEC1Ev @4438
    _ZNSt8_Rb_treeISsSt4pairIKSsN9Ptakopysk11GameManager20ComponentFactoryDataEESt10_Select1stIS5_ESt4lessISsESaIS5_EED1Ev @4439
    _ZNSt8_Rb_treeISsSt4pairIKSsPN2sf11SoundBufferEESt10_Select1stIS5_ESt4lessISsESaIS5_EE10_M_insert_EPKSt18_Rb_tree_node_baseSE_RKS5_ @4440
    _ZNSt8_Rb_treeISsSt4pairIKSsPN2sf11SoundBufferEESt10_Select1stIS5_ESt4lessISsESaIS5_EE11_M_get_nodeEv @4441
    _ZNSt8_Rb_treeISsSt4pairIKSsPN2sf11SoundBufferEESt10_Select1stIS5_ESt4lessISsESaIS5_EE11_M_leftmostEv @4442
    _ZNSt8_Rb_treeISsSt4pairIKSsPN2sf11SoundBufferEESt10_Select1stIS5_ESt4lessISsESaIS5_EE11_M_put_nodeEPSt13_Rb_tree_nodeIS5_E @4443
    _ZNSt8_Rb_treeISsSt4pairIKSsPN2sf11SoundBufferEESt10_Select1stIS5_ESt4lessISsESaIS5_EE11equal_rangeERS1_ @4444
    _ZNSt8_Rb_treeISsSt4pairIKSsPN2sf11SoundBufferEESt10_Select1stIS5_ESt4lessISsESaIS5_EE11lower_boundERS1_ @4445
    _ZNSt8_Rb_treeISsSt4pairIKSsPN2sf11SoundBufferEESt10_Select1stIS5_ESt4lessISsESaIS5_EE12_M_erase_auxESt23_Rb_tree_const_iteratorIS5_E @4446
    _ZNSt8_Rb_treeISsSt4pairIKSsPN2sf11SoundBufferEESt10_Select1stIS5_ESt4lessISsESaIS5_EE12_M_erase_auxESt23_Rb_tree_const_iteratorIS5_ESD_ @4447
    _ZNSt8_Rb_treeISsSt4pairIKSsPN2sf11SoundBufferEESt10_Select1stIS5_ESt4lessISsESaIS5_EE12_M_rightmostEv @4448
    _ZNSt8_Rb_treeISsSt4pairIKSsPN2sf11SoundBufferEESt10_Select1stIS5_ESt4lessISsESaIS5_EE13_Rb_tree_implIS9_Lb0EE13_M_initializeEv @4449
    _ZNSt8_Rb_treeISsSt4pairIKSsPN2sf11SoundBufferEESt10_Select1stIS5_ESt4lessISsESaIS5_EE13_Rb_tree_implIS9_Lb0EEC1Ev @4450
    _ZNSt8_Rb_treeISsSt4pairIKSsPN2sf11SoundBufferEESt10_Select1stIS5_ESt4lessISsESaIS5_EE13_Rb_tree_implIS9_Lb0EED1Ev @4451
    _ZNSt8_Rb_treeISsSt4pairIKSsPN2sf11SoundBufferEESt10_Select1stIS5_ESt4lessISsESaIS5_EE14_M_create_nodeERKS5_ @4452
    _ZNSt8_Rb_treeISsSt4pairIKSsPN2sf11SoundBufferEESt10_Select1stIS5_ESt4lessISsESaIS5_EE14_M_lower_boundEPSt13_Rb_tree_nodeIS5_ESE_RS1_ @4453
    _ZNSt8_Rb_treeISsSt4pairIKSsPN2sf11SoundBufferEESt10_Select1stIS5_ESt4lessISsESaIS5_EE14_M_upper_boundEPSt13_Rb_tree_nodeIS5_ESE_RS1_ @4454
    _ZNSt8_Rb_treeISsSt4pairIKSsPN2sf11SoundBufferEESt10_Select1stIS5_ESt4lessISsESaIS5_EE15_M_destroy_nodeEPSt13_Rb_tree_nodeIS5_E @4455
    _ZNSt8_Rb_treeISsSt4pairIKSsPN2sf11SoundBufferEESt10_Select1stIS5_ESt4lessISsESaIS5_EE16_M_insert_uniqueERKS5_ @4456
    _ZNSt8_Rb_treeISsSt4pairIKSsPN2sf11SoundBufferEESt10_Select1stIS5_ESt4lessISsESaIS5_EE17_M_insert_unique_ESt23_Rb_tree_const_iteratorIS5_ERKS5_ @4457
    _ZNSt8_Rb_treeISsSt4pairIKSsPN2sf11SoundBufferEESt10_Select1stIS5_ESt4lessISsESaIS5_EE3endEv @4458
    _ZNSt8_Rb_treeISsSt4pairIKSsPN2sf11SoundBufferEESt10_Select1stIS5_ESt4lessISsESaIS5_EE5beginEv @4459
    _ZNSt8_Rb_treeISsSt4pairIKSsPN2sf11SoundBufferEESt10_Select1stIS5_ESt4lessISsESaIS5_EE5clearEv @4460
    _ZNSt8_Rb_treeISsSt4pairIKSsPN2sf11SoundBufferEESt10_Select1stIS5_ESt4lessISsESaIS5_EE5eraseERS1_ @4461
    _ZNSt8_Rb_treeISsSt4pairIKSsPN2sf11SoundBufferEESt10_Select1stIS5_ESt4lessISsESaIS5_EE5eraseESt17_Rb_tree_iteratorIS5_ESD_ @4462
    _ZNSt8_Rb_treeISsSt4pairIKSsPN2sf11SoundBufferEESt10_Select1stIS5_ESt4lessISsESaIS5_EE5eraseESt23_Rb_tree_const_iteratorIS5_E @4463
    _ZNSt8_Rb_treeISsSt4pairIKSsPN2sf11SoundBufferEESt10_Select1stIS5_ESt4lessISsESaIS5_EE6_M_endEv @4464
    _ZNSt8_Rb_treeISsSt4pairIKSsPN2sf11SoundBufferEESt10_Select1stIS5_ESt4lessISsESaIS5_EE6_S_keyEPKSt13_Rb_tree_nodeIS5_E @4465
    _ZNSt8_Rb_treeISsSt4pairIKSsPN2sf11SoundBufferEESt10_Select1stIS5_ESt4lessISsESaIS5_EE6_S_keyEPKSt18_Rb_tree_node_base @4466
    _ZNSt8_Rb_treeISsSt4pairIKSsPN2sf11SoundBufferEESt10_Select1stIS5_ESt4lessISsESaIS5_EE7_M_rootEv @4467
    _ZNSt8_Rb_treeISsSt4pairIKSsPN2sf11SoundBufferEESt10_Select1stIS5_ESt4lessISsESaIS5_EE7_S_leftEPKSt18_Rb_tree_node_base @4468
    _ZNSt8_Rb_treeISsSt4pairIKSsPN2sf11SoundBufferEESt10_Select1stIS5_ESt4lessISsESaIS5_EE7_S_leftEPSt18_Rb_tree_node_base @4469
    _ZNSt8_Rb_treeISsSt4pairIKSsPN2sf11SoundBufferEESt10_Select1stIS5_ESt4lessISsESaIS5_EE8_M_beginEv @4470
    _ZNSt8_Rb_treeISsSt4pairIKSsPN2sf11SoundBufferEESt10_Select1stIS5_ESt4lessISsESaIS5_EE8_M_eraseEPSt13_Rb_tree_nodeIS5_E @4471
    _ZNSt8_Rb_treeISsSt4pairIKSsPN2sf11SoundBufferEESt10_Select1stIS5_ESt4lessISsESaIS5_EE8_S_rightEPKSt18_Rb_tree_node_base @4472
    _ZNSt8_Rb_treeISsSt4pairIKSsPN2sf11SoundBufferEESt10_Select1stIS5_ESt4lessISsESaIS5_EE8_S_rightEPSt18_Rb_tree_node_base @4473
    _ZNSt8_Rb_treeISsSt4pairIKSsPN2sf11SoundBufferEESt10_Select1stIS5_ESt4lessISsESaIS5_EE8_S_valueEPKSt13_Rb_tree_nodeIS5_E @4474
    _ZNSt8_Rb_treeISsSt4pairIKSsPN2sf11SoundBufferEESt10_Select1stIS5_ESt4lessISsESaIS5_EE8_S_valueEPKSt18_Rb_tree_node_base @4475
    _ZNSt8_Rb_treeISsSt4pairIKSsPN2sf11SoundBufferEESt10_Select1stIS5_ESt4lessISsESaIS5_EEC1Ev @4476
    _ZNSt8_Rb_treeISsSt4pairIKSsPN2sf11SoundBufferEESt10_Select1stIS5_ESt4lessISsESaIS5_EED1Ev @4477
    _ZNSt8_Rb_treeISsSt4pairIKSsPN2sf4FontEESt10_Select1stIS5_ESt4lessISsESaIS5_EE10_M_insert_EPKSt18_Rb_tree_node_baseSE_RKS5_ @4478
    _ZNSt8_Rb_treeISsSt4pairIKSsPN2sf4FontEESt10_Select1stIS5_ESt4lessISsESaIS5_EE11_M_get_nodeEv @4479
    _ZNSt8_Rb_treeISsSt4pairIKSsPN2sf4FontEESt10_Select1stIS5_ESt4lessISsESaIS5_EE11_M_leftmostEv @4480
    _ZNSt8_Rb_treeISsSt4pairIKSsPN2sf4FontEESt10_Select1stIS5_ESt4lessISsESaIS5_EE11_M_put_nodeEPSt13_Rb_tree_nodeIS5_E @4481
    _ZNSt8_Rb_treeISsSt4pairIKSsPN2sf4FontEESt10_Select1stIS5_ESt4lessISsESaIS5_EE11equal_rangeERS1_ @4482
    _ZNSt8_Rb_treeISsSt4pairIKSsPN2sf4FontEESt10_Select1stIS5_ESt4lessISsESaIS5_EE11lower_boundERS1_ @4483
    _ZNSt8_Rb_treeISsSt4pairIKSsPN2sf4FontEESt10_Select1stIS5_ESt4lessISsESaIS5_EE12_M_erase_auxESt23_Rb_tree_const_iteratorIS5_E @4484
    _ZNSt8_Rb_treeISsSt4pairIKSsPN2sf4FontEESt10_Select1stIS5_ESt4lessISsESaIS5_EE12_M_erase_auxESt23_Rb_tree_const_iteratorIS5_ESD_ @4485
    _ZNSt8_Rb_treeISsSt4pairIKSsPN2sf4FontEESt10_Select1stIS5_ESt4lessISsESaIS5_EE12_M_rightmostEv @4486
    _ZNSt8_Rb_treeISsSt4pairIKSsPN2sf4FontEESt10_Select1stIS5_ESt4lessISsESaIS5_EE13_Rb_tree_implIS9_Lb0EE13_M_initializeEv @4487
    _ZNSt8_Rb_treeISsSt4pairIKSsPN2sf4FontEESt10_Select1stIS5_ESt4lessISsESaIS5_EE13_Rb_tree_implIS9_Lb0EEC1Ev @4488
    _ZNSt8_Rb_treeISsSt4pairIKSsPN2sf4FontEESt10_Select1stIS5_ESt4lessISsESaIS5_EE13_Rb_tree_implIS9_Lb0EED1Ev @4489
    _ZNSt8_Rb_treeISsSt4pairIKSsPN2sf4FontEESt10_Select1stIS5_ESt4lessISsESaIS5_EE14_M_create_nodeERKS5_ @4490
    _ZNSt8_Rb_treeISsSt4pairIKSsPN2sf4FontEESt10_Select1stIS5_ESt4lessISsESaIS5_EE14_M_lower_boundEPSt13_Rb_tree_nodeIS5_ESE_RS1_ @4491
    _ZNSt8_Rb_treeISsSt4pairIKSsPN2sf4FontEESt10_Select1stIS5_ESt4lessISsESaIS5_EE14_M_upper_boundEPSt13_Rb_tree_nodeIS5_ESE_RS1_ @4492
    _ZNSt8_Rb_treeISsSt4pairIKSsPN2sf4FontEESt10_Select1stIS5_ESt4lessISsESaIS5_EE15_M_destroy_nodeEPSt13_Rb_tree_nodeIS5_E @4493
    _ZNSt8_Rb_treeISsSt4pairIKSsPN2sf4FontEESt10_Select1stIS5_ESt4lessISsESaIS5_EE16_M_insert_uniqueERKS5_ @4494
    _ZNSt8_Rb_treeISsSt4pairIKSsPN2sf4FontEESt10_Select1stIS5_ESt4lessISsESaIS5_EE17_M_insert_unique_ESt23_Rb_tree_const_iteratorIS5_ERKS5_ @4495
    _ZNSt8_Rb_treeISsSt4pairIKSsPN2sf4FontEESt10_Select1stIS5_ESt4lessISsESaIS5_EE3endEv @4496
    _ZNSt8_Rb_treeISsSt4pairIKSsPN2sf4FontEESt10_Select1stIS5_ESt4lessISsESaIS5_EE5beginEv @4497
    _ZNSt8_Rb_treeISsSt4pairIKSsPN2sf4FontEESt10_Select1stIS5_ESt4lessISsESaIS5_EE5clearEv @4498
    _ZNSt8_Rb_treeISsSt4pairIKSsPN2sf4FontEESt10_Select1stIS5_ESt4lessISsESaIS5_EE5eraseERS1_ @4499
    _ZNSt8_Rb_treeISsSt4pairIKSsPN2sf4FontEESt10_Select1stIS5_ESt4lessISsESaIS5_EE5eraseESt17_Rb_tree_iteratorIS5_ESD_ @4500
    _ZNSt8_Rb_treeISsSt4pairIKSsPN2sf4FontEESt10_Select1stIS5_ESt4lessISsESaIS5_EE5eraseESt23_Rb_tree_const_iteratorIS5_E @4501
    _ZNSt8_Rb_treeISsSt4pairIKSsPN2sf4FontEESt10_Select1stIS5_ESt4lessISsESaIS5_EE6_M_endEv @4502
    _ZNSt8_Rb_treeISsSt4pairIKSsPN2sf4FontEESt10_Select1stIS5_ESt4lessISsESaIS5_EE6_S_keyEPKSt13_Rb_tree_nodeIS5_E @4503
    _ZNSt8_Rb_treeISsSt4pairIKSsPN2sf4FontEESt10_Select1stIS5_ESt4lessISsESaIS5_EE6_S_keyEPKSt18_Rb_tree_node_base @4504
    _ZNSt8_Rb_treeISsSt4pairIKSsPN2sf4FontEESt10_Select1stIS5_ESt4lessISsESaIS5_EE7_M_rootEv @4505
    _ZNSt8_Rb_treeISsSt4pairIKSsPN2sf4FontEESt10_Select1stIS5_ESt4lessISsESaIS5_EE7_S_leftEPKSt18_Rb_tree_node_base @4506
    _ZNSt8_Rb_treeISsSt4pairIKSsPN2sf4FontEESt10_Select1stIS5_ESt4lessISsESaIS5_EE7_S_leftEPSt18_Rb_tree_node_base @4507
    _ZNSt8_Rb_treeISsSt4pairIKSsPN2sf4FontEESt10_Select1stIS5_ESt4lessISsESaIS5_EE8_M_beginEv @4508
    _ZNSt8_Rb_treeISsSt4pairIKSsPN2sf4FontEESt10_Select1stIS5_ESt4lessISsESaIS5_EE8_M_eraseEPSt13_Rb_tree_nodeIS5_E @4509
    _ZNSt8_Rb_treeISsSt4pairIKSsPN2sf4FontEESt10_Select1stIS5_ESt4lessISsESaIS5_EE8_S_rightEPKSt18_Rb_tree_node_base @4510
    _ZNSt8_Rb_treeISsSt4pairIKSsPN2sf4FontEESt10_Select1stIS5_ESt4lessISsESaIS5_EE8_S_rightEPSt18_Rb_tree_node_base @4511
    _ZNSt8_Rb_treeISsSt4pairIKSsPN2sf4FontEESt10_Select1stIS5_ESt4lessISsESaIS5_EE8_S_valueEPKSt13_Rb_tree_nodeIS5_E @4512
    _ZNSt8_Rb_treeISsSt4pairIKSsPN2sf4FontEESt10_Select1stIS5_ESt4lessISsESaIS5_EE8_S_valueEPKSt18_Rb_tree_node_base @4513
    _ZNSt8_Rb_treeISsSt4pairIKSsPN2sf4FontEESt10_Select1stIS5_ESt4lessISsESaIS5_EEC1Ev @4514
    _ZNSt8_Rb_treeISsSt4pairIKSsPN2sf4FontEESt10_Select1stIS5_ESt4lessISsESaIS5_EED1Ev @4515
    _ZNSt8_Rb_treeISsSt4pairIKSsPN2sf5MusicEESt10_Select1stIS5_ESt4lessISsESaIS5_EE10_M_insert_EPKSt18_Rb_tree_node_baseSE_RKS5_ @4516
    _ZNSt8_Rb_treeISsSt4pairIKSsPN2sf5MusicEESt10_Select1stIS5_ESt4lessISsESaIS5_EE11_M_get_nodeEv @4517
    _ZNSt8_Rb_treeISsSt4pairIKSsPN2sf5MusicEESt10_Select1stIS5_ESt4lessISsESaIS5_EE11_M_leftmostEv @4518
    _ZNSt8_Rb_treeISsSt4pairIKSsPN2sf5MusicEESt10_Select1stIS5_ESt4lessISsESaIS5_EE11_M_put_nodeEPSt13_Rb_tree_nodeIS5_E @4519
    _ZNSt8_Rb_treeISsSt4pairIKSsPN2sf5MusicEESt10_Select1stIS5_ESt4lessISsESaIS5_EE11equal_rangeERS1_ @4520
    _ZNSt8_Rb_treeISsSt4pairIKSsPN2sf5MusicEESt10_Select1stIS5_ESt4lessISsESaIS5_EE11lower_boundERS1_ @4521
    _ZNSt8_Rb_treeISsSt4pairIKSsPN2sf5MusicEESt10_Select1stIS5_ESt4lessISsESaIS5_EE12_M_erase_auxESt23_Rb_tree_const_iteratorIS5_E @4522
    _ZNSt8_Rb_treeISsSt4pairIKSsPN2sf5MusicEESt10_Select1stIS5_ESt4lessISsESaIS5_EE12_M_erase_auxESt23_Rb_tree_const_iteratorIS5_ESD_ @4523
    _ZNSt8_Rb_treeISsSt4pairIKSsPN2sf5MusicEESt10_Select1stIS5_ESt4lessISsESaIS5_EE12_M_rightmostEv @4524
    _ZNSt8_Rb_treeISsSt4pairIKSsPN2sf5MusicEESt10_Select1stIS5_ESt4lessISsESaIS5_EE13_Rb_tree_implIS9_Lb0EE13_M_initializeEv @4525
    _ZNSt8_Rb_treeISsSt4pairIKSsPN2sf5MusicEESt10_Select1stIS5_ESt4lessISsESaIS5_EE13_Rb_tree_implIS9_Lb0EEC1Ev @4526
    _ZNSt8_Rb_treeISsSt4pairIKSsPN2sf5MusicEESt10_Select1stIS5_ESt4lessISsESaIS5_EE13_Rb_tree_implIS9_Lb0EED1Ev @4527
    _ZNSt8_Rb_treeISsSt4pairIKSsPN2sf5MusicEESt10_Select1stIS5_ESt4lessISsESaIS5_EE14_M_create_nodeERKS5_ @4528
    _ZNSt8_Rb_treeISsSt4pairIKSsPN2sf5MusicEESt10_Select1stIS5_ESt4lessISsESaIS5_EE14_M_lower_boundEPSt13_Rb_tree_nodeIS5_ESE_RS1_ @4529
    _ZNSt8_Rb_treeISsSt4pairIKSsPN2sf5MusicEESt10_Select1stIS5_ESt4lessISsESaIS5_EE14_M_upper_boundEPSt13_Rb_tree_nodeIS5_ESE_RS1_ @4530
    _ZNSt8_Rb_treeISsSt4pairIKSsPN2sf5MusicEESt10_Select1stIS5_ESt4lessISsESaIS5_EE15_M_destroy_nodeEPSt13_Rb_tree_nodeIS5_E @4531
    _ZNSt8_Rb_treeISsSt4pairIKSsPN2sf5MusicEESt10_Select1stIS5_ESt4lessISsESaIS5_EE16_M_insert_uniqueERKS5_ @4532
    _ZNSt8_Rb_treeISsSt4pairIKSsPN2sf5MusicEESt10_Select1stIS5_ESt4lessISsESaIS5_EE17_M_insert_unique_ESt23_Rb_tree_const_iteratorIS5_ERKS5_ @4533
    _ZNSt8_Rb_treeISsSt4pairIKSsPN2sf5MusicEESt10_Select1stIS5_ESt4lessISsESaIS5_EE3endEv @4534
    _ZNSt8_Rb_treeISsSt4pairIKSsPN2sf5MusicEESt10_Select1stIS5_ESt4lessISsESaIS5_EE5beginEv @4535
    _ZNSt8_Rb_treeISsSt4pairIKSsPN2sf5MusicEESt10_Select1stIS5_ESt4lessISsESaIS5_EE5clearEv @4536
    _ZNSt8_Rb_treeISsSt4pairIKSsPN2sf5MusicEESt10_Select1stIS5_ESt4lessISsESaIS5_EE5eraseERS1_ @4537
    _ZNSt8_Rb_treeISsSt4pairIKSsPN2sf5MusicEESt10_Select1stIS5_ESt4lessISsESaIS5_EE5eraseESt17_Rb_tree_iteratorIS5_ESD_ @4538
    _ZNSt8_Rb_treeISsSt4pairIKSsPN2sf5MusicEESt10_Select1stIS5_ESt4lessISsESaIS5_EE5eraseESt23_Rb_tree_const_iteratorIS5_E @4539
    _ZNSt8_Rb_treeISsSt4pairIKSsPN2sf5MusicEESt10_Select1stIS5_ESt4lessISsESaIS5_EE6_M_endEv @4540
    _ZNSt8_Rb_treeISsSt4pairIKSsPN2sf5MusicEESt10_Select1stIS5_ESt4lessISsESaIS5_EE6_S_keyEPKSt13_Rb_tree_nodeIS5_E @4541
    _ZNSt8_Rb_treeISsSt4pairIKSsPN2sf5MusicEESt10_Select1stIS5_ESt4lessISsESaIS5_EE6_S_keyEPKSt18_Rb_tree_node_base @4542
    _ZNSt8_Rb_treeISsSt4pairIKSsPN2sf5MusicEESt10_Select1stIS5_ESt4lessISsESaIS5_EE7_M_rootEv @4543
    _ZNSt8_Rb_treeISsSt4pairIKSsPN2sf5MusicEESt10_Select1stIS5_ESt4lessISsESaIS5_EE7_S_leftEPKSt18_Rb_tree_node_base @4544
    _ZNSt8_Rb_treeISsSt4pairIKSsPN2sf5MusicEESt10_Select1stIS5_ESt4lessISsESaIS5_EE7_S_leftEPSt18_Rb_tree_node_base @4545
    _ZNSt8_Rb_treeISsSt4pairIKSsPN2sf5MusicEESt10_Select1stIS5_ESt4lessISsESaIS5_EE8_M_beginEv @4546
    _ZNSt8_Rb_treeISsSt4pairIKSsPN2sf5MusicEESt10_Select1stIS5_ESt4lessISsESaIS5_EE8_M_eraseEPSt13_Rb_tree_nodeIS5_E @4547
    _ZNSt8_Rb_treeISsSt4pairIKSsPN2sf5MusicEESt10_Select1stIS5_ESt4lessISsESaIS5_EE8_S_rightEPKSt18_Rb_tree_node_base @4548
    _ZNSt8_Rb_treeISsSt4pairIKSsPN2sf5MusicEESt10_Select1stIS5_ESt4lessISsESaIS5_EE8_S_rightEPSt18_Rb_tree_node_base @4549
    _ZNSt8_Rb_treeISsSt4pairIKSsPN2sf5MusicEESt10_Select1stIS5_ESt4lessISsESaIS5_EE8_S_valueEPKSt13_Rb_tree_nodeIS5_E @4550
    _ZNSt8_Rb_treeISsSt4pairIKSsPN2sf5MusicEESt10_Select1stIS5_ESt4lessISsESaIS5_EE8_S_valueEPKSt18_Rb_tree_node_base @4551
    _ZNSt8_Rb_treeISsSt4pairIKSsPN2sf5MusicEESt10_Select1stIS5_ESt4lessISsESaIS5_EEC1Ev @4552
    _ZNSt8_Rb_treeISsSt4pairIKSsPN2sf5MusicEESt10_Select1stIS5_ESt4lessISsESaIS5_EED1Ev @4553
    _ZNSt8_Rb_treeISsSt4pairIKSsPN2sf5SoundEESt10_Select1stIS5_ESt4lessISsESaIS5_EE10_M_insert_EPKSt18_Rb_tree_node_baseSE_RKS5_ @4554
    _ZNSt8_Rb_treeISsSt4pairIKSsPN2sf5SoundEESt10_Select1stIS5_ESt4lessISsESaIS5_EE11_M_get_nodeEv @4555
    _ZNSt8_Rb_treeISsSt4pairIKSsPN2sf5SoundEESt10_Select1stIS5_ESt4lessISsESaIS5_EE11_M_leftmostEv @4556
    _ZNSt8_Rb_treeISsSt4pairIKSsPN2sf5SoundEESt10_Select1stIS5_ESt4lessISsESaIS5_EE11_M_put_nodeEPSt13_Rb_tree_nodeIS5_E @4557
    _ZNSt8_Rb_treeISsSt4pairIKSsPN2sf5SoundEESt10_Select1stIS5_ESt4lessISsESaIS5_EE11equal_rangeERS1_ @4558
    _ZNSt8_Rb_treeISsSt4pairIKSsPN2sf5SoundEESt10_Select1stIS5_ESt4lessISsESaIS5_EE11lower_boundERS1_ @4559
    _ZNSt8_Rb_treeISsSt4pairIKSsPN2sf5SoundEESt10_Select1stIS5_ESt4lessISsESaIS5_EE12_M_erase_auxESt23_Rb_tree_const_iteratorIS5_E @4560
    _ZNSt8_Rb_treeISsSt4pairIKSsPN2sf5SoundEESt10_Select1stIS5_ESt4lessISsESaIS5_EE12_M_erase_auxESt23_Rb_tree_const_iteratorIS5_ESD_ @4561
    _ZNSt8_Rb_treeISsSt4pairIKSsPN2sf5SoundEESt10_Select1stIS5_ESt4lessISsESaIS5_EE12_M_rightmostEv @4562
    _ZNSt8_Rb_treeISsSt4pairIKSsPN2sf5SoundEESt10_Select1stIS5_ESt4lessISsESaIS5_EE13_Rb_tree_implIS9_Lb0EE13_M_initializeEv @4563
    _ZNSt8_Rb_treeISsSt4pairIKSsPN2sf5SoundEESt10_Select1stIS5_ESt4lessISsESaIS5_EE13_Rb_tree_implIS9_Lb0EEC1Ev @4564
    _ZNSt8_Rb_treeISsSt4pairIKSsPN2sf5SoundEESt10_Select1stIS5_ESt4lessISsESaIS5_EE13_Rb_tree_implIS9_Lb0EED1Ev @4565
    _ZNSt8_Rb_treeISsSt4pairIKSsPN2sf5SoundEESt10_Select1stIS5_ESt4lessISsESaIS5_EE14_M_create_nodeERKS5_ @4566
    _ZNSt8_Rb_treeISsSt4pairIKSsPN2sf5SoundEESt10_Select1stIS5_ESt4lessISsESaIS5_EE14_M_lower_boundEPSt13_Rb_tree_nodeIS5_ESE_RS1_ @4567
    _ZNSt8_Rb_treeISsSt4pairIKSsPN2sf5SoundEESt10_Select1stIS5_ESt4lessISsESaIS5_EE14_M_upper_boundEPSt13_Rb_tree_nodeIS5_ESE_RS1_ @4568
    _ZNSt8_Rb_treeISsSt4pairIKSsPN2sf5SoundEESt10_Select1stIS5_ESt4lessISsESaIS5_EE15_M_destroy_nodeEPSt13_Rb_tree_nodeIS5_E @4569
    _ZNSt8_Rb_treeISsSt4pairIKSsPN2sf5SoundEESt10_Select1stIS5_ESt4lessISsESaIS5_EE16_M_insert_uniqueERKS5_ @4570
    _ZNSt8_Rb_treeISsSt4pairIKSsPN2sf5SoundEESt10_Select1stIS5_ESt4lessISsESaIS5_EE17_M_insert_unique_ESt23_Rb_tree_const_iteratorIS5_ERKS5_ @4571
    _ZNSt8_Rb_treeISsSt4pairIKSsPN2sf5SoundEESt10_Select1stIS5_ESt4lessISsESaIS5_EE3endEv @4572
    _ZNSt8_Rb_treeISsSt4pairIKSsPN2sf5SoundEESt10_Select1stIS5_ESt4lessISsESaIS5_EE5beginEv @4573
    _ZNSt8_Rb_treeISsSt4pairIKSsPN2sf5SoundEESt10_Select1stIS5_ESt4lessISsESaIS5_EE5clearEv @4574
    _ZNSt8_Rb_treeISsSt4pairIKSsPN2sf5SoundEESt10_Select1stIS5_ESt4lessISsESaIS5_EE5eraseERS1_ @4575
    _ZNSt8_Rb_treeISsSt4pairIKSsPN2sf5SoundEESt10_Select1stIS5_ESt4lessISsESaIS5_EE5eraseESt17_Rb_tree_iteratorIS5_ESD_ @4576
    _ZNSt8_Rb_treeISsSt4pairIKSsPN2sf5SoundEESt10_Select1stIS5_ESt4lessISsESaIS5_EE5eraseESt23_Rb_tree_const_iteratorIS5_E @4577
    _ZNSt8_Rb_treeISsSt4pairIKSsPN2sf5SoundEESt10_Select1stIS5_ESt4lessISsESaIS5_EE6_M_endEv @4578
    _ZNSt8_Rb_treeISsSt4pairIKSsPN2sf5SoundEESt10_Select1stIS5_ESt4lessISsESaIS5_EE6_S_keyEPKSt13_Rb_tree_nodeIS5_E @4579
    _ZNSt8_Rb_treeISsSt4pairIKSsPN2sf5SoundEESt10_Select1stIS5_ESt4lessISsESaIS5_EE6_S_keyEPKSt18_Rb_tree_node_base @4580
    _ZNSt8_Rb_treeISsSt4pairIKSsPN2sf5SoundEESt10_Select1stIS5_ESt4lessISsESaIS5_EE7_M_rootEv @4581
    _ZNSt8_Rb_treeISsSt4pairIKSsPN2sf5SoundEESt10_Select1stIS5_ESt4lessISsESaIS5_EE7_S_leftEPKSt18_Rb_tree_node_base @4582
    _ZNSt8_Rb_treeISsSt4pairIKSsPN2sf5SoundEESt10_Select1stIS5_ESt4lessISsESaIS5_EE7_S_leftEPSt18_Rb_tree_node_base @4583
    _ZNSt8_Rb_treeISsSt4pairIKSsPN2sf5SoundEESt10_Select1stIS5_ESt4lessISsESaIS5_EE8_M_beginEv @4584
    _ZNSt8_Rb_treeISsSt4pairIKSsPN2sf5SoundEESt10_Select1stIS5_ESt4lessISsESaIS5_EE8_M_eraseEPSt13_Rb_tree_nodeIS5_E @4585
    _ZNSt8_Rb_treeISsSt4pairIKSsPN2sf5SoundEESt10_Select1stIS5_ESt4lessISsESaIS5_EE8_S_rightEPKSt18_Rb_tree_node_base @4586
    _ZNSt8_Rb_treeISsSt4pairIKSsPN2sf5SoundEESt10_Select1stIS5_ESt4lessISsESaIS5_EE8_S_rightEPSt18_Rb_tree_node_base @4587
    _ZNSt8_Rb_treeISsSt4pairIKSsPN2sf5SoundEESt10_Select1stIS5_ESt4lessISsESaIS5_EE8_S_valueEPKSt13_Rb_tree_nodeIS5_E @4588
    _ZNSt8_Rb_treeISsSt4pairIKSsPN2sf5SoundEESt10_Select1stIS5_ESt4lessISsESaIS5_EE8_S_valueEPKSt18_Rb_tree_node_base @4589
    _ZNSt8_Rb_treeISsSt4pairIKSsPN2sf5SoundEESt10_Select1stIS5_ESt4lessISsESaIS5_EEC1Ev @4590
    _ZNSt8_Rb_treeISsSt4pairIKSsPN2sf5SoundEESt10_Select1stIS5_ESt4lessISsESaIS5_EED1Ev @4591
    _ZNSt8_Rb_treeISsSt4pairIKSsPN2sf6ShaderEESt10_Select1stIS5_ESt4lessISsESaIS5_EE10_M_insert_EPKSt18_Rb_tree_node_baseSE_RKS5_ @4592
    _ZNSt8_Rb_treeISsSt4pairIKSsPN2sf6ShaderEESt10_Select1stIS5_ESt4lessISsESaIS5_EE11_M_get_nodeEv @4593
    _ZNSt8_Rb_treeISsSt4pairIKSsPN2sf6ShaderEESt10_Select1stIS5_ESt4lessISsESaIS5_EE11_M_leftmostEv @4594
    _ZNSt8_Rb_treeISsSt4pairIKSsPN2sf6ShaderEESt10_Select1stIS5_ESt4lessISsESaIS5_EE11_M_put_nodeEPSt13_Rb_tree_nodeIS5_E @4595
    _ZNSt8_Rb_treeISsSt4pairIKSsPN2sf6ShaderEESt10_Select1stIS5_ESt4lessISsESaIS5_EE11equal_rangeERS1_ @4596
    _ZNSt8_Rb_treeISsSt4pairIKSsPN2sf6ShaderEESt10_Select1stIS5_ESt4lessISsESaIS5_EE11lower_boundERS1_ @4597
    _ZNSt8_Rb_treeISsSt4pairIKSsPN2sf6ShaderEESt10_Select1stIS5_ESt4lessISsESaIS5_EE12_M_erase_auxESt23_Rb_tree_const_iteratorIS5_E @4598
    _ZNSt8_Rb_treeISsSt4pairIKSsPN2sf6ShaderEESt10_Select1stIS5_ESt4lessISsESaIS5_EE12_M_erase_auxESt23_Rb_tree_const_iteratorIS5_ESD_ @4599
    _ZNSt8_Rb_treeISsSt4pairIKSsPN2sf6ShaderEESt10_Select1stIS5_ESt4lessISsESaIS5_EE12_M_rightmostEv @4600
    _ZNSt8_Rb_treeISsSt4pairIKSsPN2sf6ShaderEESt10_Select1stIS5_ESt4lessISsESaIS5_EE13_Rb_tree_implIS9_Lb0EE13_M_initializeEv @4601
    _ZNSt8_Rb_treeISsSt4pairIKSsPN2sf6ShaderEESt10_Select1stIS5_ESt4lessISsESaIS5_EE13_Rb_tree_implIS9_Lb0EEC1Ev @4602
    _ZNSt8_Rb_treeISsSt4pairIKSsPN2sf6ShaderEESt10_Select1stIS5_ESt4lessISsESaIS5_EE13_Rb_tree_implIS9_Lb0EED1Ev @4603
    _ZNSt8_Rb_treeISsSt4pairIKSsPN2sf6ShaderEESt10_Select1stIS5_ESt4lessISsESaIS5_EE14_M_create_nodeERKS5_ @4604
    _ZNSt8_Rb_treeISsSt4pairIKSsPN2sf6ShaderEESt10_Select1stIS5_ESt4lessISsESaIS5_EE14_M_lower_boundEPSt13_Rb_tree_nodeIS5_ESE_RS1_ @4605
    _ZNSt8_Rb_treeISsSt4pairIKSsPN2sf6ShaderEESt10_Select1stIS5_ESt4lessISsESaIS5_EE14_M_upper_boundEPSt13_Rb_tree_nodeIS5_ESE_RS1_ @4606
    _ZNSt8_Rb_treeISsSt4pairIKSsPN2sf6ShaderEESt10_Select1stIS5_ESt4lessISsESaIS5_EE15_M_destroy_nodeEPSt13_Rb_tree_nodeIS5_E @4607
    _ZNSt8_Rb_treeISsSt4pairIKSsPN2sf6ShaderEESt10_Select1stIS5_ESt4lessISsESaIS5_EE16_M_insert_uniqueERKS5_ @4608
    _ZNSt8_Rb_treeISsSt4pairIKSsPN2sf6ShaderEESt10_Select1stIS5_ESt4lessISsESaIS5_EE17_M_insert_unique_ESt23_Rb_tree_const_iteratorIS5_ERKS5_ @4609
    _ZNSt8_Rb_treeISsSt4pairIKSsPN2sf6ShaderEESt10_Select1stIS5_ESt4lessISsESaIS5_EE3endEv @4610
    _ZNSt8_Rb_treeISsSt4pairIKSsPN2sf6ShaderEESt10_Select1stIS5_ESt4lessISsESaIS5_EE5beginEv @4611
    _ZNSt8_Rb_treeISsSt4pairIKSsPN2sf6ShaderEESt10_Select1stIS5_ESt4lessISsESaIS5_EE5clearEv @4612
    _ZNSt8_Rb_treeISsSt4pairIKSsPN2sf6ShaderEESt10_Select1stIS5_ESt4lessISsESaIS5_EE5eraseERS1_ @4613
    _ZNSt8_Rb_treeISsSt4pairIKSsPN2sf6ShaderEESt10_Select1stIS5_ESt4lessISsESaIS5_EE5eraseESt17_Rb_tree_iteratorIS5_ESD_ @4614
    _ZNSt8_Rb_treeISsSt4pairIKSsPN2sf6ShaderEESt10_Select1stIS5_ESt4lessISsESaIS5_EE5eraseESt23_Rb_tree_const_iteratorIS5_E @4615
    _ZNSt8_Rb_treeISsSt4pairIKSsPN2sf6ShaderEESt10_Select1stIS5_ESt4lessISsESaIS5_EE6_M_endEv @4616
    _ZNSt8_Rb_treeISsSt4pairIKSsPN2sf6ShaderEESt10_Select1stIS5_ESt4lessISsESaIS5_EE6_S_keyEPKSt13_Rb_tree_nodeIS5_E @4617
    _ZNSt8_Rb_treeISsSt4pairIKSsPN2sf6ShaderEESt10_Select1stIS5_ESt4lessISsESaIS5_EE6_S_keyEPKSt18_Rb_tree_node_base @4618
    _ZNSt8_Rb_treeISsSt4pairIKSsPN2sf6ShaderEESt10_Select1stIS5_ESt4lessISsESaIS5_EE7_M_rootEv @4619
    _ZNSt8_Rb_treeISsSt4pairIKSsPN2sf6ShaderEESt10_Select1stIS5_ESt4lessISsESaIS5_EE7_S_leftEPKSt18_Rb_tree_node_base @4620
    _ZNSt8_Rb_treeISsSt4pairIKSsPN2sf6ShaderEESt10_Select1stIS5_ESt4lessISsESaIS5_EE7_S_leftEPSt18_Rb_tree_node_base @4621
    _ZNSt8_Rb_treeISsSt4pairIKSsPN2sf6ShaderEESt10_Select1stIS5_ESt4lessISsESaIS5_EE8_M_beginEv @4622
    _ZNSt8_Rb_treeISsSt4pairIKSsPN2sf6ShaderEESt10_Select1stIS5_ESt4lessISsESaIS5_EE8_M_eraseEPSt13_Rb_tree_nodeIS5_E @4623
    _ZNSt8_Rb_treeISsSt4pairIKSsPN2sf6ShaderEESt10_Select1stIS5_ESt4lessISsESaIS5_EE8_S_rightEPKSt18_Rb_tree_node_base @4624
    _ZNSt8_Rb_treeISsSt4pairIKSsPN2sf6ShaderEESt10_Select1stIS5_ESt4lessISsESaIS5_EE8_S_rightEPSt18_Rb_tree_node_base @4625
    _ZNSt8_Rb_treeISsSt4pairIKSsPN2sf6ShaderEESt10_Select1stIS5_ESt4lessISsESaIS5_EE8_S_valueEPKSt13_Rb_tree_nodeIS5_E @4626
    _ZNSt8_Rb_treeISsSt4pairIKSsPN2sf6ShaderEESt10_Select1stIS5_ESt4lessISsESaIS5_EE8_S_valueEPKSt18_Rb_tree_node_base @4627
    _ZNSt8_Rb_treeISsSt4pairIKSsPN2sf6ShaderEESt10_Select1stIS5_ESt4lessISsESaIS5_EEC1Ev @4628
    _ZNSt8_Rb_treeISsSt4pairIKSsPN2sf6ShaderEESt10_Select1stIS5_ESt4lessISsESaIS5_EED1Ev @4629
    _ZNSt8_Rb_treeISsSt4pairIKSsPN2sf7TextureEESt10_Select1stIS5_ESt4lessISsESaIS5_EE10_M_insert_EPKSt18_Rb_tree_node_baseSE_RKS5_ @4630
    _ZNSt8_Rb_treeISsSt4pairIKSsPN2sf7TextureEESt10_Select1stIS5_ESt4lessISsESaIS5_EE11_M_get_nodeEv @4631
    _ZNSt8_Rb_treeISsSt4pairIKSsPN2sf7TextureEESt10_Select1stIS5_ESt4lessISsESaIS5_EE11_M_leftmostEv @4632
    _ZNSt8_Rb_treeISsSt4pairIKSsPN2sf7TextureEESt10_Select1stIS5_ESt4lessISsESaIS5_EE11_M_put_nodeEPSt13_Rb_tree_nodeIS5_E @4633
    _ZNSt8_Rb_treeISsSt4pairIKSsPN2sf7TextureEESt10_Select1stIS5_ESt4lessISsESaIS5_EE11equal_rangeERS1_ @4634
    _ZNSt8_Rb_treeISsSt4pairIKSsPN2sf7TextureEESt10_Select1stIS5_ESt4lessISsESaIS5_EE11lower_boundERS1_ @4635
    _ZNSt8_Rb_treeISsSt4pairIKSsPN2sf7TextureEESt10_Select1stIS5_ESt4lessISsESaIS5_EE12_M_erase_auxESt23_Rb_tree_const_iteratorIS5_E @4636
    _ZNSt8_Rb_treeISsSt4pairIKSsPN2sf7TextureEESt10_Select1stIS5_ESt4lessISsESaIS5_EE12_M_erase_auxESt23_Rb_tree_const_iteratorIS5_ESD_ @4637
    _ZNSt8_Rb_treeISsSt4pairIKSsPN2sf7TextureEESt10_Select1stIS5_ESt4lessISsESaIS5_EE12_M_rightmostEv @4638
    _ZNSt8_Rb_treeISsSt4pairIKSsPN2sf7TextureEESt10_Select1stIS5_ESt4lessISsESaIS5_EE13_Rb_tree_implIS9_Lb0EE13_M_initializeEv @4639
    _ZNSt8_Rb_treeISsSt4pairIKSsPN2sf7TextureEESt10_Select1stIS5_ESt4lessISsESaIS5_EE13_Rb_tree_implIS9_Lb0EEC1Ev @4640
    _ZNSt8_Rb_treeISsSt4pairIKSsPN2sf7TextureEESt10_Select1stIS5_ESt4lessISsESaIS5_EE13_Rb_tree_implIS9_Lb0EED1Ev @4641
    _ZNSt8_Rb_treeISsSt4pairIKSsPN2sf7TextureEESt10_Select1stIS5_ESt4lessISsESaIS5_EE14_M_create_nodeERKS5_ @4642
    _ZNSt8_Rb_treeISsSt4pairIKSsPN2sf7TextureEESt10_Select1stIS5_ESt4lessISsESaIS5_EE14_M_lower_boundEPSt13_Rb_tree_nodeIS5_ESE_RS1_ @4643
    _ZNSt8_Rb_treeISsSt4pairIKSsPN2sf7TextureEESt10_Select1stIS5_ESt4lessISsESaIS5_EE14_M_upper_boundEPSt13_Rb_tree_nodeIS5_ESE_RS1_ @4644
    _ZNSt8_Rb_treeISsSt4pairIKSsPN2sf7TextureEESt10_Select1stIS5_ESt4lessISsESaIS5_EE15_M_destroy_nodeEPSt13_Rb_tree_nodeIS5_E @4645
    _ZNSt8_Rb_treeISsSt4pairIKSsPN2sf7TextureEESt10_Select1stIS5_ESt4lessISsESaIS5_EE16_M_insert_uniqueERKS5_ @4646
    _ZNSt8_Rb_treeISsSt4pairIKSsPN2sf7TextureEESt10_Select1stIS5_ESt4lessISsESaIS5_EE17_M_insert_unique_ESt23_Rb_tree_const_iteratorIS5_ERKS5_ @4647
    _ZNSt8_Rb_treeISsSt4pairIKSsPN2sf7TextureEESt10_Select1stIS5_ESt4lessISsESaIS5_EE3endEv @4648
    _ZNSt8_Rb_treeISsSt4pairIKSsPN2sf7TextureEESt10_Select1stIS5_ESt4lessISsESaIS5_EE5beginEv @4649
    _ZNSt8_Rb_treeISsSt4pairIKSsPN2sf7TextureEESt10_Select1stIS5_ESt4lessISsESaIS5_EE5clearEv @4650
    _ZNSt8_Rb_treeISsSt4pairIKSsPN2sf7TextureEESt10_Select1stIS5_ESt4lessISsESaIS5_EE5eraseERS1_ @4651
    _ZNSt8_Rb_treeISsSt4pairIKSsPN2sf7TextureEESt10_Select1stIS5_ESt4lessISsESaIS5_EE5eraseESt17_Rb_tree_iteratorIS5_ESD_ @4652
    _ZNSt8_Rb_treeISsSt4pairIKSsPN2sf7TextureEESt10_Select1stIS5_ESt4lessISsESaIS5_EE5eraseESt23_Rb_tree_const_iteratorIS5_E @4653
    _ZNSt8_Rb_treeISsSt4pairIKSsPN2sf7TextureEESt10_Select1stIS5_ESt4lessISsESaIS5_EE6_M_endEv @4654
    _ZNSt8_Rb_treeISsSt4pairIKSsPN2sf7TextureEESt10_Select1stIS5_ESt4lessISsESaIS5_EE6_S_keyEPKSt13_Rb_tree_nodeIS5_E @4655
    _ZNSt8_Rb_treeISsSt4pairIKSsPN2sf7TextureEESt10_Select1stIS5_ESt4lessISsESaIS5_EE6_S_keyEPKSt18_Rb_tree_node_base @4656
    _ZNSt8_Rb_treeISsSt4pairIKSsPN2sf7TextureEESt10_Select1stIS5_ESt4lessISsESaIS5_EE7_M_rootEv @4657
    _ZNSt8_Rb_treeISsSt4pairIKSsPN2sf7TextureEESt10_Select1stIS5_ESt4lessISsESaIS5_EE7_S_leftEPKSt18_Rb_tree_node_base @4658
    _ZNSt8_Rb_treeISsSt4pairIKSsPN2sf7TextureEESt10_Select1stIS5_ESt4lessISsESaIS5_EE7_S_leftEPSt18_Rb_tree_node_base @4659
    _ZNSt8_Rb_treeISsSt4pairIKSsPN2sf7TextureEESt10_Select1stIS5_ESt4lessISsESaIS5_EE8_M_beginEv @4660
    _ZNSt8_Rb_treeISsSt4pairIKSsPN2sf7TextureEESt10_Select1stIS5_ESt4lessISsESaIS5_EE8_M_eraseEPSt13_Rb_tree_nodeIS5_E @4661
    _ZNSt8_Rb_treeISsSt4pairIKSsPN2sf7TextureEESt10_Select1stIS5_ESt4lessISsESaIS5_EE8_S_rightEPKSt18_Rb_tree_node_base @4662
    _ZNSt8_Rb_treeISsSt4pairIKSsPN2sf7TextureEESt10_Select1stIS5_ESt4lessISsESaIS5_EE8_S_rightEPSt18_Rb_tree_node_base @4663
    _ZNSt8_Rb_treeISsSt4pairIKSsPN2sf7TextureEESt10_Select1stIS5_ESt4lessISsESaIS5_EE8_S_valueEPKSt13_Rb_tree_nodeIS5_E @4664
    _ZNSt8_Rb_treeISsSt4pairIKSsPN2sf7TextureEESt10_Select1stIS5_ESt4lessISsESaIS5_EE8_S_valueEPKSt18_Rb_tree_node_base @4665
    _ZNSt8_Rb_treeISsSt4pairIKSsPN2sf7TextureEESt10_Select1stIS5_ESt4lessISsESaIS5_EEC1Ev @4666
    _ZNSt8_Rb_treeISsSt4pairIKSsPN2sf7TextureEESt10_Select1stIS5_ESt4lessISsESaIS5_EED1Ev @4667
    _ZNSt8_Rb_treeISsSt4pairIKSsPN9Ptakopysk10Serialized17ICustomSerializerEESt10_Select1stIS6_ESt4lessISsESaIS6_EE10_M_insert_EPKSt18_Rb_tree_node_baseSF_RKS6_ @4668
    _ZNSt8_Rb_treeISsSt4pairIKSsPN9Ptakopysk10Serialized17ICustomSerializerEESt10_Select1stIS6_ESt4lessISsESaIS6_EE11_M_get_nodeEv @4669
    _ZNSt8_Rb_treeISsSt4pairIKSsPN9Ptakopysk10Serialized17ICustomSerializerEESt10_Select1stIS6_ESt4lessISsESaIS6_EE11_M_leftmostEv @4670
    _ZNSt8_Rb_treeISsSt4pairIKSsPN9Ptakopysk10Serialized17ICustomSerializerEESt10_Select1stIS6_ESt4lessISsESaIS6_EE11_M_put_nodeEPSt13_Rb_tree_nodeIS6_E @4671
    _ZNSt8_Rb_treeISsSt4pairIKSsPN9Ptakopysk10Serialized17ICustomSerializerEESt10_Select1stIS6_ESt4lessISsESaIS6_EE11equal_rangeERS1_ @4672
    _ZNSt8_Rb_treeISsSt4pairIKSsPN9Ptakopysk10Serialized17ICustomSerializerEESt10_Select1stIS6_ESt4lessISsESaIS6_EE11lower_boundERS1_ @4673
    _ZNSt8_Rb_treeISsSt4pairIKSsPN9Ptakopysk10Serialized17ICustomSerializerEESt10_Select1stIS6_ESt4lessISsESaIS6_EE12_M_erase_auxESt23_Rb_tree_const_iteratorIS6_E @4674
    _ZNSt8_Rb_treeISsSt4pairIKSsPN9Ptakopysk10Serialized17ICustomSerializerEESt10_Select1stIS6_ESt4lessISsESaIS6_EE12_M_erase_auxESt23_Rb_tree_const_iteratorIS6_ESE_ @4675
    _ZNSt8_Rb_treeISsSt4pairIKSsPN9Ptakopysk10Serialized17ICustomSerializerEESt10_Select1stIS6_ESt4lessISsESaIS6_EE12_M_rightmostEv @4676
    _ZNSt8_Rb_treeISsSt4pairIKSsPN9Ptakopysk10Serialized17ICustomSerializerEESt10_Select1stIS6_ESt4lessISsESaIS6_EE13_Rb_tree_implISA_Lb0EE13_M_initializeEv @4677
    _ZNSt8_Rb_treeISsSt4pairIKSsPN9Ptakopysk10Serialized17ICustomSerializerEESt10_Select1stIS6_ESt4lessISsESaIS6_EE13_Rb_tree_implISA_Lb0EEC1Ev @4678
    _ZNSt8_Rb_treeISsSt4pairIKSsPN9Ptakopysk10Serialized17ICustomSerializerEESt10_Select1stIS6_ESt4lessISsESaIS6_EE13_Rb_tree_implISA_Lb0EED1Ev @4679
    _ZNSt8_Rb_treeISsSt4pairIKSsPN9Ptakopysk10Serialized17ICustomSerializerEESt10_Select1stIS6_ESt4lessISsESaIS6_EE14_M_create_nodeERKS6_ @4680
    _ZNSt8_Rb_treeISsSt4pairIKSsPN9Ptakopysk10Serialized17ICustomSerializerEESt10_Select1stIS6_ESt4lessISsESaIS6_EE14_M_lower_boundEPSt13_Rb_tree_nodeIS6_ESF_RS1_ @4681
    _ZNSt8_Rb_treeISsSt4pairIKSsPN9Ptakopysk10Serialized17ICustomSerializerEESt10_Select1stIS6_ESt4lessISsESaIS6_EE14_M_upper_boundEPSt13_Rb_tree_nodeIS6_ESF_RS1_ @4682
    _ZNSt8_Rb_treeISsSt4pairIKSsPN9Ptakopysk10Serialized17ICustomSerializerEESt10_Select1stIS6_ESt4lessISsESaIS6_EE15_M_destroy_nodeEPSt13_Rb_tree_nodeIS6_E @4683
    _ZNSt8_Rb_treeISsSt4pairIKSsPN9Ptakopysk10Serialized17ICustomSerializerEESt10_Select1stIS6_ESt4lessISsESaIS6_EE16_M_insert_uniqueERKS6_ @4684
    _ZNSt8_Rb_treeISsSt4pairIKSsPN9Ptakopysk10Serialized17ICustomSerializerEESt10_Select1stIS6_ESt4lessISsESaIS6_EE17_M_insert_unique_ESt23_Rb_tree_const_iteratorIS6_ERKS6_ @4685
    _ZNSt8_Rb_treeISsSt4pairIKSsPN9Ptakopysk10Serialized17ICustomSerializerEESt10_Select1stIS6_ESt4lessISsESaIS6_EE3endEv @4686
    _ZNSt8_Rb_treeISsSt4pairIKSsPN9Ptakopysk10Serialized17ICustomSerializerEESt10_Select1stIS6_ESt4lessISsESaIS6_EE5beginEv @4687
    _ZNSt8_Rb_treeISsSt4pairIKSsPN9Ptakopysk10Serialized17ICustomSerializerEESt10_Select1stIS6_ESt4lessISsESaIS6_EE5clearEv @4688
    _ZNSt8_Rb_treeISsSt4pairIKSsPN9Ptakopysk10Serialized17ICustomSerializerEESt10_Select1stIS6_ESt4lessISsESaIS6_EE5eraseERS1_ @4689
    _ZNSt8_Rb_treeISsSt4pairIKSsPN9Ptakopysk10Serialized17ICustomSerializerEESt10_Select1stIS6_ESt4lessISsESaIS6_EE5eraseESt17_Rb_tree_iteratorIS6_E @4690
    _ZNSt8_Rb_treeISsSt4pairIKSsPN9Ptakopysk10Serialized17ICustomSerializerEESt10_Select1stIS6_ESt4lessISsESaIS6_EE5eraseESt17_Rb_tree_iteratorIS6_ESE_ @4691
    _ZNSt8_Rb_treeISsSt4pairIKSsPN9Ptakopysk10Serialized17ICustomSerializerEESt10_Select1stIS6_ESt4lessISsESaIS6_EE5eraseESt23_Rb_tree_const_iteratorIS6_E @4692
    _ZNSt8_Rb_treeISsSt4pairIKSsPN9Ptakopysk10Serialized17ICustomSerializerEESt10_Select1stIS6_ESt4lessISsESaIS6_EE6_M_endEv @4693
    _ZNSt8_Rb_treeISsSt4pairIKSsPN9Ptakopysk10Serialized17ICustomSerializerEESt10_Select1stIS6_ESt4lessISsESaIS6_EE6_S_keyEPKSt13_Rb_tree_nodeIS6_E @4694
    _ZNSt8_Rb_treeISsSt4pairIKSsPN9Ptakopysk10Serialized17ICustomSerializerEESt10_Select1stIS6_ESt4lessISsESaIS6_EE6_S_keyEPKSt18_Rb_tree_node_base @4695
    _ZNSt8_Rb_treeISsSt4pairIKSsPN9Ptakopysk10Serialized17ICustomSerializerEESt10_Select1stIS6_ESt4lessISsESaIS6_EE7_M_rootEv @4696
    _ZNSt8_Rb_treeISsSt4pairIKSsPN9Ptakopysk10Serialized17ICustomSerializerEESt10_Select1stIS6_ESt4lessISsESaIS6_EE7_S_leftEPKSt18_Rb_tree_node_base @4697
    _ZNSt8_Rb_treeISsSt4pairIKSsPN9Ptakopysk10Serialized17ICustomSerializerEESt10_Select1stIS6_ESt4lessISsESaIS6_EE7_S_leftEPSt18_Rb_tree_node_base @4698
    _ZNSt8_Rb_treeISsSt4pairIKSsPN9Ptakopysk10Serialized17ICustomSerializerEESt10_Select1stIS6_ESt4lessISsESaIS6_EE8_M_beginEv @4699
    _ZNSt8_Rb_treeISsSt4pairIKSsPN9Ptakopysk10Serialized17ICustomSerializerEESt10_Select1stIS6_ESt4lessISsESaIS6_EE8_M_eraseEPSt13_Rb_tree_nodeIS6_E @4700
    _ZNSt8_Rb_treeISsSt4pairIKSsPN9Ptakopysk10Serialized17ICustomSerializerEESt10_Select1stIS6_ESt4lessISsESaIS6_EE8_S_rightEPKSt18_Rb_tree_node_base @4701
    _ZNSt8_Rb_treeISsSt4pairIKSsPN9Ptakopysk10Serialized17ICustomSerializerEESt10_Select1stIS6_ESt4lessISsESaIS6_EE8_S_rightEPSt18_Rb_tree_node_base @4702
    _ZNSt8_Rb_treeISsSt4pairIKSsPN9Ptakopysk10Serialized17ICustomSerializerEESt10_Select1stIS6_ESt4lessISsESaIS6_EE8_S_valueEPKSt13_Rb_tree_nodeIS6_E @4703
    _ZNSt8_Rb_treeISsSt4pairIKSsPN9Ptakopysk10Serialized17ICustomSerializerEESt10_Select1stIS6_ESt4lessISsESaIS6_EE8_S_valueEPKSt18_Rb_tree_node_base @4704
    _ZNSt8_Rb_treeISsSt4pairIKSsPN9Ptakopysk10Serialized17ICustomSerializerEESt10_Select1stIS6_ESt4lessISsESaIS6_EEC1Ev @4705
    _ZNSt8_Rb_treeISsSt4pairIKSsPN9Ptakopysk10Serialized17ICustomSerializerEESt10_Select1stIS6_ESt4lessISsESaIS6_EED1Ev @4706
    _ZNSt8_Rb_treeISsSt4pairIKSsSsESt10_Select1stIS2_ESt4lessISsESaIS2_EE10_M_insert_EPKSt18_Rb_tree_node_baseSB_RKS2_ @4707
    _ZNSt8_Rb_treeISsSt4pairIKSsSsESt10_Select1stIS2_ESt4lessISsESaIS2_EE11_M_get_nodeEv @4708
    _ZNSt8_Rb_treeISsSt4pairIKSsSsESt10_Select1stIS2_ESt4lessISsESaIS2_EE11_M_leftmostEv @4709
    _ZNSt8_Rb_treeISsSt4pairIKSsSsESt10_Select1stIS2_ESt4lessISsESaIS2_EE11_M_put_nodeEPSt13_Rb_tree_nodeIS2_E @4710
    _ZNSt8_Rb_treeISsSt4pairIKSsSsESt10_Select1stIS2_ESt4lessISsESaIS2_EE11equal_rangeERS1_ @4711
    _ZNSt8_Rb_treeISsSt4pairIKSsSsESt10_Select1stIS2_ESt4lessISsESaIS2_EE11lower_boundERS1_ @4712
    _ZNSt8_Rb_treeISsSt4pairIKSsSsESt10_Select1stIS2_ESt4lessISsESaIS2_EE12_M_erase_auxESt23_Rb_tree_const_iteratorIS2_E @4713
    _ZNSt8_Rb_treeISsSt4pairIKSsSsESt10_Select1stIS2_ESt4lessISsESaIS2_EE12_M_erase_auxESt23_Rb_tree_const_iteratorIS2_ESA_ @4714
    _ZNSt8_Rb_treeISsSt4pairIKSsSsESt10_Select1stIS2_ESt4lessISsESaIS2_EE12_M_rightmostEv @4715
    _ZNSt8_Rb_treeISsSt4pairIKSsSsESt10_Select1stIS2_ESt4lessISsESaIS2_EE13_Rb_tree_implIS6_Lb0EE13_M_initializeEv @4716
    _ZNSt8_Rb_treeISsSt4pairIKSsSsESt10_Select1stIS2_ESt4lessISsESaIS2_EE13_Rb_tree_implIS6_Lb0EEC1Ev @4717
    _ZNSt8_Rb_treeISsSt4pairIKSsSsESt10_Select1stIS2_ESt4lessISsESaIS2_EE13_Rb_tree_implIS6_Lb0EED1Ev @4718
    _ZNSt8_Rb_treeISsSt4pairIKSsSsESt10_Select1stIS2_ESt4lessISsESaIS2_EE14_M_create_nodeERKS2_ @4719
    _ZNSt8_Rb_treeISsSt4pairIKSsSsESt10_Select1stIS2_ESt4lessISsESaIS2_EE14_M_lower_boundEPSt13_Rb_tree_nodeIS2_ESB_RS1_ @4720
    _ZNSt8_Rb_treeISsSt4pairIKSsSsESt10_Select1stIS2_ESt4lessISsESaIS2_EE14_M_upper_boundEPSt13_Rb_tree_nodeIS2_ESB_RS1_ @4721
    _ZNSt8_Rb_treeISsSt4pairIKSsSsESt10_Select1stIS2_ESt4lessISsESaIS2_EE15_M_destroy_nodeEPSt13_Rb_tree_nodeIS2_E @4722
    _ZNSt8_Rb_treeISsSt4pairIKSsSsESt10_Select1stIS2_ESt4lessISsESaIS2_EE16_M_insert_uniqueERKS2_ @4723
    _ZNSt8_Rb_treeISsSt4pairIKSsSsESt10_Select1stIS2_ESt4lessISsESaIS2_EE17_M_insert_unique_ESt23_Rb_tree_const_iteratorIS2_ERKS2_ @4724
    _ZNSt8_Rb_treeISsSt4pairIKSsSsESt10_Select1stIS2_ESt4lessISsESaIS2_EE3endEv @4725
    _ZNSt8_Rb_treeISsSt4pairIKSsSsESt10_Select1stIS2_ESt4lessISsESaIS2_EE5beginEv @4726
    _ZNSt8_Rb_treeISsSt4pairIKSsSsESt10_Select1stIS2_ESt4lessISsESaIS2_EE5clearEv @4727
    _ZNSt8_Rb_treeISsSt4pairIKSsSsESt10_Select1stIS2_ESt4lessISsESaIS2_EE5eraseERS1_ @4728
    _ZNSt8_Rb_treeISsSt4pairIKSsSsESt10_Select1stIS2_ESt4lessISsESaIS2_EE5eraseESt17_Rb_tree_iteratorIS2_ESA_ @4729
    _ZNSt8_Rb_treeISsSt4pairIKSsSsESt10_Select1stIS2_ESt4lessISsESaIS2_EE5eraseESt23_Rb_tree_const_iteratorIS2_E @4730
    _ZNSt8_Rb_treeISsSt4pairIKSsSsESt10_Select1stIS2_ESt4lessISsESaIS2_EE6_M_endEv @4731
    _ZNSt8_Rb_treeISsSt4pairIKSsSsESt10_Select1stIS2_ESt4lessISsESaIS2_EE6_S_keyEPKSt13_Rb_tree_nodeIS2_E @4732
    _ZNSt8_Rb_treeISsSt4pairIKSsSsESt10_Select1stIS2_ESt4lessISsESaIS2_EE6_S_keyEPKSt18_Rb_tree_node_base @4733
    _ZNSt8_Rb_treeISsSt4pairIKSsSsESt10_Select1stIS2_ESt4lessISsESaIS2_EE7_M_rootEv @4734
    _ZNSt8_Rb_treeISsSt4pairIKSsSsESt10_Select1stIS2_ESt4lessISsESaIS2_EE7_S_leftEPKSt18_Rb_tree_node_base @4735
    _ZNSt8_Rb_treeISsSt4pairIKSsSsESt10_Select1stIS2_ESt4lessISsESaIS2_EE7_S_leftEPSt18_Rb_tree_node_base @4736
    _ZNSt8_Rb_treeISsSt4pairIKSsSsESt10_Select1stIS2_ESt4lessISsESaIS2_EE8_M_beginEv @4737
    _ZNSt8_Rb_treeISsSt4pairIKSsSsESt10_Select1stIS2_ESt4lessISsESaIS2_EE8_M_eraseEPSt13_Rb_tree_nodeIS2_E @4738
    _ZNSt8_Rb_treeISsSt4pairIKSsSsESt10_Select1stIS2_ESt4lessISsESaIS2_EE8_S_rightEPKSt18_Rb_tree_node_base @4739
    _ZNSt8_Rb_treeISsSt4pairIKSsSsESt10_Select1stIS2_ESt4lessISsESaIS2_EE8_S_rightEPSt18_Rb_tree_node_base @4740
    _ZNSt8_Rb_treeISsSt4pairIKSsSsESt10_Select1stIS2_ESt4lessISsESaIS2_EE8_S_valueEPKSt13_Rb_tree_nodeIS2_E @4741
    _ZNSt8_Rb_treeISsSt4pairIKSsSsESt10_Select1stIS2_ESt4lessISsESaIS2_EE8_S_valueEPKSt18_Rb_tree_node_base @4742
    _ZNSt8_Rb_treeISsSt4pairIKSsSsESt10_Select1stIS2_ESt4lessISsESaIS2_EEC1Ev @4743
    _ZNSt8_Rb_treeISsSt4pairIKSsSsESt10_Select1stIS2_ESt4lessISsESaIS2_EED1Ev @4744
    _ZNSt8_Rb_treeISsSt4pairIKSsiESt10_Select1stIS2_ESt4lessISsESaIS2_EE10_M_insert_EPKSt18_Rb_tree_node_baseSB_RKS2_ @4745
    _ZNSt8_Rb_treeISsSt4pairIKSsiESt10_Select1stIS2_ESt4lessISsESaIS2_EE10_S_maximumEPSt18_Rb_tree_node_base @4746
    _ZNSt8_Rb_treeISsSt4pairIKSsiESt10_Select1stIS2_ESt4lessISsESaIS2_EE10_S_minimumEPSt18_Rb_tree_node_base @4747
    _ZNSt8_Rb_treeISsSt4pairIKSsiESt10_Select1stIS2_ESt4lessISsESaIS2_EE11_M_get_nodeEv @4748
    _ZNSt8_Rb_treeISsSt4pairIKSsiESt10_Select1stIS2_ESt4lessISsESaIS2_EE11_M_leftmostEv @4749
    _ZNSt8_Rb_treeISsSt4pairIKSsiESt10_Select1stIS2_ESt4lessISsESaIS2_EE11_M_put_nodeEPSt13_Rb_tree_nodeIS2_E @4750
    _ZNSt8_Rb_treeISsSt4pairIKSsiESt10_Select1stIS2_ESt4lessISsESaIS2_EE11lower_boundERS1_ @4751
    _ZNSt8_Rb_treeISsSt4pairIKSsiESt10_Select1stIS2_ESt4lessISsESaIS2_EE12_M_rightmostEv @4752
    _ZNSt8_Rb_treeISsSt4pairIKSsiESt10_Select1stIS2_ESt4lessISsESaIS2_EE13_M_clone_nodeEPKSt13_Rb_tree_nodeIS2_E @4753
    _ZNSt8_Rb_treeISsSt4pairIKSsiESt10_Select1stIS2_ESt4lessISsESaIS2_EE13_Rb_tree_implIS6_Lb0EE13_M_initializeEv @4754
    _ZNSt8_Rb_treeISsSt4pairIKSsiESt10_Select1stIS2_ESt4lessISsESaIS2_EE13_Rb_tree_implIS6_Lb0EEC1ERKS6_RKSaISt13_Rb_tree_nodeIS2_EE @4755
    _ZNSt8_Rb_treeISsSt4pairIKSsiESt10_Select1stIS2_ESt4lessISsESaIS2_EE13_Rb_tree_implIS6_Lb0EEC1Ev @4756
    _ZNSt8_Rb_treeISsSt4pairIKSsiESt10_Select1stIS2_ESt4lessISsESaIS2_EE13_Rb_tree_implIS6_Lb0EED1Ev @4757
    _ZNSt8_Rb_treeISsSt4pairIKSsiESt10_Select1stIS2_ESt4lessISsESaIS2_EE14_M_create_nodeERKS2_ @4758
    _ZNSt8_Rb_treeISsSt4pairIKSsiESt10_Select1stIS2_ESt4lessISsESaIS2_EE14_M_lower_boundEPSt13_Rb_tree_nodeIS2_ESB_RS1_ @4759
    _ZNSt8_Rb_treeISsSt4pairIKSsiESt10_Select1stIS2_ESt4lessISsESaIS2_EE15_M_destroy_nodeEPSt13_Rb_tree_nodeIS2_E @4760
    _ZNSt8_Rb_treeISsSt4pairIKSsiESt10_Select1stIS2_ESt4lessISsESaIS2_EE16_M_insert_uniqueERKS2_ @4761
    _ZNSt8_Rb_treeISsSt4pairIKSsiESt10_Select1stIS2_ESt4lessISsESaIS2_EE17_M_insert_unique_ESt23_Rb_tree_const_iteratorIS2_ERKS2_ @4762
    _ZNSt8_Rb_treeISsSt4pairIKSsiESt10_Select1stIS2_ESt4lessISsESaIS2_EE3endEv @4763
    _ZNSt8_Rb_treeISsSt4pairIKSsiESt10_Select1stIS2_ESt4lessISsESaIS2_EE4findERS1_ @4764
    _ZNSt8_Rb_treeISsSt4pairIKSsiESt10_Select1stIS2_ESt4lessISsESaIS2_EE5beginEv @4765
    _ZNSt8_Rb_treeISsSt4pairIKSsiESt10_Select1stIS2_ESt4lessISsESaIS2_EE5clearEv @4766
    _ZNSt8_Rb_treeISsSt4pairIKSsiESt10_Select1stIS2_ESt4lessISsESaIS2_EE6_M_endEv @4767
    _ZNSt8_Rb_treeISsSt4pairIKSsiESt10_Select1stIS2_ESt4lessISsESaIS2_EE6_S_keyEPKSt13_Rb_tree_nodeIS2_E @4768
    _ZNSt8_Rb_treeISsSt4pairIKSsiESt10_Select1stIS2_ESt4lessISsESaIS2_EE6_S_keyEPKSt18_Rb_tree_node_base @4769
    _ZNSt8_Rb_treeISsSt4pairIKSsiESt10_Select1stIS2_ESt4lessISsESaIS2_EE7_M_copyEPKSt13_Rb_tree_nodeIS2_EPSA_ @4770
    _ZNSt8_Rb_treeISsSt4pairIKSsiESt10_Select1stIS2_ESt4lessISsESaIS2_EE7_M_rootEv @4771
    _ZNSt8_Rb_treeISsSt4pairIKSsiESt10_Select1stIS2_ESt4lessISsESaIS2_EE7_S_leftEPKSt18_Rb_tree_node_base @4772
    _ZNSt8_Rb_treeISsSt4pairIKSsiESt10_Select1stIS2_ESt4lessISsESaIS2_EE7_S_leftEPSt18_Rb_tree_node_base @4773
    _ZNSt8_Rb_treeISsSt4pairIKSsiESt10_Select1stIS2_ESt4lessISsESaIS2_EE8_M_beginEv @4774
    _ZNSt8_Rb_treeISsSt4pairIKSsiESt10_Select1stIS2_ESt4lessISsESaIS2_EE8_M_eraseEPSt13_Rb_tree_nodeIS2_E @4775
    _ZNSt8_Rb_treeISsSt4pairIKSsiESt10_Select1stIS2_ESt4lessISsESaIS2_EE8_S_rightEPKSt18_Rb_tree_node_base @4776
    _ZNSt8_Rb_treeISsSt4pairIKSsiESt10_Select1stIS2_ESt4lessISsESaIS2_EE8_S_rightEPSt18_Rb_tree_node_base @4777
    _ZNSt8_Rb_treeISsSt4pairIKSsiESt10_Select1stIS2_ESt4lessISsESaIS2_EE8_S_valueEPKSt13_Rb_tree_nodeIS2_E @4778
    _ZNSt8_Rb_treeISsSt4pairIKSsiESt10_Select1stIS2_ESt4lessISsESaIS2_EE8_S_valueEPKSt18_Rb_tree_node_base @4779
    _ZNSt8_Rb_treeISsSt4pairIKSsiESt10_Select1stIS2_ESt4lessISsESaIS2_EEC1ERKS8_ @4780
    _ZNSt8_Rb_treeISsSt4pairIKSsiESt10_Select1stIS2_ESt4lessISsESaIS2_EEC1Ev @4781
    _ZNSt8_Rb_treeISsSt4pairIKSsiESt10_Select1stIS2_ESt4lessISsESaIS2_EED1Ev @4782
    _ZNSt8_Rb_treeISsSt4pairIKSsiESt10_Select1stIS2_ESt4lessISsESaIS2_EEaSERKS8_ @4783
    _ZNSt8_Rb_treeIiSt4pairIKiPKN2sf7TextureEESt10_Select1stIS6_ESt4lessIiESaIS6_EE10_M_insert_EPKSt18_Rb_tree_node_baseSF_RKS6_ @4784
    _ZNSt8_Rb_treeIiSt4pairIKiPKN2sf7TextureEESt10_Select1stIS6_ESt4lessIiESaIS6_EE11_M_get_nodeEv @4785
    _ZNSt8_Rb_treeIiSt4pairIKiPKN2sf7TextureEESt10_Select1stIS6_ESt4lessIiESaIS6_EE11_M_leftmostEv @4786
    _ZNSt8_Rb_treeIiSt4pairIKiPKN2sf7TextureEESt10_Select1stIS6_ESt4lessIiESaIS6_EE11_M_put_nodeEPSt13_Rb_tree_nodeIS6_E @4787
    _ZNSt8_Rb_treeIiSt4pairIKiPKN2sf7TextureEESt10_Select1stIS6_ESt4lessIiESaIS6_EE11lower_boundERS1_ @4788
    _ZNSt8_Rb_treeIiSt4pairIKiPKN2sf7TextureEESt10_Select1stIS6_ESt4lessIiESaIS6_EE12_M_rightmostEv @4789
    _ZNSt8_Rb_treeIiSt4pairIKiPKN2sf7TextureEESt10_Select1stIS6_ESt4lessIiESaIS6_EE13_Rb_tree_implISA_Lb0EE13_M_initializeEv @4790
    _ZNSt8_Rb_treeIiSt4pairIKiPKN2sf7TextureEESt10_Select1stIS6_ESt4lessIiESaIS6_EE13_Rb_tree_implISA_Lb0EEC1Ev @4791
    _ZNSt8_Rb_treeIiSt4pairIKiPKN2sf7TextureEESt10_Select1stIS6_ESt4lessIiESaIS6_EE13_Rb_tree_implISA_Lb0EED1Ev @4792
    _ZNSt8_Rb_treeIiSt4pairIKiPKN2sf7TextureEESt10_Select1stIS6_ESt4lessIiESaIS6_EE14_M_create_nodeERKS6_ @4793
    _ZNSt8_Rb_treeIiSt4pairIKiPKN2sf7TextureEESt10_Select1stIS6_ESt4lessIiESaIS6_EE14_M_lower_boundEPSt13_Rb_tree_nodeIS6_ESF_RS1_ @4794
    _ZNSt8_Rb_treeIiSt4pairIKiPKN2sf7TextureEESt10_Select1stIS6_ESt4lessIiESaIS6_EE15_M_destroy_nodeEPSt13_Rb_tree_nodeIS6_E @4795
    _ZNSt8_Rb_treeIiSt4pairIKiPKN2sf7TextureEESt10_Select1stIS6_ESt4lessIiESaIS6_EE16_M_insert_uniqueERKS6_ @4796
    _ZNSt8_Rb_treeIiSt4pairIKiPKN2sf7TextureEESt10_Select1stIS6_ESt4lessIiESaIS6_EE17_M_insert_unique_ESt23_Rb_tree_const_iteratorIS6_ERKS6_ @4797
    _ZNSt8_Rb_treeIiSt4pairIKiPKN2sf7TextureEESt10_Select1stIS6_ESt4lessIiESaIS6_EE3endEv @4798
    _ZNSt8_Rb_treeIiSt4pairIKiPKN2sf7TextureEESt10_Select1stIS6_ESt4lessIiESaIS6_EE4findERS1_ @4799
    _ZNSt8_Rb_treeIiSt4pairIKiPKN2sf7TextureEESt10_Select1stIS6_ESt4lessIiESaIS6_EE5beginEv @4800
    _ZNSt8_Rb_treeIiSt4pairIKiPKN2sf7TextureEESt10_Select1stIS6_ESt4lessIiESaIS6_EE5clearEv @4801
    _ZNSt8_Rb_treeIiSt4pairIKiPKN2sf7TextureEESt10_Select1stIS6_ESt4lessIiESaIS6_EE6_M_endEv @4802
    _ZNSt8_Rb_treeIiSt4pairIKiPKN2sf7TextureEESt10_Select1stIS6_ESt4lessIiESaIS6_EE6_S_keyEPKSt13_Rb_tree_nodeIS6_E @4803
    _ZNSt8_Rb_treeIiSt4pairIKiPKN2sf7TextureEESt10_Select1stIS6_ESt4lessIiESaIS6_EE6_S_keyEPKSt18_Rb_tree_node_base @4804
    _ZNSt8_Rb_treeIiSt4pairIKiPKN2sf7TextureEESt10_Select1stIS6_ESt4lessIiESaIS6_EE7_M_rootEv @4805
    _ZNSt8_Rb_treeIiSt4pairIKiPKN2sf7TextureEESt10_Select1stIS6_ESt4lessIiESaIS6_EE7_S_leftEPSt18_Rb_tree_node_base @4806
    _ZNSt8_Rb_treeIiSt4pairIKiPKN2sf7TextureEESt10_Select1stIS6_ESt4lessIiESaIS6_EE8_M_beginEv @4807
    _ZNSt8_Rb_treeIiSt4pairIKiPKN2sf7TextureEESt10_Select1stIS6_ESt4lessIiESaIS6_EE8_M_eraseEPSt13_Rb_tree_nodeIS6_E @4808
    _ZNSt8_Rb_treeIiSt4pairIKiPKN2sf7TextureEESt10_Select1stIS6_ESt4lessIiESaIS6_EE8_S_rightEPKSt18_Rb_tree_node_base @4809
    _ZNSt8_Rb_treeIiSt4pairIKiPKN2sf7TextureEESt10_Select1stIS6_ESt4lessIiESaIS6_EE8_S_rightEPSt18_Rb_tree_node_base @4810
    _ZNSt8_Rb_treeIiSt4pairIKiPKN2sf7TextureEESt10_Select1stIS6_ESt4lessIiESaIS6_EE8_S_valueEPKSt13_Rb_tree_nodeIS6_E @4811
    _ZNSt8_Rb_treeIiSt4pairIKiPKN2sf7TextureEESt10_Select1stIS6_ESt4lessIiESaIS6_EE8_S_valueEPKSt18_Rb_tree_node_base @4812
    _ZNSt8_Rb_treeIiSt4pairIKiPKN2sf7TextureEESt10_Select1stIS6_ESt4lessIiESaIS6_EEC1Ev @4813
    _ZNSt8_Rb_treeIiSt4pairIKiPKN2sf7TextureEESt10_Select1stIS6_ESt4lessIiESaIS6_EED1Ev @4814
    _ZNSt8_Rb_treeIjSt4pairIKjN2sf4Font4PageEESt10_Select1stIS5_ESt4lessIjESaIS5_EE10_M_insert_EPKSt18_Rb_tree_node_baseSE_RKS5_ @4815
    _ZNSt8_Rb_treeIjSt4pairIKjN2sf4Font4PageEESt10_Select1stIS5_ESt4lessIjESaIS5_EE10_S_maximumEPSt18_Rb_tree_node_base @4816
    _ZNSt8_Rb_treeIjSt4pairIKjN2sf4Font4PageEESt10_Select1stIS5_ESt4lessIjESaIS5_EE10_S_minimumEPSt18_Rb_tree_node_base @4817
    _ZNSt8_Rb_treeIjSt4pairIKjN2sf4Font4PageEESt10_Select1stIS5_ESt4lessIjESaIS5_EE11_M_get_nodeEv @4818
    _ZNSt8_Rb_treeIjSt4pairIKjN2sf4Font4PageEESt10_Select1stIS5_ESt4lessIjESaIS5_EE11_M_leftmostEv @4819
    _ZNSt8_Rb_treeIjSt4pairIKjN2sf4Font4PageEESt10_Select1stIS5_ESt4lessIjESaIS5_EE11_M_put_nodeEPSt13_Rb_tree_nodeIS5_E @4820
    _ZNSt8_Rb_treeIjSt4pairIKjN2sf4Font4PageEESt10_Select1stIS5_ESt4lessIjESaIS5_EE11lower_boundERS1_ @4821
    _ZNSt8_Rb_treeIjSt4pairIKjN2sf4Font4PageEESt10_Select1stIS5_ESt4lessIjESaIS5_EE12_M_rightmostEv @4822
    _ZNSt8_Rb_treeIjSt4pairIKjN2sf4Font4PageEESt10_Select1stIS5_ESt4lessIjESaIS5_EE13_M_clone_nodeEPKSt13_Rb_tree_nodeIS5_E @4823
    _ZNSt8_Rb_treeIjSt4pairIKjN2sf4Font4PageEESt10_Select1stIS5_ESt4lessIjESaIS5_EE13_Rb_tree_implIS9_Lb0EE13_M_initializeEv @4824
    _ZNSt8_Rb_treeIjSt4pairIKjN2sf4Font4PageEESt10_Select1stIS5_ESt4lessIjESaIS5_EE13_Rb_tree_implIS9_Lb0EEC1ERKS9_RKSaISt13_Rb_tree_nodeIS5_EE @4825
    _ZNSt8_Rb_treeIjSt4pairIKjN2sf4Font4PageEESt10_Select1stIS5_ESt4lessIjESaIS5_EE13_Rb_tree_implIS9_Lb0EEC1Ev @4826
    _ZNSt8_Rb_treeIjSt4pairIKjN2sf4Font4PageEESt10_Select1stIS5_ESt4lessIjESaIS5_EE13_Rb_tree_implIS9_Lb0EED1Ev @4827
    _ZNSt8_Rb_treeIjSt4pairIKjN2sf4Font4PageEESt10_Select1stIS5_ESt4lessIjESaIS5_EE14_M_create_nodeERKS5_ @4828
    _ZNSt8_Rb_treeIjSt4pairIKjN2sf4Font4PageEESt10_Select1stIS5_ESt4lessIjESaIS5_EE14_M_lower_boundEPSt13_Rb_tree_nodeIS5_ESE_RS1_ @4829
    _ZNSt8_Rb_treeIjSt4pairIKjN2sf4Font4PageEESt10_Select1stIS5_ESt4lessIjESaIS5_EE15_M_destroy_nodeEPSt13_Rb_tree_nodeIS5_E @4830
    _ZNSt8_Rb_treeIjSt4pairIKjN2sf4Font4PageEESt10_Select1stIS5_ESt4lessIjESaIS5_EE16_M_insert_uniqueERKS5_ @4831
    _ZNSt8_Rb_treeIjSt4pairIKjN2sf4Font4PageEESt10_Select1stIS5_ESt4lessIjESaIS5_EE17_M_insert_unique_ESt23_Rb_tree_const_iteratorIS5_ERKS5_ @4832
    _ZNSt8_Rb_treeIjSt4pairIKjN2sf4Font4PageEESt10_Select1stIS5_ESt4lessIjESaIS5_EE21_M_get_Node_allocatorEv @4833
    _ZNSt8_Rb_treeIjSt4pairIKjN2sf4Font4PageEESt10_Select1stIS5_ESt4lessIjESaIS5_EE3endEv @4834
    _ZNSt8_Rb_treeIjSt4pairIKjN2sf4Font4PageEESt10_Select1stIS5_ESt4lessIjESaIS5_EE4swapERSB_ @4835
    _ZNSt8_Rb_treeIjSt4pairIKjN2sf4Font4PageEESt10_Select1stIS5_ESt4lessIjESaIS5_EE5beginEv @4836
    _ZNSt8_Rb_treeIjSt4pairIKjN2sf4Font4PageEESt10_Select1stIS5_ESt4lessIjESaIS5_EE5clearEv @4837
    _ZNSt8_Rb_treeIjSt4pairIKjN2sf4Font4PageEESt10_Select1stIS5_ESt4lessIjESaIS5_EE6_M_endEv @4838
    _ZNSt8_Rb_treeIjSt4pairIKjN2sf4Font4PageEESt10_Select1stIS5_ESt4lessIjESaIS5_EE6_S_keyEPKSt13_Rb_tree_nodeIS5_E @4839
    _ZNSt8_Rb_treeIjSt4pairIKjN2sf4Font4PageEESt10_Select1stIS5_ESt4lessIjESaIS5_EE6_S_keyEPKSt18_Rb_tree_node_base @4840
    _ZNSt8_Rb_treeIjSt4pairIKjN2sf4Font4PageEESt10_Select1stIS5_ESt4lessIjESaIS5_EE7_M_copyEPKSt13_Rb_tree_nodeIS5_EPSD_ @4841
    _ZNSt8_Rb_treeIjSt4pairIKjN2sf4Font4PageEESt10_Select1stIS5_ESt4lessIjESaIS5_EE7_M_rootEv @4842
    _ZNSt8_Rb_treeIjSt4pairIKjN2sf4Font4PageEESt10_Select1stIS5_ESt4lessIjESaIS5_EE7_S_leftEPKSt18_Rb_tree_node_base @4843
    _ZNSt8_Rb_treeIjSt4pairIKjN2sf4Font4PageEESt10_Select1stIS5_ESt4lessIjESaIS5_EE7_S_leftEPSt18_Rb_tree_node_base @4844
    _ZNSt8_Rb_treeIjSt4pairIKjN2sf4Font4PageEESt10_Select1stIS5_ESt4lessIjESaIS5_EE8_M_beginEv @4845
    _ZNSt8_Rb_treeIjSt4pairIKjN2sf4Font4PageEESt10_Select1stIS5_ESt4lessIjESaIS5_EE8_M_eraseEPSt13_Rb_tree_nodeIS5_E @4846
    _ZNSt8_Rb_treeIjSt4pairIKjN2sf4Font4PageEESt10_Select1stIS5_ESt4lessIjESaIS5_EE8_S_rightEPKSt18_Rb_tree_node_base @4847
    _ZNSt8_Rb_treeIjSt4pairIKjN2sf4Font4PageEESt10_Select1stIS5_ESt4lessIjESaIS5_EE8_S_rightEPSt18_Rb_tree_node_base @4848
    _ZNSt8_Rb_treeIjSt4pairIKjN2sf4Font4PageEESt10_Select1stIS5_ESt4lessIjESaIS5_EE8_S_valueEPKSt13_Rb_tree_nodeIS5_E @4849
    _ZNSt8_Rb_treeIjSt4pairIKjN2sf4Font4PageEESt10_Select1stIS5_ESt4lessIjESaIS5_EE8_S_valueEPKSt18_Rb_tree_node_base @4850
    _ZNSt8_Rb_treeIjSt4pairIKjN2sf4Font4PageEESt10_Select1stIS5_ESt4lessIjESaIS5_EEC1ERKSB_ @4851
    _ZNSt8_Rb_treeIjSt4pairIKjN2sf4Font4PageEESt10_Select1stIS5_ESt4lessIjESaIS5_EEC1Ev @4852
    _ZNSt8_Rb_treeIjSt4pairIKjN2sf4Font4PageEESt10_Select1stIS5_ESt4lessIjESaIS5_EED1Ev @4853
    _ZNSt8_Rb_treeIjSt4pairIKjN2sf5GlyphEESt10_Select1stIS4_ESt4lessIjESaIS4_EE10_M_insert_EPKSt18_Rb_tree_node_baseSD_RKS4_ @4854
    _ZNSt8_Rb_treeIjSt4pairIKjN2sf5GlyphEESt10_Select1stIS4_ESt4lessIjESaIS4_EE10_S_maximumEPSt18_Rb_tree_node_base @4855
    _ZNSt8_Rb_treeIjSt4pairIKjN2sf5GlyphEESt10_Select1stIS4_ESt4lessIjESaIS4_EE10_S_minimumEPSt18_Rb_tree_node_base @4856
    _ZNSt8_Rb_treeIjSt4pairIKjN2sf5GlyphEESt10_Select1stIS4_ESt4lessIjESaIS4_EE11_M_get_nodeEv @4857
    _ZNSt8_Rb_treeIjSt4pairIKjN2sf5GlyphEESt10_Select1stIS4_ESt4lessIjESaIS4_EE11_M_leftmostEv @4858
    _ZNSt8_Rb_treeIjSt4pairIKjN2sf5GlyphEESt10_Select1stIS4_ESt4lessIjESaIS4_EE11_M_put_nodeEPSt13_Rb_tree_nodeIS4_E @4859
    _ZNSt8_Rb_treeIjSt4pairIKjN2sf5GlyphEESt10_Select1stIS4_ESt4lessIjESaIS4_EE12_M_rightmostEv @4860
    _ZNSt8_Rb_treeIjSt4pairIKjN2sf5GlyphEESt10_Select1stIS4_ESt4lessIjESaIS4_EE13_M_clone_nodeEPKSt13_Rb_tree_nodeIS4_E @4861
    _ZNSt8_Rb_treeIjSt4pairIKjN2sf5GlyphEESt10_Select1stIS4_ESt4lessIjESaIS4_EE13_Rb_tree_implIS8_Lb0EE13_M_initializeEv @4862
    _ZNSt8_Rb_treeIjSt4pairIKjN2sf5GlyphEESt10_Select1stIS4_ESt4lessIjESaIS4_EE13_Rb_tree_implIS8_Lb0EEC1ERKS8_RKSaISt13_Rb_tree_nodeIS4_EE @4863
    _ZNSt8_Rb_treeIjSt4pairIKjN2sf5GlyphEESt10_Select1stIS4_ESt4lessIjESaIS4_EE13_Rb_tree_implIS8_Lb0EEC1Ev @4864
    _ZNSt8_Rb_treeIjSt4pairIKjN2sf5GlyphEESt10_Select1stIS4_ESt4lessIjESaIS4_EE13_Rb_tree_implIS8_Lb0EED1Ev @4865
    _ZNSt8_Rb_treeIjSt4pairIKjN2sf5GlyphEESt10_Select1stIS4_ESt4lessIjESaIS4_EE14_M_create_nodeERKS4_ @4866
    _ZNSt8_Rb_treeIjSt4pairIKjN2sf5GlyphEESt10_Select1stIS4_ESt4lessIjESaIS4_EE14_M_lower_boundEPSt13_Rb_tree_nodeIS4_ESD_RS1_ @4867
    _ZNSt8_Rb_treeIjSt4pairIKjN2sf5GlyphEESt10_Select1stIS4_ESt4lessIjESaIS4_EE15_M_destroy_nodeEPSt13_Rb_tree_nodeIS4_E @4868
    _ZNSt8_Rb_treeIjSt4pairIKjN2sf5GlyphEESt10_Select1stIS4_ESt4lessIjESaIS4_EE16_M_insert_uniqueERKS4_ @4869
    _ZNSt8_Rb_treeIjSt4pairIKjN2sf5GlyphEESt10_Select1stIS4_ESt4lessIjESaIS4_EE3endEv @4870
    _ZNSt8_Rb_treeIjSt4pairIKjN2sf5GlyphEESt10_Select1stIS4_ESt4lessIjESaIS4_EE4findERS1_ @4871
    _ZNSt8_Rb_treeIjSt4pairIKjN2sf5GlyphEESt10_Select1stIS4_ESt4lessIjESaIS4_EE5beginEv @4872
    _ZNSt8_Rb_treeIjSt4pairIKjN2sf5GlyphEESt10_Select1stIS4_ESt4lessIjESaIS4_EE6_M_endEv @4873
    _ZNSt8_Rb_treeIjSt4pairIKjN2sf5GlyphEESt10_Select1stIS4_ESt4lessIjESaIS4_EE6_S_keyEPKSt13_Rb_tree_nodeIS4_E @4874
    _ZNSt8_Rb_treeIjSt4pairIKjN2sf5GlyphEESt10_Select1stIS4_ESt4lessIjESaIS4_EE6_S_keyEPKSt18_Rb_tree_node_base @4875
    _ZNSt8_Rb_treeIjSt4pairIKjN2sf5GlyphEESt10_Select1stIS4_ESt4lessIjESaIS4_EE7_M_copyEPKSt13_Rb_tree_nodeIS4_EPSC_ @4876
    _ZNSt8_Rb_treeIjSt4pairIKjN2sf5GlyphEESt10_Select1stIS4_ESt4lessIjESaIS4_EE7_M_rootEv @4877
    _ZNSt8_Rb_treeIjSt4pairIKjN2sf5GlyphEESt10_Select1stIS4_ESt4lessIjESaIS4_EE7_S_leftEPKSt18_Rb_tree_node_base @4878
    _ZNSt8_Rb_treeIjSt4pairIKjN2sf5GlyphEESt10_Select1stIS4_ESt4lessIjESaIS4_EE7_S_leftEPSt18_Rb_tree_node_base @4879
    _ZNSt8_Rb_treeIjSt4pairIKjN2sf5GlyphEESt10_Select1stIS4_ESt4lessIjESaIS4_EE8_M_beginEv @4880
    _ZNSt8_Rb_treeIjSt4pairIKjN2sf5GlyphEESt10_Select1stIS4_ESt4lessIjESaIS4_EE8_M_eraseEPSt13_Rb_tree_nodeIS4_E @4881
    _ZNSt8_Rb_treeIjSt4pairIKjN2sf5GlyphEESt10_Select1stIS4_ESt4lessIjESaIS4_EE8_S_rightEPKSt18_Rb_tree_node_base @4882
    _ZNSt8_Rb_treeIjSt4pairIKjN2sf5GlyphEESt10_Select1stIS4_ESt4lessIjESaIS4_EE8_S_rightEPSt18_Rb_tree_node_base @4883
    _ZNSt8_Rb_treeIjSt4pairIKjN2sf5GlyphEESt10_Select1stIS4_ESt4lessIjESaIS4_EE8_S_valueEPKSt13_Rb_tree_nodeIS4_E @4884
    _ZNSt8_Rb_treeIjSt4pairIKjN2sf5GlyphEESt10_Select1stIS4_ESt4lessIjESaIS4_EE8_S_valueEPKSt18_Rb_tree_node_base @4885
    _ZNSt8_Rb_treeIjSt4pairIKjN2sf5GlyphEESt10_Select1stIS4_ESt4lessIjESaIS4_EEC1ERKSA_ @4886
    _ZNSt8_Rb_treeIjSt4pairIKjN2sf5GlyphEESt10_Select1stIS4_ESt4lessIjESaIS4_EEC1Ev @4887
    _ZNSt8_Rb_treeIjSt4pairIKjN2sf5GlyphEESt10_Select1stIS4_ESt4lessIjESaIS4_EED1Ev @4888
    _ZNSt8_Rb_treeIjSt4pairIKjPN9Ptakopysk9ComponentEESt10_Select1stIS5_ESt4lessIjESaIS5_EE10_M_insert_EPKSt18_Rb_tree_node_baseSE_RKS5_ @4889
    _ZNSt8_Rb_treeIjSt4pairIKjPN9Ptakopysk9ComponentEESt10_Select1stIS5_ESt4lessIjESaIS5_EE11_M_get_nodeEv @4890
    _ZNSt8_Rb_treeIjSt4pairIKjPN9Ptakopysk9ComponentEESt10_Select1stIS5_ESt4lessIjESaIS5_EE11_M_leftmostEv @4891
    _ZNSt8_Rb_treeIjSt4pairIKjPN9Ptakopysk9ComponentEESt10_Select1stIS5_ESt4lessIjESaIS5_EE11_M_put_nodeEPSt13_Rb_tree_nodeIS5_E @4892
    _ZNSt8_Rb_treeIjSt4pairIKjPN9Ptakopysk9ComponentEESt10_Select1stIS5_ESt4lessIjESaIS5_EE11equal_rangeERS1_ @4893
    _ZNSt8_Rb_treeIjSt4pairIKjPN9Ptakopysk9ComponentEESt10_Select1stIS5_ESt4lessIjESaIS5_EE11lower_boundERS1_ @4894
    _ZNSt8_Rb_treeIjSt4pairIKjPN9Ptakopysk9ComponentEESt10_Select1stIS5_ESt4lessIjESaIS5_EE12_M_erase_auxESt23_Rb_tree_const_iteratorIS5_E @4895
    _ZNSt8_Rb_treeIjSt4pairIKjPN9Ptakopysk9ComponentEESt10_Select1stIS5_ESt4lessIjESaIS5_EE12_M_erase_auxESt23_Rb_tree_const_iteratorIS5_ESD_ @4896
    _ZNSt8_Rb_treeIjSt4pairIKjPN9Ptakopysk9ComponentEESt10_Select1stIS5_ESt4lessIjESaIS5_EE12_M_rightmostEv @4897
    _ZNSt8_Rb_treeIjSt4pairIKjPN9Ptakopysk9ComponentEESt10_Select1stIS5_ESt4lessIjESaIS5_EE13_Rb_tree_implIS9_Lb0EE13_M_initializeEv @4898
    _ZNSt8_Rb_treeIjSt4pairIKjPN9Ptakopysk9ComponentEESt10_Select1stIS5_ESt4lessIjESaIS5_EE13_Rb_tree_implIS9_Lb0EEC1Ev @4899
    _ZNSt8_Rb_treeIjSt4pairIKjPN9Ptakopysk9ComponentEESt10_Select1stIS5_ESt4lessIjESaIS5_EE13_Rb_tree_implIS9_Lb0EED1Ev @4900
    _ZNSt8_Rb_treeIjSt4pairIKjPN9Ptakopysk9ComponentEESt10_Select1stIS5_ESt4lessIjESaIS5_EE14_M_create_nodeERKS5_ @4901
    _ZNSt8_Rb_treeIjSt4pairIKjPN9Ptakopysk9ComponentEESt10_Select1stIS5_ESt4lessIjESaIS5_EE14_M_lower_boundEPSt13_Rb_tree_nodeIS5_ESE_RS1_ @4902
    _ZNSt8_Rb_treeIjSt4pairIKjPN9Ptakopysk9ComponentEESt10_Select1stIS5_ESt4lessIjESaIS5_EE14_M_upper_boundEPSt13_Rb_tree_nodeIS5_ESE_RS1_ @4903
    _ZNSt8_Rb_treeIjSt4pairIKjPN9Ptakopysk9ComponentEESt10_Select1stIS5_ESt4lessIjESaIS5_EE15_M_destroy_nodeEPSt13_Rb_tree_nodeIS5_E @4904
    _ZNSt8_Rb_treeIjSt4pairIKjPN9Ptakopysk9ComponentEESt10_Select1stIS5_ESt4lessIjESaIS5_EE16_M_insert_uniqueERKS5_ @4905
    _ZNSt8_Rb_treeIjSt4pairIKjPN9Ptakopysk9ComponentEESt10_Select1stIS5_ESt4lessIjESaIS5_EE17_M_insert_unique_ESt23_Rb_tree_const_iteratorIS5_ERKS5_ @4906
    _ZNSt8_Rb_treeIjSt4pairIKjPN9Ptakopysk9ComponentEESt10_Select1stIS5_ESt4lessIjESaIS5_EE3endEv @4907
    _ZNSt8_Rb_treeIjSt4pairIKjPN9Ptakopysk9ComponentEESt10_Select1stIS5_ESt4lessIjESaIS5_EE5beginEv @4908
    _ZNSt8_Rb_treeIjSt4pairIKjPN9Ptakopysk9ComponentEESt10_Select1stIS5_ESt4lessIjESaIS5_EE5clearEv @4909
    _ZNSt8_Rb_treeIjSt4pairIKjPN9Ptakopysk9ComponentEESt10_Select1stIS5_ESt4lessIjESaIS5_EE5eraseERS1_ @4910
    _ZNSt8_Rb_treeIjSt4pairIKjPN9Ptakopysk9ComponentEESt10_Select1stIS5_ESt4lessIjESaIS5_EE5eraseESt17_Rb_tree_iteratorIS5_ESD_ @4911
    _ZNSt8_Rb_treeIjSt4pairIKjPN9Ptakopysk9ComponentEESt10_Select1stIS5_ESt4lessIjESaIS5_EE5eraseESt23_Rb_tree_const_iteratorIS5_E @4912
    _ZNSt8_Rb_treeIjSt4pairIKjPN9Ptakopysk9ComponentEESt10_Select1stIS5_ESt4lessIjESaIS5_EE6_M_endEv @4913
    _ZNSt8_Rb_treeIjSt4pairIKjPN9Ptakopysk9ComponentEESt10_Select1stIS5_ESt4lessIjESaIS5_EE6_S_keyEPKSt13_Rb_tree_nodeIS5_E @4914
    _ZNSt8_Rb_treeIjSt4pairIKjPN9Ptakopysk9ComponentEESt10_Select1stIS5_ESt4lessIjESaIS5_EE6_S_keyEPKSt18_Rb_tree_node_base @4915
    _ZNSt8_Rb_treeIjSt4pairIKjPN9Ptakopysk9ComponentEESt10_Select1stIS5_ESt4lessIjESaIS5_EE7_M_rootEv @4916
    _ZNSt8_Rb_treeIjSt4pairIKjPN9Ptakopysk9ComponentEESt10_Select1stIS5_ESt4lessIjESaIS5_EE7_S_leftEPKSt18_Rb_tree_node_base @4917
    _ZNSt8_Rb_treeIjSt4pairIKjPN9Ptakopysk9ComponentEESt10_Select1stIS5_ESt4lessIjESaIS5_EE7_S_leftEPSt18_Rb_tree_node_base @4918
    _ZNSt8_Rb_treeIjSt4pairIKjPN9Ptakopysk9ComponentEESt10_Select1stIS5_ESt4lessIjESaIS5_EE8_M_beginEv @4919
    _ZNSt8_Rb_treeIjSt4pairIKjPN9Ptakopysk9ComponentEESt10_Select1stIS5_ESt4lessIjESaIS5_EE8_M_eraseEPSt13_Rb_tree_nodeIS5_E @4920
    _ZNSt8_Rb_treeIjSt4pairIKjPN9Ptakopysk9ComponentEESt10_Select1stIS5_ESt4lessIjESaIS5_EE8_S_rightEPKSt18_Rb_tree_node_base @4921
    _ZNSt8_Rb_treeIjSt4pairIKjPN9Ptakopysk9ComponentEESt10_Select1stIS5_ESt4lessIjESaIS5_EE8_S_rightEPSt18_Rb_tree_node_base @4922
    _ZNSt8_Rb_treeIjSt4pairIKjPN9Ptakopysk9ComponentEESt10_Select1stIS5_ESt4lessIjESaIS5_EE8_S_valueEPKSt13_Rb_tree_nodeIS5_E @4923
    _ZNSt8_Rb_treeIjSt4pairIKjPN9Ptakopysk9ComponentEESt10_Select1stIS5_ESt4lessIjESaIS5_EE8_S_valueEPKSt18_Rb_tree_node_base @4924
    _ZNSt8_Rb_treeIjSt4pairIKjPN9Ptakopysk9ComponentEESt10_Select1stIS5_ESt4lessIjESaIS5_EEC1Ev @4925
    _ZNSt8_Rb_treeIjSt4pairIKjPN9Ptakopysk9ComponentEESt10_Select1stIS5_ESt4lessIjESaIS5_EED1Ev @4926
    _ZNSt8__lc_raiISt26bidirectional_iterator_tagS0_E10__newlast1ISt23_Rb_tree_const_iteratorISt4pairIKN4Json5Value8CZStringES6_EESA_EET_SB_SB_T0_SC_ @4927
    _ZNSt8__lc_raiISt26bidirectional_iterator_tagS0_E6__cnd2ISt23_Rb_tree_const_iteratorISt4pairIKN4Json5Value8CZStringES6_EEEEbT_SB_ @4928
    _ZNSt8ios_base4setfESt13_Ios_Fmtflags @4929
    _ZNSt8ios_base4setfESt13_Ios_FmtflagsS0_ @4930
    _ZNSt8iteratorISt19output_iterator_tagvvvvEC2Ev @4931
    _ZSt10_ConstructI6b2Vec2S0_EvPT_RKT0_ @4932
    _ZSt10_ConstructIN2sf4Font3RowES2_EvPT_RKT0_ @4933
    _ZSt10_ConstructIN2sf6VertexES1_EvPT_RKT0_ @4934
    _ZSt10_ConstructIN2sf9VideoModeES1_EvPT_RKT0_ @4935
    _ZSt10_ConstructIN4Json12PathArgumentES1_EvPT_RKT0_ @4936
    _ZSt10_ConstructIN4Json6Reader9ErrorInfoES2_EvPT_RKT0_ @4937
    _ZSt10_ConstructIN6XeCore6Common6StringES2_EvPT_RKT0_ @4938
    _ZSt10_ConstructISsSsEvPT_RKT0_ @4939
    _ZSt10__distanceIN9__gnu_cxx17__normal_iteratorIP6b2Vec2St6vectorIS2_SaIS2_EEEEENSt15iterator_traitsIT_E15difference_typeES9_S9_St26random_access_iterator_tag @4940
    _ZSt10__distanceIPKcENSt15iterator_traitsIT_E15difference_typeES3_S3_St26random_access_iterator_tag @4941
    _ZSt10__distanceIPKsENSt15iterator_traitsIT_E15difference_typeES3_S3_St26random_access_iterator_tag @4942
    _ZSt10__fill_n_aIPjjjEN9__gnu_cxx11__enable_ifIXsrSt11__is_scalarIT1_E7__valueET_E6__typeES6_T0_RKS4_ @4943
    _ZSt10__fill_n_aIPsjsEN9__gnu_cxx11__enable_ifIXsrSt11__is_scalarIT1_E7__valueET_E6__typeES6_T0_RKS4_ @4944
    _ZSt10__fill_n_aIjcEN9__gnu_cxx11__enable_ifIXsrSt9__is_byteIT0_E7__valueEPS3_E6__typeES5_T_RKS3_ @4945
    _ZSt10__fill_n_aIjhEN9__gnu_cxx11__enable_ifIXsrSt9__is_byteIT0_E7__valueEPS3_E6__typeES5_T_RKS3_ @4946
    _ZSt10__pop_heapIN9__gnu_cxx17__normal_iteratorIPN2sf9VideoModeESt6vectorIS3_SaIS3_EEEESt7greaterIS3_EEvT_SB_SB_T0_ @4947
    _ZSt10__pop_heapIP6b2PairPFbRKS0_S3_EEvT_S6_S6_T0_ @4948
    _ZSt11__addressofI6b2Vec2EPT_RS1_ @4949
    _ZSt11__addressofIKPN9Ptakopysk10GameObjectEEPT_RS4_ @4950
    _ZSt11__addressofIKSt4pairIKSsiEEPT_RS4_ @4951
    _ZSt11__addressofIKSt4pairIKiPKN2sf7TextureEEEPT_RS8_ @4952
    _ZSt11__addressofIKSt4pairIKjN2sf5GlyphEEEPT_RS6_ @4953
    _ZSt11__addressofIN2sf4Font3RowEEPT_RS3_ @4954
    _ZSt11__addressofIN2sf6VertexEEPT_RS2_ @4955
    _ZSt11__addressofIN2sf9VideoModeEEPT_RS2_ @4956
    _ZSt11__addressofIN4Json12PathArgumentEEPT_RS2_ @4957
    _ZSt11__addressofIN4Json6Reader9ErrorInfoEEPT_RS3_ @4958
    _ZSt11__addressofIN6XeCore6Common6StringEEPT_RS3_ @4959
    _ZSt11__addressofIPN2sf4priv9GlContextEEPT_RS4_ @4960
    _ZSt11__addressofIPN2sf5SoundEEPT_RS3_ @4961
    _ZSt11__addressofIPN9Ptakopysk10GameObjectEEPT_RS3_ @4962
    _ZSt11__addressofIPN9Ptakopysk6Events5EventEEPT_RS4_ @4963
    _ZSt11__addressofISsEPT_RS0_ @4964
    _ZSt11__addressofISt4pairIKN4Json5Value8CZStringES2_EEPT_RS6_ @4965
    _ZSt11__addressofISt4pairIKSsN9Ptakopysk11GameManager20ComponentFactoryDataEEEPT_RS6_ @4966
    _ZSt11__addressofISt4pairIKSsPN2sf11SoundBufferEEEPT_RS6_ @4967
    _ZSt11__addressofISt4pairIKSsPN2sf4FontEEEPT_RS6_ @4968
    _ZSt11__addressofISt4pairIKSsPN2sf5MusicEEEPT_RS6_ @4969
    _ZSt11__addressofISt4pairIKSsPN2sf5SoundEEEPT_RS6_ @4970
    _ZSt11__addressofISt4pairIKSsPN2sf6ShaderEEEPT_RS6_ @4971
    _ZSt11__addressofISt4pairIKSsPN2sf7TextureEEEPT_RS6_ @4972
    _ZSt11__addressofISt4pairIKSsPN9Ptakopysk10Serialized17ICustomSerializerEEEPT_RS7_ @4973
    _ZSt11__addressofISt4pairIKSsSsEEPT_RS3_ @4974
    _ZSt11__addressofISt4pairIKSsiEEPT_RS3_ @4975
    _ZSt11__addressofISt4pairIKiPKN2sf7TextureEEEPT_RS7_ @4976
    _ZSt11__addressofISt4pairIKjN2sf4Font4PageEEEPT_RS6_ @4977
    _ZSt11__addressofISt4pairIKjN2sf5GlyphEEEPT_RS5_ @4978
    _ZSt11__addressofISt4pairIKjPN9Ptakopysk9ComponentEEEPT_RS6_ @4979
    _ZSt11__equal_auxISt23_Rb_tree_const_iteratorISt4pairIKN4Json5Value8CZStringES3_EES7_EbT_S8_T0_ @4980
    _ZSt11__push_heapIN9__gnu_cxx17__normal_iteratorIPN2sf9VideoModeESt6vectorIS3_SaIS3_EEEEiS3_St7greaterIS3_EEvT_T0_SC_T1_T2_ @4981
    _ZSt11__push_heapIP6b2PairiS0_PFbRKS0_S3_EEvT_T0_S7_T1_T2_ @4982
    _ZSt12__miter_baseIN9__gnu_cxx17__normal_iteratorIP6b2Vec2St6vectorIS2_SaIS2_EEEEENSt11_Miter_baseIT_E13iterator_typeES9_ @4983
    _ZSt12__miter_baseIN9__gnu_cxx17__normal_iteratorIPKN2sf9VideoModeESt6vectorIS3_SaIS3_EEEEENSt11_Miter_baseIT_E13iterator_typeESB_ @4984
    _ZSt12__miter_baseIN9__gnu_cxx17__normal_iteratorIPKhSt6vectorIhSaIhEEEEENSt11_Miter_baseIT_E13iterator_typeES9_ @4985
    _ZSt12__miter_baseIN9__gnu_cxx17__normal_iteratorIPKsSt6vectorIsSaIsEEEEENSt11_Miter_baseIT_E13iterator_typeES9_ @4986
    _ZSt12__miter_baseIN9__gnu_cxx17__normal_iteratorIPN2sf9VideoModeESt6vectorIS3_SaIS3_EEEEENSt11_Miter_baseIT_E13iterator_typeESA_ @4987
    _ZSt12__miter_baseIP6b2PairENSt11_Miter_baseIT_E13iterator_typeES3_ @4988
    _ZSt12__miter_baseIP6b2Vec2ENSt11_Miter_baseIT_E13iterator_typeES3_ @4989
    _ZSt12__miter_baseIPKjENSt11_Miter_baseIT_E13iterator_typeES3_ @4990
    _ZSt12__miter_baseIPKsENSt11_Miter_baseIT_E13iterator_typeES3_ @4991
    _ZSt12__miter_baseIPN2sf4Font3RowEENSt11_Miter_baseIT_E13iterator_typeES5_ @4992
    _ZSt12__miter_baseIPN2sf6VertexEENSt11_Miter_baseIT_E13iterator_typeES4_ @4993
    _ZSt12__miter_baseIPN2sf9VideoModeEENSt11_Miter_baseIT_E13iterator_typeES4_ @4994
    _ZSt12__miter_baseIPN4Json12PathArgumentEENSt11_Miter_baseIT_E13iterator_typeES4_ @4995
    _ZSt12__miter_baseIPN4Json6Reader9ErrorInfoEENSt11_Miter_baseIT_E13iterator_typeES5_ @4996
    _ZSt12__miter_baseIPN6XeCore6Common6StringEENSt11_Miter_baseIT_E13iterator_typeES5_ @4997
    _ZSt12__miter_baseIPPKN4Json12PathArgumentEENSt11_Miter_baseIT_E13iterator_typeES6_ @4998
    _ZSt12__miter_baseIPPN2sf5EventEENSt11_Miter_baseIT_E13iterator_typeES5_ @4999
    _ZSt12__miter_baseIPPN4Json6Reader9ErrorInfoEENSt11_Miter_baseIT_E13iterator_typeES6_ @5000
    _ZSt12__miter_baseIPPPN4Json5ValueEENSt11_Miter_baseIT_E13iterator_typeES6_ @5001
    _ZSt12__miter_baseIPSsENSt11_Miter_baseIT_E13iterator_typeES2_ @5002
    _ZSt12__miter_baseIPcENSt11_Miter_baseIT_E13iterator_typeES2_ @5003
    _ZSt12__miter_baseIPhENSt11_Miter_baseIT_E13iterator_typeES2_ @5004
    _ZSt12__miter_baseIPsENSt11_Miter_baseIT_E13iterator_typeES2_ @5005
    _ZSt12__miter_baseISt15_Deque_iteratorIN2sf5EventERKS2_PS3_EENSt11_Miter_baseIT_E13iterator_typeES8_ @5006
    _ZSt12__miter_baseISt15_Deque_iteratorIPN4Json5ValueERKS3_PS4_EENSt11_Miter_baseIT_E13iterator_typeES9_ @5007
    _ZSt12__niter_baseIN9__gnu_cxx17__normal_iteratorIP6b2Vec2St6vectorIS2_SaIS2_EEEEENSt11_Niter_baseIT_E13iterator_typeES9_ @5008
    _ZSt12__niter_baseIN9__gnu_cxx17__normal_iteratorIPKN2sf9VideoModeESt6vectorIS3_SaIS3_EEEEENSt11_Niter_baseIT_E13iterator_typeESB_ @5009
    _ZSt12__niter_baseIN9__gnu_cxx17__normal_iteratorIPKhSt6vectorIhSaIhEEEEENSt11_Niter_baseIT_E13iterator_typeES9_ @5010
    _ZSt12__niter_baseIN9__gnu_cxx17__normal_iteratorIPKsSt6vectorIsSaIsEEEEENSt11_Niter_baseIT_E13iterator_typeES9_ @5011
    _ZSt12__niter_baseIN9__gnu_cxx17__normal_iteratorIPN2sf9VideoModeESt6vectorIS3_SaIS3_EEEEENSt11_Niter_baseIT_E13iterator_typeESA_ @5012
    _ZSt12__niter_baseIP6b2PairENSt11_Niter_baseIT_E13iterator_typeES3_ @5013
    _ZSt12__niter_baseIP6b2Vec2ENSt11_Niter_baseIT_E13iterator_typeES3_ @5014
    _ZSt12__niter_baseIPKjENSt11_Niter_baseIT_E13iterator_typeES3_ @5015
    _ZSt12__niter_baseIPKsENSt11_Niter_baseIT_E13iterator_typeES3_ @5016
    _ZSt12__niter_baseIPN2sf4Font3RowEENSt11_Niter_baseIT_E13iterator_typeES5_ @5017
    _ZSt12__niter_baseIPN2sf6VertexEENSt11_Niter_baseIT_E13iterator_typeES4_ @5018
    _ZSt12__niter_baseIPN2sf9VideoModeEENSt11_Niter_baseIT_E13iterator_typeES4_ @5019
    _ZSt12__niter_baseIPN4Json12PathArgumentEENSt11_Niter_baseIT_E13iterator_typeES4_ @5020
    _ZSt12__niter_baseIPN4Json6Reader9ErrorInfoEENSt11_Niter_baseIT_E13iterator_typeES5_ @5021
    _ZSt12__niter_baseIPN6XeCore6Common6StringEENSt11_Niter_baseIT_E13iterator_typeES5_ @5022
    _ZSt12__niter_baseIPPKN4Json12PathArgumentEENSt11_Niter_baseIT_E13iterator_typeES6_ @5023
    _ZSt12__niter_baseIPPN2sf5EventEENSt11_Niter_baseIT_E13iterator_typeES5_ @5024
    _ZSt12__niter_baseIPPN4Json6Reader9ErrorInfoEENSt11_Niter_baseIT_E13iterator_typeES6_ @5025
    _ZSt12__niter_baseIPPPN4Json5ValueEENSt11_Niter_baseIT_E13iterator_typeES6_ @5026
    _ZSt12__niter_baseIPSsENSt11_Niter_baseIT_E13iterator_typeES2_ @5027
    _ZSt12__niter_baseIPbENSt11_Niter_baseIT_E13iterator_typeES2_ @5028
    _ZSt12__niter_baseIPcENSt11_Niter_baseIT_E13iterator_typeES2_ @5029
    _ZSt12__niter_baseIPfENSt11_Niter_baseIT_E13iterator_typeES2_ @5030
    _ZSt12__niter_baseIPhENSt11_Niter_baseIT_E13iterator_typeES2_ @5031
    _ZSt12__niter_baseIPjENSt11_Niter_baseIT_E13iterator_typeES2_ @5032
    _ZSt12__niter_baseIPsENSt11_Niter_baseIT_E13iterator_typeES2_ @5033
    _ZSt12__niter_baseISt15_Deque_iteratorIN2sf5EventERKS2_PS3_EENSt11_Niter_baseIT_E13iterator_typeES8_ @5034
    _ZSt12__niter_baseISt15_Deque_iteratorIN2sf5EventERS2_PS2_EENSt11_Niter_baseIT_E13iterator_typeES7_ @5035
    _ZSt12__niter_baseISt15_Deque_iteratorIPN4Json5ValueERKS3_PS4_EENSt11_Niter_baseIT_E13iterator_typeES9_ @5036
    _ZSt12__niter_baseISt15_Deque_iteratorIPN4Json5ValueERS3_PS3_EENSt11_Niter_baseIT_E13iterator_typeES8_ @5037
    _ZSt12__niter_baseISt23_Rb_tree_const_iteratorISt4pairIKN4Json5Value8CZStringES3_EEENSt11_Niter_baseIT_E13iterator_typeES9_ @5038
    _ZSt12partial_sortIN9__gnu_cxx17__normal_iteratorIPN2sf9VideoModeESt6vectorIS3_SaIS3_EEEESt7greaterIS3_EEvT_SB_SB_T0_ @5039
    _ZSt12partial_sortIP6b2PairPFbRKS0_S3_EEvT_S6_S6_T0_ @5040
    _ZSt13__adjust_heapIN9__gnu_cxx17__normal_iteratorIPN2sf9VideoModeESt6vectorIS3_SaIS3_EEEEiS3_St7greaterIS3_EEvT_T0_SC_T1_T2_ @5041
    _ZSt13__adjust_heapIP6b2PairiS0_PFbRKS0_S3_EEvT_T0_S7_T1_T2_ @5042
    _ZSt13__copy_move_aILb0EP6b2Vec2S1_ET1_T0_S3_S2_ @5043
    _ZSt13__copy_move_aILb0EPKN2sf9VideoModeEPS1_ET1_T0_S6_S5_ @5044
    _ZSt13__copy_move_aILb0EPKhPhET1_T0_S4_S3_ @5045
    _ZSt13__copy_move_aILb0EPKjPjET1_T0_S4_S3_ @5046
    _ZSt13__copy_move_aILb0EPKsPsET1_T0_S4_S3_ @5047
    _ZSt13__copy_move_aILb0EPN2sf9VideoModeES2_ET1_T0_S4_S3_ @5048
    _ZSt13__copy_move_aILb0EPN4Json6Reader9ErrorInfoES3_ET1_T0_S5_S4_ @5049
    _ZSt13__copy_move_aILb0EPPKN4Json12PathArgumentES4_ET1_T0_S6_S5_ @5050
    _ZSt13__copy_move_aILb0EPPN2sf5EventES3_ET1_T0_S5_S4_ @5051
    _ZSt13__copy_move_aILb0EPPN4Json6Reader9ErrorInfoES4_ET1_T0_S6_S5_ @5052
    _ZSt13__copy_move_aILb0EPPPN4Json5ValueES4_ET1_T0_S6_S5_ @5053
    _ZSt13__copy_move_aILb0EPcS0_ET1_T0_S2_S1_ @5054
    _ZSt13__copy_move_aILb0EPhS0_ET1_T0_S2_S1_ @5055
    _ZSt13__copy_move_aILb0EPsS0_ET1_T0_S2_S1_ @5056
    _ZSt13__copy_move_aILb0ESt15_Deque_iteratorIN2sf5EventERKS2_PS3_ES0_IS2_RS2_PS2_EET1_T0_SB_SA_ @5057
    _ZSt13__copy_move_aILb0ESt15_Deque_iteratorIPN4Json5ValueERKS3_PS4_ES0_IS3_RS3_PS3_EET1_T0_SC_SB_ @5058
    _ZSt13__heap_selectIN9__gnu_cxx17__normal_iteratorIPN2sf9VideoModeESt6vectorIS3_SaIS3_EEEESt7greaterIS3_EEvT_SB_SB_T0_ @5059
    _ZSt13__heap_selectIP6b2PairPFbRKS0_S3_EEvT_S6_S6_T0_ @5060
    _ZSt13back_inserterISbIjSt11char_traitsIjESaIjEEESt20back_insert_iteratorIT_ERS5_ @5061
    _ZSt13back_inserterISbIwSt11char_traitsIwESaIwEEESt20back_insert_iteratorIT_ERS5_ @5062
    _ZSt13back_inserterISsESt20back_insert_iteratorIT_ERS1_ @5063
    _ZSt13copy_backwardIN4Json6Reader9ErrorInfoEESt15_Deque_iteratorIT_RS4_PS4_ES3_IS4_RKS4_PS8_ESB_S7_ @5064
    _ZSt13copy_backwardIN4Json6Reader9ErrorInfoEESt15_Deque_iteratorIT_RS4_PS4_ES7_S7_S7_ @5065
    _ZSt13copy_backwardIN9__gnu_cxx17__normal_iteratorIPN2sf9VideoModeESt6vectorIS3_SaIS3_EEEES8_ET0_T_SA_S9_ @5066
    _ZSt13copy_backwardIP6b2PairS1_ET0_T_S3_S2_ @5067
    _ZSt13copy_backwardIP6b2Vec2S1_ET0_T_S3_S2_ @5068
    _ZSt13copy_backwardIPN2sf4Font3RowES3_ET0_T_S5_S4_ @5069
    _ZSt13copy_backwardIPN2sf6VertexES2_ET0_T_S4_S3_ @5070
    _ZSt13copy_backwardIPN2sf9VideoModeES2_ET0_T_S4_S3_ @5071
    _ZSt13copy_backwardIPN4Json12PathArgumentES2_ET0_T_S4_S3_ @5072
    _ZSt13copy_backwardIPN4Json6Reader9ErrorInfoES3_ET0_T_S5_S4_ @5073
    _ZSt13copy_backwardIPN6XeCore6Common6StringES3_ET0_T_S5_S4_ @5074
    _ZSt13copy_backwardIPPKN4Json12PathArgumentES4_ET0_T_S6_S5_ @5075
    _ZSt13copy_backwardIPPN2sf5EventES3_ET0_T_S5_S4_ @5076
    _ZSt13copy_backwardIPPN4Json6Reader9ErrorInfoES4_ET0_T_S6_S5_ @5077
    _ZSt13copy_backwardIPPPN4Json5ValueES4_ET0_T_S6_S5_ @5078
    _ZSt13copy_backwardIPSsS0_ET0_T_S2_S1_ @5079
    _ZSt13copy_backwardIPcS0_ET0_T_S2_S1_ @5080
    _ZSt13copy_backwardIPhS0_ET0_T_S2_S1_ @5081
    _ZSt13copy_backwardIPsS0_ET0_T_S2_S1_ @5082
    _ZSt14__copy_move_a2ILb0EN9__gnu_cxx17__normal_iteratorIP6b2Vec2St6vectorIS2_SaIS2_EEEES3_ET1_T0_S9_S8_ @5083
    _ZSt14__copy_move_a2ILb0EN9__gnu_cxx17__normal_iteratorIPKN2sf9VideoModeESt6vectorIS3_SaIS3_EEEENS1_IPS3_S8_EEET1_T0_SD_SC_ @5084
    _ZSt14__copy_move_a2ILb0EN9__gnu_cxx17__normal_iteratorIPKhSt6vectorIhSaIhEEEEPhET1_T0_SA_S9_ @5085
    _ZSt14__copy_move_a2ILb0EN9__gnu_cxx17__normal_iteratorIPKsSt6vectorIsSaIsEEEEPsET1_T0_SA_S9_ @5086
    _ZSt14__copy_move_a2ILb0EPKjPjET1_T0_S4_S3_ @5087
    _ZSt14__copy_move_a2ILb0EPKsPsET1_T0_S4_S3_ @5088
    _ZSt14__copy_move_a2ILb0EPN2sf9VideoModeES2_ET1_T0_S4_S3_ @5089
    _ZSt14__copy_move_a2ILb0EPN4Json6Reader9ErrorInfoES3_ET1_T0_S5_S4_ @5090
    _ZSt14__copy_move_a2ILb0EPPKN4Json12PathArgumentES4_ET1_T0_S6_S5_ @5091
    _ZSt14__copy_move_a2ILb0EPPN2sf5EventES3_ET1_T0_S5_S4_ @5092
    _ZSt14__copy_move_a2ILb0EPPN4Json6Reader9ErrorInfoES4_ET1_T0_S6_S5_ @5093
    _ZSt14__copy_move_a2ILb0EPPPN4Json5ValueES4_ET1_T0_S6_S5_ @5094
    _ZSt14__copy_move_a2ILb0EPcS0_ET1_T0_S2_S1_ @5095
    _ZSt14__copy_move_a2ILb0EPhS0_ET1_T0_S2_S1_ @5096
    _ZSt14__copy_move_a2ILb0EPsS0_ET1_T0_S2_S1_ @5097
    _ZSt14__copy_move_a2ILb0ESt15_Deque_iteratorIN2sf5EventERKS2_PS3_ES0_IS2_RS2_PS2_EET1_T0_SB_SA_ @5098
    _ZSt14__copy_move_a2ILb0ESt15_Deque_iteratorIPN4Json5ValueERKS3_PS4_ES0_IS3_RS3_PS3_EET1_T0_SC_SB_ @5099
    _ZSt16__deque_buf_sizej @5100
    _ZSt16__insertion_sortIN9__gnu_cxx17__normal_iteratorIPN2sf9VideoModeESt6vectorIS3_SaIS3_EEEESt7greaterIS3_EEvT_SB_T0_ @5101
    _ZSt16__insertion_sortIP6b2PairPFbRKS0_S3_EEvT_S6_T0_ @5102
    _ZSt16__introsort_loopIN9__gnu_cxx17__normal_iteratorIPN2sf9VideoModeESt6vectorIS3_SaIS3_EEEEiSt7greaterIS3_EEvT_SB_T0_T1_ @5103
    _ZSt16__introsort_loopIP6b2PairiPFbRKS0_S3_EEvT_S6_T0_T1_ @5104
    _ZSt18uninitialized_copyIN9__gnu_cxx17__normal_iteratorIP6b2Vec2St6vectorIS2_SaIS2_EEEES3_ET0_T_S9_S8_ @5105
    _ZSt18uninitialized_copyIN9__gnu_cxx17__normal_iteratorIPKN2sf4Font3RowESt6vectorIS4_SaIS4_EEEEPS4_ET0_T_SD_SC_ @5106
    _ZSt18uninitialized_copyIN9__gnu_cxx17__normal_iteratorIPKN2sf9VideoModeESt6vectorIS3_SaIS3_EEEEPS3_ET0_T_SC_SB_ @5107
    _ZSt18uninitialized_copyIN9__gnu_cxx17__normal_iteratorIPKSsSt6vectorISsSaISsEEEEPSsET0_T_SA_S9_ @5108
    _ZSt18uninitialized_copyIN9__gnu_cxx17__normal_iteratorIPKhSt6vectorIhSaIhEEEEPhET0_T_SA_S9_ @5109
    _ZSt18uninitialized_copyIN9__gnu_cxx17__normal_iteratorIPKsSt6vectorIsSaIsEEEEPsET0_T_SA_S9_ @5110
    _ZSt18uninitialized_copyIP6b2Vec2S1_ET0_T_S3_S2_ @5111
    _ZSt18uninitialized_copyIPKsPsET0_T_S4_S3_ @5112
    _ZSt18uninitialized_copyIPN2sf4Font3RowES3_ET0_T_S5_S4_ @5113
    _ZSt18uninitialized_copyIPN2sf6VertexES2_ET0_T_S4_S3_ @5114
    _ZSt18uninitialized_copyIPN2sf9VideoModeES2_ET0_T_S4_S3_ @5115
    _ZSt18uninitialized_copyIPN4Json12PathArgumentES2_ET0_T_S4_S3_ @5116
    _ZSt18uninitialized_copyIPN6XeCore6Common6StringES3_ET0_T_S5_S4_ @5117
    _ZSt18uninitialized_copyIPPKN4Json12PathArgumentES4_ET0_T_S6_S5_ @5118
    _ZSt18uninitialized_copyIPSsS0_ET0_T_S2_S1_ @5119
    _ZSt18uninitialized_copyIPcS0_ET0_T_S2_S1_ @5120
    _ZSt18uninitialized_copyIPhS0_ET0_T_S2_S1_ @5121
    _ZSt18uninitialized_copyIPsS0_ET0_T_S2_S1_ @5122
    _ZSt18uninitialized_copyISt15_Deque_iteratorIN2sf5EventERKS2_PS3_ES0_IS2_RS2_PS2_EET0_T_SB_SA_ @5123
    _ZSt18uninitialized_copyISt15_Deque_iteratorIN4Json6Reader9ErrorInfoERS3_PS3_ES6_ET0_T_S8_S7_ @5124
    _ZSt18uninitialized_copyISt15_Deque_iteratorIPN4Json5ValueERKS3_PS4_ES0_IS3_RS3_PS3_EET0_T_SC_SB_ @5125
    _ZSt18uninitialized_fillISt15_Deque_iteratorIN4Json6Reader9ErrorInfoERS3_PS3_ES3_EvT_S7_RKT0_ @5126
    _ZSt19__iterator_categoryIN9__gnu_cxx17__normal_iteratorIP6b2Vec2St6vectorIS2_SaIS2_EEEEENSt15iterator_traitsIT_E17iterator_categoryERKS9_ @5127
    _ZSt19__iterator_categoryIN9__gnu_cxx17__normal_iteratorIPKN2sf9VideoModeESt6vectorIS3_SaIS3_EEEEENSt15iterator_traitsIT_E17iterator_categoryERKSB_ @5128
    _ZSt19__iterator_categoryIN9__gnu_cxx17__normal_iteratorIPN2sf9VideoModeESt6vectorIS3_SaIS3_EEEEENSt15iterator_traitsIT_E17iterator_categoryERKSA_ @5129
    _ZSt19__iterator_categoryIPKcENSt15iterator_traitsIT_E17iterator_categoryERKS3_ @5130
    _ZSt19__iterator_categoryIPKsENSt15iterator_traitsIT_E17iterator_categoryERKS3_ @5131
    _ZSt19__move_median_firstIN9__gnu_cxx17__normal_iteratorIPN2sf9VideoModeESt6vectorIS3_SaIS3_EEEESt7greaterIS3_EEvT_SB_SB_T0_ @5132
    _ZSt19__move_median_firstIP6b2PairPFbRKS0_S3_EEvT_S6_S6_T0_ @5133
    _ZSt20uninitialized_fill_nIP6b2Vec2jS0_EvT_T0_RKT1_ @5134
    _ZSt20uninitialized_fill_nIPN2sf6VertexEjS1_EvT_T0_RKT1_ @5135
    _ZSt20uninitialized_fill_nIPcjcEvT_T0_RKT1_ @5136
    _ZSt20uninitialized_fill_nIPhjhEvT_T0_RKT1_ @5137
    _ZSt20uninitialized_fill_nIPsjsEvT_T0_RKT1_ @5138
    _ZSt21__unguarded_partitionIN9__gnu_cxx17__normal_iteratorIPN2sf9VideoModeESt6vectorIS3_SaIS3_EEEES3_St7greaterIS3_EET_SB_SB_RKT0_T1_ @5139
    _ZSt21__unguarded_partitionIP6b2PairS0_PFbRKS0_S3_EET_S6_S6_RKT0_T1_ @5140
    _ZSt22__copy_move_backward_aILb0EP6b2PairS1_ET1_T0_S3_S2_ @5141
    _ZSt22__copy_move_backward_aILb0EP6b2Vec2S1_ET1_T0_S3_S2_ @5142
    _ZSt22__copy_move_backward_aILb0EPN2sf4Font3RowES3_ET1_T0_S5_S4_ @5143
    _ZSt22__copy_move_backward_aILb0EPN2sf6VertexES2_ET1_T0_S4_S3_ @5144
    _ZSt22__copy_move_backward_aILb0EPN2sf9VideoModeES2_ET1_T0_S4_S3_ @5145
    _ZSt22__copy_move_backward_aILb0EPN4Json12PathArgumentES2_ET1_T0_S4_S3_ @5146
    _ZSt22__copy_move_backward_aILb0EPN4Json6Reader9ErrorInfoES3_ET1_T0_S5_S4_ @5147
    _ZSt22__copy_move_backward_aILb0EPN6XeCore6Common6StringES3_ET1_T0_S5_S4_ @5148
    _ZSt22__copy_move_backward_aILb0EPPKN4Json12PathArgumentES4_ET1_T0_S6_S5_ @5149
    _ZSt22__copy_move_backward_aILb0EPPN2sf5EventES3_ET1_T0_S5_S4_ @5150
    _ZSt22__copy_move_backward_aILb0EPPN4Json6Reader9ErrorInfoES4_ET1_T0_S6_S5_ @5151
    _ZSt22__copy_move_backward_aILb0EPPPN4Json5ValueES4_ET1_T0_S6_S5_ @5152
    _ZSt22__copy_move_backward_aILb0EPSsS0_ET1_T0_S2_S1_ @5153
    _ZSt22__copy_move_backward_aILb0EPcS0_ET1_T0_S2_S1_ @5154
    _ZSt22__copy_move_backward_aILb0EPhS0_ET1_T0_S2_S1_ @5155
    _ZSt22__copy_move_backward_aILb0EPsS0_ET1_T0_S2_S1_ @5156
    _ZSt22__final_insertion_sortIN9__gnu_cxx17__normal_iteratorIPN2sf9VideoModeESt6vectorIS3_SaIS3_EEEESt7greaterIS3_EEvT_SB_T0_ @5157
    _ZSt22__final_insertion_sortIP6b2PairPFbRKS0_S3_EEvT_S6_T0_ @5158
    _ZSt22__uninitialized_copy_aIN9__gnu_cxx17__normal_iteratorIP6b2Vec2St6vectorIS2_SaIS2_EEEES3_S2_ET0_T_S9_S8_RSaIT1_E @5159
    _ZSt22__uninitialized_copy_aIN9__gnu_cxx17__normal_iteratorIPKN2sf4Font3RowESt6vectorIS4_SaIS4_EEEEPS4_S4_ET0_T_SD_SC_RSaIT1_E @5160
    _ZSt22__uninitialized_copy_aIN9__gnu_cxx17__normal_iteratorIPKN2sf9VideoModeESt6vectorIS3_SaIS3_EEEEPS3_S3_ET0_T_SC_SB_RSaIT1_E @5161
    _ZSt22__uninitialized_copy_aIN9__gnu_cxx17__normal_iteratorIPKSsSt6vectorISsSaISsEEEEPSsSsET0_T_SA_S9_RSaIT1_E @5162
    _ZSt22__uninitialized_copy_aIN9__gnu_cxx17__normal_iteratorIPKhSt6vectorIhSaIhEEEEPhhET0_T_SA_S9_RSaIT1_E @5163
    _ZSt22__uninitialized_copy_aIN9__gnu_cxx17__normal_iteratorIPKsSt6vectorIsSaIsEEEEPssET0_T_SA_S9_RSaIT1_E @5164
    _ZSt22__uninitialized_copy_aIP6b2Vec2S1_S0_ET0_T_S3_S2_RSaIT1_E @5165
    _ZSt22__uninitialized_copy_aIPKsPssET0_T_S4_S3_RSaIT1_E @5166
    _ZSt22__uninitialized_copy_aIPN2sf4Font3RowES3_S2_ET0_T_S5_S4_RSaIT1_E @5167
    _ZSt22__uninitialized_copy_aIPN2sf6VertexES2_S1_ET0_T_S4_S3_RSaIT1_E @5168
    _ZSt22__uninitialized_copy_aIPN2sf9VideoModeES2_S1_ET0_T_S4_S3_RSaIT1_E @5169
    _ZSt22__uninitialized_copy_aIPN4Json12PathArgumentES2_S1_ET0_T_S4_S3_RSaIT1_E @5170
    _ZSt22__uninitialized_copy_aIPN6XeCore6Common6StringES3_S2_ET0_T_S5_S4_RSaIT1_E @5171
    _ZSt22__uninitialized_copy_aIPPKN4Json12PathArgumentES4_S3_ET0_T_S6_S5_RSaIT1_E @5172
    _ZSt22__uninitialized_copy_aIPSsS0_SsET0_T_S2_S1_RSaIT1_E @5173
    _ZSt22__uninitialized_copy_aIPcS0_cET0_T_S2_S1_RSaIT1_E @5174
    _ZSt22__uninitialized_copy_aIPhS0_hET0_T_S2_S1_RSaIT1_E @5175
    _ZSt22__uninitialized_copy_aIPsS0_sET0_T_S2_S1_RSaIT1_E @5176
    _ZSt22__uninitialized_copy_aISt15_Deque_iteratorIN2sf5EventERKS2_PS3_ES0_IS2_RS2_PS2_ES2_ET0_T_SB_SA_RSaIT1_E @5177
    _ZSt22__uninitialized_copy_aISt15_Deque_iteratorIN4Json6Reader9ErrorInfoERS3_PS3_ES6_S3_ET0_T_S8_S7_RSaIT1_E @5178
    _ZSt22__uninitialized_copy_aISt15_Deque_iteratorIPN4Json5ValueERKS3_PS4_ES0_IS3_RS3_PS3_ES3_ET0_T_SC_SB_RSaIT1_E @5179
    _ZSt22__uninitialized_fill_aISt15_Deque_iteratorIN4Json6Reader9ErrorInfoERS3_PS3_ES3_S3_EvT_S7_RKT0_RSaIT1_E @5180
    _ZSt22__uninitialized_move_aIP6b2Vec2S1_SaIS0_EET0_T_S4_S3_RT1_ @5181
    _ZSt22__uninitialized_move_aIPN2sf6VertexES2_SaIS1_EET0_T_S5_S4_RT1_ @5182
    _ZSt22__uninitialized_move_aIPcS0_SaIcEET0_T_S3_S2_RT1_ @5183
    _ZSt22__uninitialized_move_aIPhS0_SaIhEET0_T_S3_S2_RT1_ @5184
    _ZSt22__uninitialized_move_aIPsS0_SaIsEET0_T_S3_S2_RT1_ @5185
    _ZSt22__uninitialized_move_aISt15_Deque_iteratorIN4Json6Reader9ErrorInfoERS3_PS3_ES6_SaIS3_EET0_T_S9_S8_RT1_ @5186
    _ZSt23__copy_move_backward_a2ILb0EN9__gnu_cxx17__normal_iteratorIPN2sf9VideoModeESt6vectorIS3_SaIS3_EEEES8_ET1_T0_SA_S9_ @5187
    _ZSt23__copy_move_backward_a2ILb0EP6b2PairS1_ET1_T0_S3_S2_ @5188
    _ZSt23__copy_move_backward_a2ILb0EP6b2Vec2S1_ET1_T0_S3_S2_ @5189
    _ZSt23__copy_move_backward_a2ILb0EPN2sf4Font3RowES3_ET1_T0_S5_S4_ @5190
    _ZSt23__copy_move_backward_a2ILb0EPN2sf6VertexES2_ET1_T0_S4_S3_ @5191
    _ZSt23__copy_move_backward_a2ILb0EPN2sf9VideoModeES2_ET1_T0_S4_S3_ @5192
    _ZSt23__copy_move_backward_a2ILb0EPN4Json12PathArgumentES2_ET1_T0_S4_S3_ @5193
    _ZSt23__copy_move_backward_a2ILb0EPN4Json6Reader9ErrorInfoES3_ET1_T0_S5_S4_ @5194
    _ZSt23__copy_move_backward_a2ILb0EPN6XeCore6Common6StringES3_ET1_T0_S5_S4_ @5195
    _ZSt23__copy_move_backward_a2ILb0EPPKN4Json12PathArgumentES4_ET1_T0_S6_S5_ @5196
    _ZSt23__copy_move_backward_a2ILb0EPPN2sf5EventES3_ET1_T0_S5_S4_ @5197
    _ZSt23__copy_move_backward_a2ILb0EPPN4Json6Reader9ErrorInfoES4_ET1_T0_S6_S5_ @5198
    _ZSt23__copy_move_backward_a2ILb0EPPPN4Json5ValueES4_ET1_T0_S6_S5_ @5199
    _ZSt23__copy_move_backward_a2ILb0EPSsS0_ET1_T0_S2_S1_ @5200
    _ZSt23__copy_move_backward_a2ILb0EPcS0_ET1_T0_S2_S1_ @5201
    _ZSt23__copy_move_backward_a2ILb0EPhS0_ET1_T0_S2_S1_ @5202
    _ZSt23__copy_move_backward_a2ILb0EPsS0_ET1_T0_S2_S1_ @5203
    _ZSt23lexicographical_compareISt23_Rb_tree_const_iteratorISt4pairIKN4Json5Value8CZStringES3_EES7_EbT_S8_T0_S9_ @5204
    _ZSt24__uninitialized_fill_n_aIP6b2Vec2jS0_S0_EvT_T0_RKT1_RSaIT2_E @5205
    _ZSt24__uninitialized_fill_n_aIPN2sf6VertexEjS1_S1_EvT_T0_RKT1_RSaIT2_E @5206
    _ZSt24__uninitialized_fill_n_aIPcjccEvT_T0_RKT1_RSaIT2_E @5207
    _ZSt24__uninitialized_fill_n_aIPhjhhEvT_T0_RKT1_RSaIT2_E @5208
    _ZSt24__uninitialized_fill_n_aIPsjssEvT_T0_RKT1_RSaIT2_E @5209
    _ZSt25__unguarded_linear_insertIN9__gnu_cxx17__normal_iteratorIPN2sf9VideoModeESt6vectorIS3_SaIS3_EEEESt7greaterIS3_EEvT_T0_ @5210
    _ZSt25__unguarded_linear_insertIP6b2PairPFbRKS0_S3_EEvT_T0_ @5211
    _ZSt25__uninitialized_fill_moveISt15_Deque_iteratorIN4Json6Reader9ErrorInfoERS3_PS3_ES3_S6_SaIS3_EET_S8_S8_RKT0_T1_SC_RT2_ @5212
    _ZSt25__uninitialized_move_fillISt15_Deque_iteratorIN4Json6Reader9ErrorInfoERS3_PS3_ES6_S3_SaIS3_EEvT_S8_T0_S9_RKT1_RT2_ @5213
    _ZSt26__unguarded_insertion_sortIN9__gnu_cxx17__normal_iteratorIPN2sf9VideoModeESt6vectorIS3_SaIS3_EEEESt7greaterIS3_EEvT_SB_T0_ @5214
    _ZSt26__unguarded_insertion_sortIP6b2PairPFbRKS0_S3_EEvT_S6_T0_ @5215
    _ZSt27__unguarded_partition_pivotIN9__gnu_cxx17__normal_iteratorIPN2sf9VideoModeESt6vectorIS3_SaIS3_EEEESt7greaterIS3_EET_SB_SB_T0_ @5216
    _ZSt27__unguarded_partition_pivotIP6b2PairPFbRKS0_S3_EET_S6_S6_T0_ @5217
    _ZSt29__lexicographical_compare_auxISt23_Rb_tree_const_iteratorISt4pairIKN4Json5Value8CZStringES3_EES7_EbT_S8_T0_S9_ @5218
    _ZSt34__uninitialized_move_if_noexcept_aIP6b2Vec2S1_SaIS0_EET0_T_S4_S3_RT1_ @5219
    _ZSt34__uninitialized_move_if_noexcept_aIPN2sf4Font3RowES3_SaIS2_EET0_T_S6_S5_RT1_ @5220
    _ZSt34__uninitialized_move_if_noexcept_aIPN2sf6VertexES2_SaIS1_EET0_T_S5_S4_RT1_ @5221
    _ZSt34__uninitialized_move_if_noexcept_aIPN2sf9VideoModeES2_SaIS1_EET0_T_S5_S4_RT1_ @5222
    _ZSt34__uninitialized_move_if_noexcept_aIPN4Json12PathArgumentES2_SaIS1_EET0_T_S5_S4_RT1_ @5223
    _ZSt34__uninitialized_move_if_noexcept_aIPN6XeCore6Common6StringES3_SaIS2_EET0_T_S6_S5_RT1_ @5224
    _ZSt34__uninitialized_move_if_noexcept_aIPPKN4Json12PathArgumentES4_SaIS3_EET0_T_S7_S6_RT1_ @5225
    _ZSt34__uninitialized_move_if_noexcept_aIPSsS0_SaISsEET0_T_S3_S2_RT1_ @5226
    _ZSt34__uninitialized_move_if_noexcept_aIPcS0_SaIcEET0_T_S3_S2_RT1_ @5227
    _ZSt34__uninitialized_move_if_noexcept_aIPhS0_SaIhEET0_T_S3_S2_RT1_ @5228
    _ZSt34__uninitialized_move_if_noexcept_aIPsS0_SaIsEET0_T_S3_S2_RT1_ @5229
    _ZSt3cosf @5230
    _ZSt3hexRSt8ios_base @5231
    _ZSt3maxIiERKT_S2_S2_ @5232
    _ZSt3maxIjERKT_S2_S2_ @5233
    _ZSt3minIiERKT_S2_S2_ @5234
    _ZSt3minIjERKT_S2_S2_ @5235
    _ZSt3sinf @5236
    _ZSt4__lgi @5237
    _ZSt4copyIN4Json6Reader9ErrorInfoEESt15_Deque_iteratorIT_RS4_PS4_ES3_IS4_RKS4_PS8_ESB_S7_ @5238
    _ZSt4copyIN4Json6Reader9ErrorInfoEESt15_Deque_iteratorIT_RS4_PS4_ES7_S7_S7_ @5239
    _ZSt4copyIN9__gnu_cxx17__normal_iteratorIP6b2Vec2St6vectorIS2_SaIS2_EEEES3_ET0_T_S9_S8_ @5240
    _ZSt4copyIN9__gnu_cxx17__normal_iteratorIPKN2sf9VideoModeESt6vectorIS3_SaIS3_EEEENS1_IPS3_S8_EEET0_T_SD_SC_ @5241
    _ZSt4copyIN9__gnu_cxx17__normal_iteratorIPKhSt6vectorIhSaIhEEEEPhET0_T_SA_S9_ @5242
    _ZSt4copyIN9__gnu_cxx17__normal_iteratorIPKsSt6vectorIsSaIsEEEEPsET0_T_SA_S9_ @5243
    _ZSt4copyIPKjPjET0_T_S4_S3_ @5244
    _ZSt4copyIPKsPsET0_T_S4_S3_ @5245
    _ZSt4copyIPN2sf9VideoModeES2_ET0_T_S4_S3_ @5246
    _ZSt4copyIPN4Json6Reader9ErrorInfoES3_ET0_T_S5_S4_ @5247
    _ZSt4copyIPPKN4Json12PathArgumentES4_ET0_T_S6_S5_ @5248
    _ZSt4copyIPPN2sf5EventES3_ET0_T_S5_S4_ @5249
    _ZSt4copyIPPN4Json6Reader9ErrorInfoES4_ET0_T_S6_S5_ @5250
    _ZSt4copyIPPPN4Json5ValueES4_ET0_T_S6_S5_ @5251
    _ZSt4copyIPcS0_ET0_T_S2_S1_ @5252
    _ZSt4copyIPhS0_ET0_T_S2_S1_ @5253
    _ZSt4copyIPsS0_ET0_T_S2_S1_ @5254
    _ZSt4copyISt15_Deque_iteratorIN2sf5EventERKS2_PS3_ES0_IS2_RS2_PS2_EET0_T_SB_SA_ @5255
    _ZSt4copyISt15_Deque_iteratorIPN4Json5ValueERKS3_PS4_ES0_IS3_RS3_PS3_EET0_T_SC_SB_ @5256
    _ZSt4fillIN4Json6Reader9ErrorInfoEEvRKSt15_Deque_iteratorIT_RS4_PS4_ES9_RKS4_ @5257
    _ZSt4fillIP6b2Vec2S0_EvT_S2_RKT0_ @5258
    _ZSt4fillIPN2sf6VertexES1_EvT_S3_RKT0_ @5259
    _ZSt4fillIPN4Json6Reader9ErrorInfoES2_EvT_S4_RKT0_ @5260
    _ZSt4fillIPbbEvT_S1_RKT0_ @5261
    _ZSt4fillIPccEvT_S1_RKT0_ @5262
    _ZSt4fillIPffEvT_S1_RKT0_ @5263
    _ZSt4fillIPhhEvT_S1_RKT0_ @5264
    _ZSt4fillIPssEvT_S1_RKT0_ @5265
    _ZSt4findIN9__gnu_cxx17__normal_iteratorIPKN2sf9VideoModeESt6vectorIS3_SaIS3_EEEES3_ET_SA_SA_RKT0_ @5266
    _ZSt4findIN9__gnu_cxx17__normal_iteratorIPN2sf9VideoModeESt6vectorIS3_SaIS3_EEEES3_ET_S9_S9_RKT0_ @5267
    _ZSt4setwi @5268
    _ZSt4sortIN9__gnu_cxx17__normal_iteratorIPN2sf9VideoModeESt6vectorIS3_SaIS3_EEEESt7greaterIS3_EEvT_SB_T0_ @5269
    _ZSt4sortIP6b2PairPFbRKS0_S3_EEvT_S6_T0_ @5270
    _ZSt4sqrtf @5271
    _ZSt4swapI6b2PairEvRT_S2_ @5272
    _ZSt4swapIN2sf4TimeEEvRT_S3_ @5273
    _ZSt4swapIN2sf7Vector2IjEEEvRT_S4_ @5274
    _ZSt4swapIN2sf9VideoModeEEvRT_S3_ @5275
    _ZSt4swapIN4Json5Value11ValueHolderEEvRT_S4_ @5276
    _ZSt4swapIPKcEvRT_S3_ @5277
    _ZSt4swapIPN2sf5SoundESt4lessIS2_ESaIS2_EEvRSt3setIT_T0_T1_ESB_ @5278
    _ZSt4swapIPSt18_Rb_tree_node_baseEvRT_S3_ @5279
    _ZSt4swapIPhEvRT_S2_ @5280
    _ZSt4swapIPiEvRT_S2_ @5281
    _ZSt4swapIPsEvRT_S2_ @5282
    _ZSt4swapIPvEvRT_S2_ @5283
    _ZSt4swapISt4lessIPN2sf5SoundEEEvRT_S6_ @5284
    _ZSt4swapISt4lessIjEEvRT_S3_ @5285
    _ZSt4swapIbEvRT_S1_ @5286
    _ZSt4swapIhSaIhEEvRSt6vectorIT_T0_ES5_ @5287
    _ZSt4swapIiEvRT_S1_ @5288
    _ZSt4swapIjEvRT_S1_ @5289
    _ZSt4swapIjN2sf4Font4PageESt4lessIjESaISt4pairIKjS2_EEEvRSt3mapIT_T0_T1_T2_ESF_ @5290
    _ZSt4swapIsSaIsEEvRSt6vectorIT_T0_ES5_ @5291
    _ZSt5equalISt23_Rb_tree_const_iteratorISt4pairIKN4Json5Value8CZStringES3_EES7_EbT_S8_T0_ @5292
    _ZSt6__findIN9__gnu_cxx17__normal_iteratorIPKN2sf9VideoModeESt6vectorIS3_SaIS3_EEEES3_ET_SA_SA_RKT0_St26random_access_iterator_tag @5293
    _ZSt6__findIN9__gnu_cxx17__normal_iteratorIPN2sf9VideoModeESt6vectorIS3_SaIS3_EEEES3_ET_S9_S9_RKT0_St26random_access_iterator_tag @5294
    _ZSt6fill_nIPcjcET_S1_T0_RKT1_ @5295
    _ZSt6fill_nIPhjhET_S1_T0_RKT1_ @5296
    _ZSt6fill_nIPjjjET_S1_T0_RKT1_ @5297
    _ZSt6fill_nIPsjsET_S1_T0_RKT1_ @5298
    _ZSt7advanceIN9__gnu_cxx17__normal_iteratorIP6b2Vec2St6vectorIS2_SaIS2_EEEEjEvRT_T0_ @5299
    _ZSt7advanceIPKsjEvRT_T0_ @5300
    _ZSt7setfillIcESt8_SetfillIT_ES1_ @5301
    _ZSt8_DestroyIN4Json12PathArgumentEEvPT_ @5302
    _ZSt8_DestroyIN4Json6Reader9ErrorInfoEEvPT_ @5303
    _ZSt8_DestroyIN6XeCore6Common6StringEEvPT_ @5304
    _ZSt8_DestroyIN9__gnu_cxx17__normal_iteratorIPN2sf9VideoModeESt6vectorIS3_SaIS3_EEEEEvT_S9_ @5305
    _ZSt8_DestroyIN9__gnu_cxx17__normal_iteratorIPN2sf9VideoModeESt6vectorIS3_SaIS3_EEEES3_EvT_S9_RSaIT0_E @5306
    _ZSt8_DestroyIP6b2Vec2EvT_S2_ @5307
    _ZSt8_DestroyIP6b2Vec2S0_EvT_S2_RSaIT0_E @5308
    _ZSt8_DestroyIPN2sf4Font3RowEEvT_S4_ @5309
    _ZSt8_DestroyIPN2sf4Font3RowES2_EvT_S4_RSaIT0_E @5310
    _ZSt8_DestroyIPN2sf6VertexEEvT_S3_ @5311
    _ZSt8_DestroyIPN2sf6VertexES1_EvT_S3_RSaIT0_E @5312
    _ZSt8_DestroyIPN2sf9VideoModeEEvT_S3_ @5313
    _ZSt8_DestroyIPN2sf9VideoModeES1_EvT_S3_RSaIT0_E @5314
    _ZSt8_DestroyIPN4Json12PathArgumentEEvT_S3_ @5315
    _ZSt8_DestroyIPN4Json12PathArgumentES1_EvT_S3_RSaIT0_E @5316
    _ZSt8_DestroyIPN4Json6Reader9ErrorInfoEEvT_S4_ @5317
    _ZSt8_DestroyIPN4Json6Reader9ErrorInfoES2_EvT_S4_RSaIT0_E @5318
    _ZSt8_DestroyIPN6XeCore6Common6StringEEvT_S4_ @5319
    _ZSt8_DestroyIPN6XeCore6Common6StringES2_EvT_S4_RSaIT0_E @5320
    _ZSt8_DestroyIPPKN4Json12PathArgumentEEvT_S5_ @5321
    _ZSt8_DestroyIPPKN4Json12PathArgumentES3_EvT_S5_RSaIT0_E @5322
    _ZSt8_DestroyIPSsEvT_S1_ @5323
    _ZSt8_DestroyIPSsSsEvT_S1_RSaIT0_E @5324
    _ZSt8_DestroyIPcEvT_S1_ @5325
    _ZSt8_DestroyIPccEvT_S1_RSaIT0_E @5326
    _ZSt8_DestroyIPhEvT_S1_ @5327
    _ZSt8_DestroyIPhhEvT_S1_RSaIT0_E @5328
    _ZSt8_DestroyIPsEvT_S1_ @5329
    _ZSt8_DestroyIPssEvT_S1_RSaIT0_E @5330
    _ZSt8_DestroyISsEvPT_ @5331
    _ZSt8_DestroyISt15_Deque_iteratorIN4Json6Reader9ErrorInfoERS3_PS3_EEvT_S7_ @5332
    _ZSt8_DestroyISt15_Deque_iteratorIN4Json6Reader9ErrorInfoERS3_PS3_ES3_EvT_S7_RSaIT0_E @5333
    _ZSt8__fill_aIP6b2Vec2S0_EN9__gnu_cxx11__enable_ifIXntsrSt11__is_scalarIT0_E7__valueEvE6__typeET_S9_RKS5_ @5334
    _ZSt8__fill_aIPN2sf6VertexES1_EN9__gnu_cxx11__enable_ifIXntsrSt11__is_scalarIT0_E7__valueEvE6__typeET_SA_RKS6_ @5335
    _ZSt8__fill_aIPN4Json6Reader9ErrorInfoES2_EN9__gnu_cxx11__enable_ifIXntsrSt11__is_scalarIT0_E7__valueEvE6__typeET_SB_RKS7_ @5336
    _ZSt8__fill_aIPbbEN9__gnu_cxx11__enable_ifIXsrSt11__is_scalarIT0_E7__valueEvE6__typeET_S8_RKS4_ @5337
    _ZSt8__fill_aIPffEN9__gnu_cxx11__enable_ifIXsrSt11__is_scalarIT0_E7__valueEvE6__typeET_S8_RKS4_ @5338
    _ZSt8__fill_aIPssEN9__gnu_cxx11__enable_ifIXsrSt11__is_scalarIT0_E7__valueEvE6__typeET_S8_RKS4_ @5339
    _ZSt8__fill_aIcEN9__gnu_cxx11__enable_ifIXsrSt9__is_byteIT_E7__valueEvE6__typeEPS3_S7_RKS3_ @5340
    _ZSt8__fill_aIhEN9__gnu_cxx11__enable_ifIXsrSt9__is_byteIT_E7__valueEvE6__typeEPS3_S7_RKS3_ @5341
    _ZSt8distanceIN9__gnu_cxx17__normal_iteratorIP6b2Vec2St6vectorIS2_SaIS2_EEEEENSt15iterator_traitsIT_E15difference_typeES9_S9_ @5342
    _ZSt8distanceIPKcENSt15iterator_traitsIT_E15difference_typeES3_S3_ @5343
    _ZSt8distanceIPKsENSt15iterator_traitsIT_E15difference_typeES3_S3_ @5344
    _ZSt9__advanceIN9__gnu_cxx17__normal_iteratorIP6b2Vec2St6vectorIS2_SaIS2_EEEEiEvRT_T0_St26random_access_iterator_tag @5345
    _ZSt9__advanceIPKsiEvRT_T0_St26random_access_iterator_tag @5346
    _ZSt9iter_swapIN9__gnu_cxx17__normal_iteratorIPN2sf9VideoModeESt6vectorIS3_SaIS3_EEEES8_EvT_T0_ @5347
    _ZSt9iter_swapIP6b2PairS1_EvT_T0_ @5348
    _ZSt9make_heapIN9__gnu_cxx17__normal_iteratorIPN2sf9VideoModeESt6vectorIS3_SaIS3_EEEESt7greaterIS3_EEvT_SB_T0_ @5349
    _ZSt9make_heapIP6b2PairPFbRKS0_S3_EEvT_S6_T0_ @5350
    _ZSt9make_pairISsiESt4pairIT_T0_ES1_S2_ @5351
    _ZSt9make_pairIjN2sf5GlyphEESt4pairIT_T0_ES3_S4_ @5352
    _ZSt9sort_heapIN9__gnu_cxx17__normal_iteratorIPN2sf9VideoModeESt6vectorIS3_SaIS3_EEEESt7greaterIS3_EEvT_SB_T0_ @5353
    _ZSt9sort_heapIP6b2PairPFbRKS0_S3_EEvT_S6_T0_ @5354
    _ZSt9uppercaseRSt8ios_base @5355
    _ZStaNRSt13_Ios_FmtflagsS_ @5356
    _ZStanSt13_Ios_FmtflagsS_ @5357
    _ZStcoSt13_Ios_Fmtflags @5358
    _ZSteqIKN4Json5Value8CZStringES1_EbRKSt4pairIT_T0_ES9_ @5359
    _ZSteqIN2sf5EventERS1_PS1_EbRKSt15_Deque_iteratorIT_T0_T1_ESA_ @5360
    _ZSteqIN4Json5Value8CZStringES1_St4lessIS2_ESaISt4pairIKS2_S1_EEEbRKSt3mapIT_T0_T1_T2_ESG_ @5361
    _ZSteqIN4Json5Value8CZStringESt4pairIKS2_S1_ESt10_Select1stIS5_ESt4lessIS2_ESaIS5_EEbRKSt8_Rb_treeIT_T0_T1_T2_T3_ESJ_ @5362
    _ZSteqIN4Json6Reader9ErrorInfoERKS2_PS3_EbRKSt15_Deque_iteratorIT_T0_T1_ESC_ @5363
    _ZSteqIN4Json6Reader9ErrorInfoERS2_PS2_EbRKSt15_Deque_iteratorIT_T0_T1_ESB_ @5364
    _ZSteqIPN4Json5ValueERS2_PS2_EbRKSt15_Deque_iteratorIT_T0_T1_ESB_ @5365
    _ZSteqIcEN9__gnu_cxx11__enable_ifIXsrSt9__is_charIT_E7__valueEbE6__typeERKSbIS3_St11char_traitsIS3_ESaIS3_EESC_ @5366
    _ZSteqIcSt11char_traitsIcESaIcEEbRKSbIT_T0_T1_EPKS3_ @5367
    _ZSteqIjEbRKSaIT_ES3_ @5368
    _ZSteqIjSt11char_traitsIjESaIjEEbRKSbIT_T0_T1_ES8_ @5369
    _ZStltIKN4Json5Value8CZStringES1_EbRKSt4pairIT_T0_ES9_ @5370
    _ZStltIN4Json5Value8CZStringES1_St4lessIS2_ESaISt4pairIKS2_S1_EEEbRKSt3mapIT_T0_T1_T2_ESG_ @5371
    _ZStltIN4Json5Value8CZStringESt4pairIKS2_S1_ESt10_Select1stIS5_ESt4lessIS2_ESaIS5_EEbRKSt8_Rb_treeIT_T0_T1_T2_T3_ESJ_ @5372
    _ZStltIcSt11char_traitsIcESaIcEEbRKSbIT_T0_T1_ES8_ @5373
    _ZStltIjSt11char_traitsIjESaIjEEbRKSbIT_T0_T1_ES8_ @5374
    _ZStmiIN2sf5EventERKS1_PS2_ENSt15_Deque_iteratorIT_T0_T1_E15difference_typeERKS9_SC_ @5375
    _ZStmiIN2sf5EventERS1_PS1_ENSt15_Deque_iteratorIT_T0_T1_E15difference_typeERKS8_SB_ @5376
    _ZStmiIN4Json6Reader9ErrorInfoERKS2_PS3_ENSt15_Deque_iteratorIT_T0_T1_E15difference_typeERKSA_SD_ @5377
    _ZStmiIN4Json6Reader9ErrorInfoERS2_PS2_ENSt15_Deque_iteratorIT_T0_T1_E15difference_typeERKS9_SC_ @5378
    _ZStmiIPN4Json5ValueERKS2_PS3_ENSt15_Deque_iteratorIT_T0_T1_E15difference_typeERKSA_SD_ @5379
    _ZStmiIPN4Json5ValueERS2_PS2_ENSt15_Deque_iteratorIT_T0_T1_E15difference_typeERKS9_SC_ @5380
    _ZStneIN4Json6Reader9ErrorInfoERKS2_PS3_EbRKSt15_Deque_iteratorIT_T0_T1_ESC_ @5381
    _ZStneIN4Json6Reader9ErrorInfoERS2_PS2_EbRKSt15_Deque_iteratorIT_T0_T1_ESB_ @5382
    _ZStoRRSt13_Ios_FmtflagsS_ @5383
    _ZStorSt13_Ios_FmtflagsS_ @5384
    _ZStorSt13_Ios_OpenmodeS_ @5385
    _ZStplIcSt11char_traitsIcESaIcEESbIT_T0_T1_EPKS3_RKS6_ @5386
    _ZStplIcSt11char_traitsIcESaIcEESbIT_T0_T1_ERKS6_PKS3_ @5387
    _ZStplIcSt11char_traitsIcESaIcEESbIT_T0_T1_ERKS6_S8_ @5388
    _ZTCN9Ptakopysk10GameObjectE0_NS_10SerializedE @5389 DATA
    _ZTCN9Ptakopysk12TextRendererE0_NS_10SerializedE @5390 DATA
    _ZTCN9Ptakopysk12TextRendererE0_NS_9ComponentE @5391 DATA
    _ZTCN9Ptakopysk14SpriteRendererE0_NS_10SerializedE @5392 DATA
    _ZTCN9Ptakopysk14SpriteRendererE0_NS_9ComponentE @5393 DATA
    _ZTCN9Ptakopysk15ContactListenerE20_N6XeCore6Common13MemoryManagerE @5394 DATA
    _ZTCN9Ptakopysk19DestructionListenerE20_N6XeCore6Common13MemoryManagerE @5395 DATA
    _ZTCN9Ptakopysk4BodyE0_NS_10SerializedE @5396 DATA
    _ZTCN9Ptakopysk4BodyE0_NS_9ComponentE @5397 DATA
    _ZTCN9Ptakopysk6CameraE0_NS_10SerializedE @5398 DATA
    _ZTCN9Ptakopysk6CameraE0_NS_9ComponentE @5399 DATA
    _ZTCN9Ptakopysk9ComponentE0_NS_10SerializedE @5400 DATA
    _ZTCN9Ptakopysk9TransformE0_NS_10SerializedE @5401 DATA
    _ZTCN9Ptakopysk9TransformE0_NS_9ComponentE @5402 DATA
    _ZTI11b2EdgeShape @5403 DATA
    _ZTI11b2GearJoint @5404 DATA
    _ZTI11b2RopeJoint @5405 DATA
    _ZTI11b2WeldJoint @5406 DATA
    _ZTI12b2ChainShape @5407 DATA
    _ZTI12b2MouseJoint @5408 DATA
    _ZTI12b2WheelJoint @5409 DATA
    _ZTI13b2PulleyJoint @5410 DATA
    _ZTI14b2PolygonShape @5411 DATA
    _ZTI15b2CircleContact @5412 DATA
    _ZTI15b2ContactFilter @5413 DATA
    _ZTI15b2DistanceJoint @5414 DATA
    _ZTI15b2FrictionJoint @5415 DATA
    _ZTI15b2RevoluteJoint @5416 DATA
    _ZTI16b2PolygonContact @5417 DATA
    _ZTI16b2PrismaticJoint @5418 DATA
    _ZTI17b2ContactListener @5419 DATA
    _ZTI21b2DestructionListener @5420 DATA
    _ZTI22b2EdgeAndCircleContact @5421 DATA
    _ZTI23b2ChainAndCircleContact @5422 DATA
    _ZTI23b2EdgeAndPolygonContact @5423 DATA
    _ZTI24b2ChainAndPolygonContact @5424 DATA
    _ZTI25b2PolygonAndCircleContact @5425 DATA
    _ZTI6b2Draw @5426 DATA
    _ZTI7b2Joint @5427 DATA
    _ZTI7b2Shape @5428 DATA
    _ZTI9b2Contact @5429 DATA
    _ZTIN2sf10GlResourceE @5430 DATA
    _ZTIN2sf11NonCopyableE @5431 DATA
    _ZTIN2sf11SoundSourceE @5432 DATA
    _ZTIN2sf11SoundStreamE @5433 DATA
    _ZTIN2sf11VertexArrayE @5434 DATA
    _ZTIN2sf12RenderTargetE @5435 DATA
    _ZTIN2sf13TransformableE @5436 DATA
    _ZTIN2sf14RectangleShapeE @5437 DATA
    _ZTIN2sf4TextE @5438 DATA
    _ZTIN2sf4priv10ThreadFuncE @5439 DATA
    _ZTIN2sf4priv10WglContextE @5440 DATA
    _ZTIN2sf4priv10WindowImplE @5441 DATA
    _ZTIN2sf4priv15WindowImplWin32E @5442 DATA
    _ZTIN2sf4priv16ThreadMemberFuncINS_11SoundStreamEEE @5443 DATA
    _ZTIN2sf4priv9GlContextE @5444 DATA
    _ZTIN2sf5MusicE @5445 DATA
    _ZTIN2sf5ShapeE @5446 DATA
    _ZTIN2sf5SoundE @5447 DATA
    _ZTIN2sf6WindowE @5448 DATA
    _ZTIN2sf8DrawableE @5449 DATA
    _ZTIN4Json10FastWriterE @5450 DATA
    _ZTIN4Json12StyledWriterE @5451 DATA
    _ZTIN4Json14ValueAllocatorE @5452 DATA
    _ZTIN4Json21DefaultValueAllocatorE @5453 DATA
    _ZTIN4Json6WriterE @5454 DATA
    _ZTIN6XeCore6Common13MemoryManager10ManageableE @5455 DATA
    _ZTIN6XeCore6Common13MemoryManagerE @5456 DATA
    _ZTIN6XeCore6Common5IRttiE @5457 DATA
    _ZTIN6XeCore6Common6LoggerE @5458 DATA
    _ZTIN6XeCore6Common6StringE @5459 DATA
    _ZTIN6XeCore6Common9SingletonIN9Ptakopysk6AssetsEEE @5460 DATA
    _ZTIN6XeCore6Common9SingletonIN9Ptakopysk6EventsEEE @5461 DATA
    _ZTIN6XeCore6Common9SingletonINS0_13MemoryManagerEEE @5462 DATA
    _ZTIN6XeCore6Common9SingletonINS0_6LoggerEEE @5463 DATA
    _ZTIN9Ptakopysk10GameObjectE @5464 DATA
    _ZTIN9Ptakopysk10Serialized17ICustomSerializerE @5465 DATA
    _ZTIN9Ptakopysk10SerializedE @5466 DATA
    _ZTIN9Ptakopysk11GameManagerE @5467 DATA
    _ZTIN9Ptakopysk12TextRendererE @5468 DATA
    _ZTIN9Ptakopysk14EnumSerializerE @5469 DATA
    _ZTIN9Ptakopysk14SpriteRendererE @5470 DATA
    _ZTIN9Ptakopysk15ContactListenerE @5471 DATA
    _ZTIN9Ptakopysk15StyleSerializerE @5472 DATA
    _ZTIN9Ptakopysk18BitFieldSerializerE @5473 DATA
    _ZTIN9Ptakopysk19BlendModeSerializerE @5474 DATA
    _ZTIN9Ptakopysk19DestructionListenerE @5475 DATA
    _ZTIN9Ptakopysk20b2BodyTypeSerializerE @5476 DATA
    _ZTIN9Ptakopysk4BodyE @5477 DATA
    _ZTIN9Ptakopysk6AssetsE @5478 DATA
    _ZTIN9Ptakopysk6CameraE @5479 DATA
    _ZTIN9Ptakopysk6EventsE @5480 DATA
    _ZTIN9Ptakopysk9ComponentE @5481 DATA
    _ZTIN9Ptakopysk9TransformE @5482 DATA
    _ZTISs @5483 DATA
    _ZTISt13runtime_error @5484 DATA
    _ZTISt9exception @5485 DATA
    _ZTS11b2EdgeShape @5486 DATA
    _ZTS11b2GearJoint @5487 DATA
    _ZTS11b2RopeJoint @5488 DATA
    _ZTS11b2WeldJoint @5489 DATA
    _ZTS12b2ChainShape @5490 DATA
    _ZTS12b2MouseJoint @5491 DATA
    _ZTS12b2WheelJoint @5492 DATA
    _ZTS13b2PulleyJoint @5493 DATA
    _ZTS14b2PolygonShape @5494 DATA
    _ZTS15b2CircleContact @5495 DATA
    _ZTS15b2ContactFilter @5496 DATA
    _ZTS15b2DistanceJoint @5497 DATA
    _ZTS15b2FrictionJoint @5498 DATA
    _ZTS15b2RevoluteJoint @5499 DATA
    _ZTS16b2PolygonContact @5500 DATA
    _ZTS16b2PrismaticJoint @5501 DATA
    _ZTS17b2ContactListener @5502 DATA
    _ZTS21b2DestructionListener @5503 DATA
    _ZTS22b2EdgeAndCircleContact @5504 DATA
    _ZTS23b2ChainAndCircleContact @5505 DATA
    _ZTS23b2EdgeAndPolygonContact @5506 DATA
    _ZTS24b2ChainAndPolygonContact @5507 DATA
    _ZTS25b2PolygonAndCircleContact @5508 DATA
    _ZTS6b2Draw @5509 DATA
    _ZTS7b2Joint @5510 DATA
    _ZTS7b2Shape @5511 DATA
    _ZTS9b2Contact @5512 DATA
    _ZTSN2sf10GlResourceE @5513 DATA
    _ZTSN2sf11NonCopyableE @5514 DATA
    _ZTSN2sf11SoundSourceE @5515 DATA
    _ZTSN2sf11SoundStreamE @5516 DATA
    _ZTSN2sf11VertexArrayE @5517 DATA
    _ZTSN2sf12RenderTargetE @5518 DATA
    _ZTSN2sf13TransformableE @5519 DATA
    _ZTSN2sf14RectangleShapeE @5520 DATA
    _ZTSN2sf4TextE @5521 DATA
    _ZTSN2sf4priv10ThreadFuncE @5522 DATA
    _ZTSN2sf4priv10WglContextE @5523 DATA
    _ZTSN2sf4priv10WindowImplE @5524 DATA
    _ZTSN2sf4priv15WindowImplWin32E @5525 DATA
    _ZTSN2sf4priv16ThreadMemberFuncINS_11SoundStreamEEE @5526 DATA
    _ZTSN2sf4priv9GlContextE @5527 DATA
    _ZTSN2sf5MusicE @5528 DATA
    _ZTSN2sf5ShapeE @5529 DATA
    _ZTSN2sf5SoundE @5530 DATA
    _ZTSN2sf6WindowE @5531 DATA
    _ZTSN2sf8DrawableE @5532 DATA
    _ZTSN4Json10FastWriterE @5533 DATA
    _ZTSN4Json12StyledWriterE @5534 DATA
    _ZTSN4Json14ValueAllocatorE @5535 DATA
    _ZTSN4Json21DefaultValueAllocatorE @5536 DATA
    _ZTSN4Json6WriterE @5537 DATA
    _ZTSN6XeCore6Common13MemoryManager10ManageableE @5538 DATA
    _ZTSN6XeCore6Common13MemoryManagerE @5539 DATA
    _ZTSN6XeCore6Common5IRttiE @5540 DATA
    _ZTSN6XeCore6Common6LoggerE @5541 DATA
    _ZTSN6XeCore6Common6StringE @5542 DATA
    _ZTSN6XeCore6Common9SingletonIN9Ptakopysk6AssetsEEE @5543 DATA
    _ZTSN6XeCore6Common9SingletonIN9Ptakopysk6EventsEEE @5544 DATA
    _ZTSN6XeCore6Common9SingletonINS0_13MemoryManagerEEE @5545 DATA
    _ZTSN6XeCore6Common9SingletonINS0_6LoggerEEE @5546 DATA
    _ZTSN9Ptakopysk10GameObjectE @5547 DATA
    _ZTSN9Ptakopysk10Serialized17ICustomSerializerE @5548 DATA
    _ZTSN9Ptakopysk10SerializedE @5549 DATA
    _ZTSN9Ptakopysk11GameManagerE @5550 DATA
    _ZTSN9Ptakopysk12TextRendererE @5551 DATA
    _ZTSN9Ptakopysk14EnumSerializerE @5552 DATA
    _ZTSN9Ptakopysk14SpriteRendererE @5553 DATA
    _ZTSN9Ptakopysk15ContactListenerE @5554 DATA
    _ZTSN9Ptakopysk15StyleSerializerE @5555 DATA
    _ZTSN9Ptakopysk18BitFieldSerializerE @5556 DATA
    _ZTSN9Ptakopysk19BlendModeSerializerE @5557 DATA
    _ZTSN9Ptakopysk19DestructionListenerE @5558 DATA
    _ZTSN9Ptakopysk20b2BodyTypeSerializerE @5559 DATA
    _ZTSN9Ptakopysk4BodyE @5560 DATA
    _ZTSN9Ptakopysk6AssetsE @5561 DATA
    _ZTSN9Ptakopysk6CameraE @5562 DATA
    _ZTSN9Ptakopysk6EventsE @5563 DATA
    _ZTSN9Ptakopysk9ComponentE @5564 DATA
    _ZTSN9Ptakopysk9TransformE @5565 DATA
    _ZTSSs @5566 DATA
    _ZTSSt13runtime_error @5567 DATA
    _ZTSSt9exception @5568 DATA
    _ZTTN6XeCore6Common13MemoryManagerE @5569 DATA
    _ZTTN6XeCore6Common6LoggerE @5570 DATA
    _ZTTN6XeCore6Common6StringE @5571 DATA
    _ZTTN9Ptakopysk10GameObjectE @5572 DATA
    _ZTTN9Ptakopysk10SerializedE @5573 DATA
    _ZTTN9Ptakopysk11GameManagerE @5574 DATA
    _ZTTN9Ptakopysk12TextRendererE @5575 DATA
    _ZTTN9Ptakopysk14SpriteRendererE @5576 DATA
    _ZTTN9Ptakopysk15ContactListenerE @5577 DATA
    _ZTTN9Ptakopysk19DestructionListenerE @5578 DATA
    _ZTTN9Ptakopysk4BodyE @5579 DATA
    _ZTTN9Ptakopysk6AssetsE @5580 DATA
    _ZTTN9Ptakopysk6CameraE @5581 DATA
    _ZTTN9Ptakopysk6EventsE @5582 DATA
    _ZTTN9Ptakopysk9ComponentE @5583 DATA
    _ZTTN9Ptakopysk9TransformE @5584 DATA
    _ZTV11b2EdgeShape @5585 DATA
    _ZTV11b2GearJoint @5586 DATA
    _ZTV11b2RopeJoint @5587 DATA
    _ZTV11b2WeldJoint @5588 DATA
    _ZTV12b2ChainShape @5589 DATA
    _ZTV12b2MouseJoint @5590 DATA
    _ZTV12b2WheelJoint @5591 DATA
    _ZTV13b2PulleyJoint @5592 DATA
    _ZTV14b2PolygonShape @5593 DATA
    _ZTV15b2CircleContact @5594 DATA
    _ZTV15b2ContactFilter @5595 DATA
    _ZTV15b2DistanceJoint @5596 DATA
    _ZTV15b2FrictionJoint @5597 DATA
    _ZTV15b2RevoluteJoint @5598 DATA
    _ZTV16b2PolygonContact @5599 DATA
    _ZTV16b2PrismaticJoint @5600 DATA
    _ZTV17b2ContactListener @5601 DATA
    _ZTV21b2DestructionListener @5602 DATA
    _ZTV22b2EdgeAndCircleContact @5603 DATA
    _ZTV23b2ChainAndCircleContact @5604 DATA
    _ZTV23b2EdgeAndPolygonContact @5605 DATA
    _ZTV24b2ChainAndPolygonContact @5606 DATA
    _ZTV25b2PolygonAndCircleContact @5607 DATA
    _ZTV6b2Draw @5608 DATA
    _ZTV7b2Joint @5609 DATA
    _ZTV7b2Shape @5610 DATA
    _ZTV9b2Contact @5611 DATA
    _ZTVN2sf11SoundSourceE @5612 DATA
    _ZTVN2sf11SoundStreamE @5613 DATA
    _ZTVN2sf11VertexArrayE @5614 DATA
    _ZTVN2sf12RenderTargetE @5615 DATA
    _ZTVN2sf13TransformableE @5616 DATA
    _ZTVN2sf14RectangleShapeE @5617 DATA
    _ZTVN2sf4TextE @5618 DATA
    _ZTVN2sf4priv10ThreadFuncE @5619 DATA
    _ZTVN2sf4priv10WglContextE @5620 DATA
    _ZTVN2sf4priv10WindowImplE @5621 DATA
    _ZTVN2sf4priv15WindowImplWin32E @5622 DATA
    _ZTVN2sf4priv16ThreadMemberFuncINS_11SoundStreamEEE @5623 DATA
    _ZTVN2sf4priv9GlContextE @5624 DATA
    _ZTVN2sf5MusicE @5625 DATA
    _ZTVN2sf5ShapeE @5626 DATA
    _ZTVN2sf5SoundE @5627 DATA
    _ZTVN2sf6WindowE @5628 DATA
    _ZTVN2sf8DrawableE @5629 DATA
    _ZTVN4Json10FastWriterE @5630 DATA
    _ZTVN4Json12StyledWriterE @5631 DATA
    _ZTVN4Json14ValueAllocatorE @5632 DATA
    _ZTVN4Json21DefaultValueAllocatorE @5633 DATA
    _ZTVN4Json6WriterE @5634 DATA
    _ZTVN6XeCore6Common13MemoryManagerE @5635 DATA
    _ZTVN6XeCore6Common6LoggerE @5636 DATA
    _ZTVN6XeCore6Common6StringE @5637 DATA
    _ZTVN9Ptakopysk10GameObjectE @5638 DATA
    _ZTVN9Ptakopysk10Serialized17ICustomSerializerE @5639 DATA
    _ZTVN9Ptakopysk10SerializedE @5640 DATA
    _ZTVN9Ptakopysk11GameManagerE @5641 DATA
    _ZTVN9Ptakopysk12TextRendererE @5642 DATA
    _ZTVN9Ptakopysk14EnumSerializerE @5643 DATA
    _ZTVN9Ptakopysk14SpriteRendererE @5644 DATA
    _ZTVN9Ptakopysk15ContactListenerE @5645 DATA
    _ZTVN9Ptakopysk15StyleSerializerE @5646 DATA
    _ZTVN9Ptakopysk18BitFieldSerializerE @5647 DATA
    _ZTVN9Ptakopysk19BlendModeSerializerE @5648 DATA
    _ZTVN9Ptakopysk19DestructionListenerE @5649 DATA
    _ZTVN9Ptakopysk20b2BodyTypeSerializerE @5650 DATA
    _ZTVN9Ptakopysk4BodyE @5651 DATA
    _ZTVN9Ptakopysk6AssetsE @5652 DATA
    _ZTVN9Ptakopysk6CameraE @5653 DATA
    _ZTVN9Ptakopysk6EventsE @5654 DATA
    _ZTVN9Ptakopysk9ComponentE @5655 DATA
    _ZTVN9Ptakopysk9TransformE @5656 DATA
    _ZThn4_N2sf14RectangleShapeD0Ev @5657
    _ZThn4_N2sf14RectangleShapeD1Ev @5658
    _ZThn4_N2sf4TextD0Ev @5659
    _ZThn4_N2sf4TextD1Ev @5660
    _ZThn4_N2sf5ShapeD0Ev @5661
    _ZThn4_N2sf5ShapeD1Ev @5662
    _ZdlPvS_ @5663
    _ZeqRK6b2Vec2S1_ @5664
    _ZmiRK6b2Vec2S1_ @5665
    _ZmiRK6b2Vec3S1_ @5666
    _ZmlfRK6b2Vec2 @5667
    _ZmlfRK6b2Vec3 @5668
    _ZnwjPv @5669
    _ZplRK6b2Vec2S1_ @5670
    _ZplRK6b2Vec3S1_ @5671
    __GLEW_3DFX_multisample @5672 DATA
    __GLEW_3DFX_tbuffer @5673 DATA
    __GLEW_3DFX_texture_compression_FXT1 @5674 DATA
    __GLEW_AMD_blend_minmax_factor @5675 DATA
    __GLEW_AMD_conservative_depth @5676 DATA
    __GLEW_AMD_debug_output @5677 DATA
    __GLEW_AMD_depth_clamp_separate @5678 DATA
    __GLEW_AMD_draw_buffers_blend @5679 DATA
    __GLEW_AMD_name_gen_delete @5680 DATA
    __GLEW_AMD_performance_monitor @5681 DATA
    __GLEW_AMD_sample_positions @5682 DATA
    __GLEW_AMD_seamless_cubemap_per_texture @5683 DATA
    __GLEW_AMD_shader_stencil_export @5684 DATA
    __GLEW_AMD_texture_texture4 @5685 DATA
    __GLEW_AMD_transform_feedback3_lines_triangles @5686 DATA
    __GLEW_AMD_vertex_shader_tessellator @5687 DATA
    __GLEW_APPLE_aux_depth_stencil @5688 DATA
    __GLEW_APPLE_client_storage @5689 DATA
    __GLEW_APPLE_element_array @5690 DATA
    __GLEW_APPLE_fence @5691 DATA
    __GLEW_APPLE_float_pixels @5692 DATA
    __GLEW_APPLE_flush_buffer_range @5693 DATA
    __GLEW_APPLE_object_purgeable @5694 DATA
    __GLEW_APPLE_pixel_buffer @5695 DATA
    __GLEW_APPLE_rgb_422 @5696 DATA
    __GLEW_APPLE_row_bytes @5697 DATA
    __GLEW_APPLE_specular_vector @5698 DATA
    __GLEW_APPLE_texture_range @5699 DATA
    __GLEW_APPLE_transform_hint @5700 DATA
    __GLEW_APPLE_vertex_array_object @5701 DATA
    __GLEW_APPLE_vertex_array_range @5702 DATA
    __GLEW_APPLE_vertex_program_evaluators @5703 DATA
    __GLEW_APPLE_ycbcr_422 @5704 DATA
    __GLEW_ARB_ES2_compatibility @5705 DATA
    __GLEW_ARB_blend_func_extended @5706 DATA
    __GLEW_ARB_cl_event @5707 DATA
    __GLEW_ARB_color_buffer_float @5708 DATA
    __GLEW_ARB_compatibility @5709 DATA
    __GLEW_ARB_copy_buffer @5710 DATA
    __GLEW_ARB_debug_output @5711 DATA
    __GLEW_ARB_depth_buffer_float @5712 DATA
    __GLEW_ARB_depth_clamp @5713 DATA
    __GLEW_ARB_depth_texture @5714 DATA
    __GLEW_ARB_draw_buffers @5715 DATA
    __GLEW_ARB_draw_buffers_blend @5716 DATA
    __GLEW_ARB_draw_elements_base_vertex @5717 DATA
    __GLEW_ARB_draw_indirect @5718 DATA
    __GLEW_ARB_draw_instanced @5719 DATA
    __GLEW_ARB_explicit_attrib_location @5720 DATA
    __GLEW_ARB_fragment_coord_conventions @5721 DATA
    __GLEW_ARB_fragment_program @5722 DATA
    __GLEW_ARB_fragment_program_shadow @5723 DATA
    __GLEW_ARB_fragment_shader @5724 DATA
    __GLEW_ARB_framebuffer_object @5725 DATA
    __GLEW_ARB_framebuffer_sRGB @5726 DATA
    __GLEW_ARB_geometry_shader4 @5727 DATA
    __GLEW_ARB_get_program_binary @5728 DATA
    __GLEW_ARB_gpu_shader5 @5729 DATA
    __GLEW_ARB_gpu_shader_fp64 @5730 DATA
    __GLEW_ARB_half_float_pixel @5731 DATA
    __GLEW_ARB_half_float_vertex @5732 DATA
    __GLEW_ARB_imaging @5733 DATA
    __GLEW_ARB_instanced_arrays @5734 DATA
    __GLEW_ARB_map_buffer_range @5735 DATA
    __GLEW_ARB_matrix_palette @5736 DATA
    __GLEW_ARB_multisample @5737 DATA
    __GLEW_ARB_multitexture @5738 DATA
    __GLEW_ARB_occlusion_query @5739 DATA
    __GLEW_ARB_occlusion_query2 @5740 DATA
    __GLEW_ARB_pixel_buffer_object @5741 DATA
    __GLEW_ARB_point_parameters @5742 DATA
    __GLEW_ARB_point_sprite @5743 DATA
    __GLEW_ARB_provoking_vertex @5744 DATA
    __GLEW_ARB_robustness @5745 DATA
    __GLEW_ARB_sample_shading @5746 DATA
    __GLEW_ARB_sampler_objects @5747 DATA
    __GLEW_ARB_seamless_cube_map @5748 DATA
    __GLEW_ARB_separate_shader_objects @5749 DATA
    __GLEW_ARB_shader_bit_encoding @5750 DATA
    __GLEW_ARB_shader_objects @5751 DATA
    __GLEW_ARB_shader_precision @5752 DATA
    __GLEW_ARB_shader_stencil_export @5753 DATA
    __GLEW_ARB_shader_subroutine @5754 DATA
    __GLEW_ARB_shader_texture_lod @5755 DATA
    __GLEW_ARB_shading_language_100 @5756 DATA
    __GLEW_ARB_shading_language_include @5757 DATA
    __GLEW_ARB_shadow @5758 DATA
    __GLEW_ARB_shadow_ambient @5759 DATA
    __GLEW_ARB_sync @5760 DATA
    __GLEW_ARB_tessellation_shader @5761 DATA
    __GLEW_ARB_texture_border_clamp @5762 DATA
    __GLEW_ARB_texture_buffer_object @5763 DATA
    __GLEW_ARB_texture_buffer_object_rgb32 @5764 DATA
    __GLEW_ARB_texture_compression @5765 DATA
    __GLEW_ARB_texture_compression_bptc @5766 DATA
    __GLEW_ARB_texture_compression_rgtc @5767 DATA
    __GLEW_ARB_texture_cube_map @5768 DATA
    __GLEW_ARB_texture_cube_map_array @5769 DATA
    __GLEW_ARB_texture_env_add @5770 DATA
    __GLEW_ARB_texture_env_combine @5771 DATA
    __GLEW_ARB_texture_env_crossbar @5772 DATA
    __GLEW_ARB_texture_env_dot3 @5773 DATA
    __GLEW_ARB_texture_float @5774 DATA
    __GLEW_ARB_texture_gather @5775 DATA
    __GLEW_ARB_texture_mirrored_repeat @5776 DATA
    __GLEW_ARB_texture_multisample @5777 DATA
    __GLEW_ARB_texture_non_power_of_two @5778 DATA
    __GLEW_ARB_texture_query_lod @5779 DATA
    __GLEW_ARB_texture_rectangle @5780 DATA
    __GLEW_ARB_texture_rg @5781 DATA
    __GLEW_ARB_texture_rgb10_a2ui @5782 DATA
    __GLEW_ARB_texture_swizzle @5783 DATA
    __GLEW_ARB_timer_query @5784 DATA
    __GLEW_ARB_transform_feedback2 @5785 DATA
    __GLEW_ARB_transform_feedback3 @5786 DATA
    __GLEW_ARB_transpose_matrix @5787 DATA
    __GLEW_ARB_uniform_buffer_object @5788 DATA
    __GLEW_ARB_vertex_array_bgra @5789 DATA
    __GLEW_ARB_vertex_array_object @5790 DATA
    __GLEW_ARB_vertex_attrib_64bit @5791 DATA
    __GLEW_ARB_vertex_blend @5792 DATA
    __GLEW_ARB_vertex_buffer_object @5793 DATA
    __GLEW_ARB_vertex_program @5794 DATA
    __GLEW_ARB_vertex_shader @5795 DATA
    __GLEW_ARB_vertex_type_2_10_10_10_rev @5796 DATA
    __GLEW_ARB_viewport_array @5797 DATA
    __GLEW_ARB_window_pos @5798 DATA
    __GLEW_ATIX_point_sprites @5799 DATA
    __GLEW_ATIX_texture_env_combine3 @5800 DATA
    __GLEW_ATIX_texture_env_route @5801 DATA
    __GLEW_ATIX_vertex_shader_output_point_size @5802 DATA
    __GLEW_ATI_draw_buffers @5803 DATA
    __GLEW_ATI_element_array @5804 DATA
    __GLEW_ATI_envmap_bumpmap @5805 DATA
    __GLEW_ATI_fragment_shader @5806 DATA
    __GLEW_ATI_map_object_buffer @5807 DATA
    __GLEW_ATI_meminfo @5808 DATA
    __GLEW_ATI_pn_triangles @5809 DATA
    __GLEW_ATI_separate_stencil @5810 DATA
    __GLEW_ATI_shader_texture_lod @5811 DATA
    __GLEW_ATI_text_fragment_shader @5812 DATA
    __GLEW_ATI_texture_compression_3dc @5813 DATA
    __GLEW_ATI_texture_env_combine3 @5814 DATA
    __GLEW_ATI_texture_float @5815 DATA
    __GLEW_ATI_texture_mirror_once @5816 DATA
    __GLEW_ATI_vertex_array_object @5817 DATA
    __GLEW_ATI_vertex_attrib_array_object @5818 DATA
    __GLEW_ATI_vertex_streams @5819 DATA
    __GLEW_EXT_422_pixels @5820 DATA
    __GLEW_EXT_Cg_shader @5821 DATA
    __GLEW_EXT_abgr @5822 DATA
    __GLEW_EXT_bgra @5823 DATA
    __GLEW_EXT_bindable_uniform @5824 DATA
    __GLEW_EXT_blend_color @5825 DATA
    __GLEW_EXT_blend_equation_separate @5826 DATA
    __GLEW_EXT_blend_func_separate @5827 DATA
    __GLEW_EXT_blend_logic_op @5828 DATA
    __GLEW_EXT_blend_minmax @5829 DATA
    __GLEW_EXT_blend_subtract @5830 DATA
    __GLEW_EXT_clip_volume_hint @5831 DATA
    __GLEW_EXT_cmyka @5832 DATA
    __GLEW_EXT_color_subtable @5833 DATA
    __GLEW_EXT_compiled_vertex_array @5834 DATA
    __GLEW_EXT_convolution @5835 DATA
    __GLEW_EXT_coordinate_frame @5836 DATA
    __GLEW_EXT_copy_texture @5837 DATA
    __GLEW_EXT_cull_vertex @5838 DATA
    __GLEW_EXT_depth_bounds_test @5839 DATA
    __GLEW_EXT_direct_state_access @5840 DATA
    __GLEW_EXT_draw_buffers2 @5841 DATA
    __GLEW_EXT_draw_instanced @5842 DATA
    __GLEW_EXT_draw_range_elements @5843 DATA
    __GLEW_EXT_fog_coord @5844 DATA
    __GLEW_EXT_fragment_lighting @5845 DATA
    __GLEW_EXT_framebuffer_blit @5846 DATA
    __GLEW_EXT_framebuffer_multisample @5847 DATA
    __GLEW_EXT_framebuffer_object @5848 DATA
    __GLEW_EXT_framebuffer_sRGB @5849 DATA
    __GLEW_EXT_geometry_shader4 @5850 DATA
    __GLEW_EXT_gpu_program_parameters @5851 DATA
    __GLEW_EXT_gpu_shader4 @5852 DATA
    __GLEW_EXT_histogram @5853 DATA
    __GLEW_EXT_index_array_formats @5854 DATA
    __GLEW_EXT_index_func @5855 DATA
    __GLEW_EXT_index_material @5856 DATA
    __GLEW_EXT_index_texture @5857 DATA
    __GLEW_EXT_light_texture @5858 DATA
    __GLEW_EXT_misc_attribute @5859 DATA
    __GLEW_EXT_multi_draw_arrays @5860 DATA
    __GLEW_EXT_multisample @5861 DATA
    __GLEW_EXT_packed_depth_stencil @5862 DATA
    __GLEW_EXT_packed_float @5863 DATA
    __GLEW_EXT_packed_pixels @5864 DATA
    __GLEW_EXT_paletted_texture @5865 DATA
    __GLEW_EXT_pixel_buffer_object @5866 DATA
    __GLEW_EXT_pixel_transform @5867 DATA
    __GLEW_EXT_pixel_transform_color_table @5868 DATA
    __GLEW_EXT_point_parameters @5869 DATA
    __GLEW_EXT_polygon_offset @5870 DATA
    __GLEW_EXT_provoking_vertex @5871 DATA
    __GLEW_EXT_rescale_normal @5872 DATA
    __GLEW_EXT_scene_marker @5873 DATA
    __GLEW_EXT_secondary_color @5874 DATA
    __GLEW_EXT_separate_shader_objects @5875 DATA
    __GLEW_EXT_separate_specular_color @5876 DATA
    __GLEW_EXT_shader_image_load_store @5877 DATA
    __GLEW_EXT_shadow_funcs @5878 DATA
    __GLEW_EXT_shared_texture_palette @5879 DATA
    __GLEW_EXT_stencil_clear_tag @5880 DATA
    __GLEW_EXT_stencil_two_side @5881 DATA
    __GLEW_EXT_stencil_wrap @5882 DATA
    __GLEW_EXT_subtexture @5883 DATA
    __GLEW_EXT_texture @5884 DATA
    __GLEW_EXT_texture3D @5885 DATA
    __GLEW_EXT_texture_array @5886 DATA
    __GLEW_EXT_texture_buffer_object @5887 DATA
    __GLEW_EXT_texture_compression_dxt1 @5888 DATA
    __GLEW_EXT_texture_compression_latc @5889 DATA
    __GLEW_EXT_texture_compression_rgtc @5890 DATA
    __GLEW_EXT_texture_compression_s3tc @5891 DATA
    __GLEW_EXT_texture_cube_map @5892 DATA
    __GLEW_EXT_texture_edge_clamp @5893 DATA
    __GLEW_EXT_texture_env @5894 DATA
    __GLEW_EXT_texture_env_add @5895 DATA
    __GLEW_EXT_texture_env_combine @5896 DATA
    __GLEW_EXT_texture_env_dot3 @5897 DATA
    __GLEW_EXT_texture_filter_anisotropic @5898 DATA
    __GLEW_EXT_texture_integer @5899 DATA
    __GLEW_EXT_texture_lod_bias @5900 DATA
    __GLEW_EXT_texture_mirror_clamp @5901 DATA
    __GLEW_EXT_texture_object @5902 DATA
    __GLEW_EXT_texture_perturb_normal @5903 DATA
    __GLEW_EXT_texture_rectangle @5904 DATA
    __GLEW_EXT_texture_sRGB @5905 DATA
    __GLEW_EXT_texture_sRGB_decode @5906 DATA
    __GLEW_EXT_texture_shared_exponent @5907 DATA
    __GLEW_EXT_texture_snorm @5908 DATA
    __GLEW_EXT_texture_swizzle @5909 DATA
    __GLEW_EXT_timer_query @5910 DATA
    __GLEW_EXT_transform_feedback @5911 DATA
    __GLEW_EXT_vertex_array @5912 DATA
    __GLEW_EXT_vertex_array_bgra @5913 DATA
    __GLEW_EXT_vertex_attrib_64bit @5914 DATA
    __GLEW_EXT_vertex_shader @5915 DATA
    __GLEW_EXT_vertex_weighting @5916 DATA
    __GLEW_EXT_x11_sync_object @5917 DATA
    __GLEW_GREMEDY_frame_terminator @5918 DATA
    __GLEW_GREMEDY_string_marker @5919 DATA
    __GLEW_HP_convolution_border_modes @5920 DATA
    __GLEW_HP_image_transform @5921 DATA
    __GLEW_HP_occlusion_test @5922 DATA
    __GLEW_HP_texture_lighting @5923 DATA
    __GLEW_IBM_cull_vertex @5924 DATA
    __GLEW_IBM_multimode_draw_arrays @5925 DATA
    __GLEW_IBM_rasterpos_clip @5926 DATA
    __GLEW_IBM_static_data @5927 DATA
    __GLEW_IBM_texture_mirrored_repeat @5928 DATA
    __GLEW_IBM_vertex_array_lists @5929 DATA
    __GLEW_INGR_color_clamp @5930 DATA
    __GLEW_INGR_interlace_read @5931 DATA
    __GLEW_INTEL_parallel_arrays @5932 DATA
    __GLEW_INTEL_texture_scissor @5933 DATA
    __GLEW_KTX_buffer_region @5934 DATA
    __GLEW_MESAX_texture_stack @5935 DATA
    __GLEW_MESA_pack_invert @5936 DATA
    __GLEW_MESA_resize_buffers @5937 DATA
    __GLEW_MESA_window_pos @5938 DATA
    __GLEW_MESA_ycbcr_texture @5939 DATA
    __GLEW_NVX_gpu_memory_info @5940 DATA
    __GLEW_NV_blend_square @5941 DATA
    __GLEW_NV_conditional_render @5942 DATA
    __GLEW_NV_copy_depth_to_color @5943 DATA
    __GLEW_NV_copy_image @5944 DATA
    __GLEW_NV_depth_buffer_float @5945 DATA
    __GLEW_NV_depth_clamp @5946 DATA
    __GLEW_NV_depth_range_unclamped @5947 DATA
    __GLEW_NV_evaluators @5948 DATA
    __GLEW_NV_explicit_multisample @5949 DATA
    __GLEW_NV_fence @5950 DATA
    __GLEW_NV_float_buffer @5951 DATA
    __GLEW_NV_fog_distance @5952 DATA
    __GLEW_NV_fragment_program @5953 DATA
    __GLEW_NV_fragment_program2 @5954 DATA
    __GLEW_NV_fragment_program4 @5955 DATA
    __GLEW_NV_fragment_program_option @5956 DATA
    __GLEW_NV_framebuffer_multisample_coverage @5957 DATA
    __GLEW_NV_geometry_program4 @5958 DATA
    __GLEW_NV_geometry_shader4 @5959 DATA
    __GLEW_NV_gpu_program4 @5960 DATA
    __GLEW_NV_gpu_program5 @5961 DATA
    __GLEW_NV_gpu_program_fp64 @5962 DATA
    __GLEW_NV_gpu_shader5 @5963 DATA
    __GLEW_NV_half_float @5964 DATA
    __GLEW_NV_light_max_exponent @5965 DATA
    __GLEW_NV_multisample_coverage @5966 DATA
    __GLEW_NV_multisample_filter_hint @5967 DATA
    __GLEW_NV_occlusion_query @5968 DATA
    __GLEW_NV_packed_depth_stencil @5969 DATA
    __GLEW_NV_parameter_buffer_object @5970 DATA
    __GLEW_NV_parameter_buffer_object2 @5971 DATA
    __GLEW_NV_pixel_data_range @5972 DATA
    __GLEW_NV_point_sprite @5973 DATA
    __GLEW_NV_present_video @5974 DATA
    __GLEW_NV_primitive_restart @5975 DATA
    __GLEW_NV_register_combiners @5976 DATA
    __GLEW_NV_register_combiners2 @5977 DATA
    __GLEW_NV_shader_buffer_load @5978 DATA
    __GLEW_NV_tessellation_program5 @5979 DATA
    __GLEW_NV_texgen_emboss @5980 DATA
    __GLEW_NV_texgen_reflection @5981 DATA
    __GLEW_NV_texture_barrier @5982 DATA
    __GLEW_NV_texture_compression_vtc @5983 DATA
    __GLEW_NV_texture_env_combine4 @5984 DATA
    __GLEW_NV_texture_expand_normal @5985 DATA
    __GLEW_NV_texture_multisample @5986 DATA
    __GLEW_NV_texture_rectangle @5987 DATA
    __GLEW_NV_texture_shader @5988 DATA
    __GLEW_NV_texture_shader2 @5989 DATA
    __GLEW_NV_texture_shader3 @5990 DATA
    __GLEW_NV_transform_feedback @5991 DATA
    __GLEW_NV_transform_feedback2 @5992 DATA
    __GLEW_NV_vdpau_interop @5993 DATA
    __GLEW_NV_vertex_array_range @5994 DATA
    __GLEW_NV_vertex_array_range2 @5995 DATA
    __GLEW_NV_vertex_attrib_integer_64bit @5996 DATA
    __GLEW_NV_vertex_buffer_unified_memory @5997 DATA
    __GLEW_NV_vertex_program @5998 DATA
    __GLEW_NV_vertex_program1_1 @5999 DATA
    __GLEW_NV_vertex_program2 @6000 DATA
    __GLEW_NV_vertex_program2_option @6001 DATA
    __GLEW_NV_vertex_program3 @6002 DATA
    __GLEW_NV_vertex_program4 @6003 DATA
    __GLEW_NV_video_capture @6004 DATA
    __GLEW_OES_byte_coordinates @6005 DATA
    __GLEW_OES_compressed_paletted_texture @6006 DATA
    __GLEW_OES_read_format @6007 DATA
    __GLEW_OES_single_precision @6008 DATA
    __GLEW_OML_interlace @6009 DATA
    __GLEW_OML_resample @6010 DATA
    __GLEW_OML_subsample @6011 DATA
    __GLEW_PGI_misc_hints @6012 DATA
    __GLEW_PGI_vertex_hints @6013 DATA
    __GLEW_REND_screen_coordinates @6014 DATA
    __GLEW_S3_s3tc @6015 DATA
    __GLEW_SGIS_color_range @6016 DATA
    __GLEW_SGIS_detail_texture @6017 DATA
    __GLEW_SGIS_fog_function @6018 DATA
    __GLEW_SGIS_generate_mipmap @6019 DATA
    __GLEW_SGIS_multisample @6020 DATA
    __GLEW_SGIS_pixel_texture @6021 DATA
    __GLEW_SGIS_point_line_texgen @6022 DATA
    __GLEW_SGIS_sharpen_texture @6023 DATA
    __GLEW_SGIS_texture4D @6024 DATA
    __GLEW_SGIS_texture_border_clamp @6025 DATA
    __GLEW_SGIS_texture_edge_clamp @6026 DATA
    __GLEW_SGIS_texture_filter4 @6027 DATA
    __GLEW_SGIS_texture_lod @6028 DATA
    __GLEW_SGIS_texture_select @6029 DATA
    __GLEW_SGIX_async @6030 DATA
    __GLEW_SGIX_async_histogram @6031 DATA
    __GLEW_SGIX_async_pixel @6032 DATA
    __GLEW_SGIX_blend_alpha_minmax @6033 DATA
    __GLEW_SGIX_clipmap @6034 DATA
    __GLEW_SGIX_convolution_accuracy @6035 DATA
    __GLEW_SGIX_depth_texture @6036 DATA
    __GLEW_SGIX_flush_raster @6037 DATA
    __GLEW_SGIX_fog_offset @6038 DATA
    __GLEW_SGIX_fog_texture @6039 DATA
    __GLEW_SGIX_fragment_specular_lighting @6040 DATA
    __GLEW_SGIX_framezoom @6041 DATA
    __GLEW_SGIX_interlace @6042 DATA
    __GLEW_SGIX_ir_instrument1 @6043 DATA
    __GLEW_SGIX_list_priority @6044 DATA
    __GLEW_SGIX_pixel_texture @6045 DATA
    __GLEW_SGIX_pixel_texture_bits @6046 DATA
    __GLEW_SGIX_reference_plane @6047 DATA
    __GLEW_SGIX_resample @6048 DATA
    __GLEW_SGIX_shadow @6049 DATA
    __GLEW_SGIX_shadow_ambient @6050 DATA
    __GLEW_SGIX_sprite @6051 DATA
    __GLEW_SGIX_tag_sample_buffer @6052 DATA
    __GLEW_SGIX_texture_add_env @6053 DATA
    __GLEW_SGIX_texture_coordinate_clamp @6054 DATA
    __GLEW_SGIX_texture_lod_bias @6055 DATA
    __GLEW_SGIX_texture_multi_buffer @6056 DATA
    __GLEW_SGIX_texture_range @6057 DATA
    __GLEW_SGIX_texture_scale_bias @6058 DATA
    __GLEW_SGIX_vertex_preclip @6059 DATA
    __GLEW_SGIX_vertex_preclip_hint @6060 DATA
    __GLEW_SGIX_ycrcb @6061 DATA
    __GLEW_SGI_color_matrix @6062 DATA
    __GLEW_SGI_color_table @6063 DATA
    __GLEW_SGI_texture_color_table @6064 DATA
    __GLEW_SUNX_constant_data @6065 DATA
    __GLEW_SUN_convolution_border_modes @6066 DATA
    __GLEW_SUN_global_alpha @6067 DATA
    __GLEW_SUN_mesh_array @6068 DATA
    __GLEW_SUN_read_video_pixels @6069 DATA
    __GLEW_SUN_slice_accum @6070 DATA
    __GLEW_SUN_triangle_list @6071 DATA
    __GLEW_SUN_vertex @6072 DATA
    __GLEW_VERSION_1_1 @6073 DATA
    __GLEW_VERSION_1_2 @6074 DATA
    __GLEW_VERSION_1_2_1 @6075 DATA
    __GLEW_VERSION_1_3 @6076 DATA
    __GLEW_VERSION_1_4 @6077 DATA
    __GLEW_VERSION_1_5 @6078 DATA
    __GLEW_VERSION_2_0 @6079 DATA
    __GLEW_VERSION_2_1 @6080 DATA
    __GLEW_VERSION_3_0 @6081 DATA
    __GLEW_VERSION_3_1 @6082 DATA
    __GLEW_VERSION_3_2 @6083 DATA
    __GLEW_VERSION_3_3 @6084 DATA
    __GLEW_VERSION_4_0 @6085 DATA
    __GLEW_VERSION_4_1 @6086 DATA
    __GLEW_WIN_phong_shading @6087 DATA
    __GLEW_WIN_specular_fog @6088 DATA
    __GLEW_WIN_swap_hint @6089 DATA
    __WGLEW_3DFX_multisample @6090 DATA
    __WGLEW_3DL_stereo_control @6091 DATA
    __WGLEW_AMD_gpu_association @6092 DATA
    __WGLEW_ARB_buffer_region @6093 DATA
    __WGLEW_ARB_create_context @6094 DATA
    __WGLEW_ARB_create_context_profile @6095 DATA
    __WGLEW_ARB_create_context_robustness @6096 DATA
    __WGLEW_ARB_extensions_string @6097 DATA
    __WGLEW_ARB_framebuffer_sRGB @6098 DATA
    __WGLEW_ARB_make_current_read @6099 DATA
    __WGLEW_ARB_multisample @6100 DATA
    __WGLEW_ARB_pbuffer @6101 DATA
    __WGLEW_ARB_pixel_format @6102 DATA
    __WGLEW_ARB_pixel_format_float @6103 DATA
    __WGLEW_ARB_render_texture @6104 DATA
    __WGLEW_ATI_pixel_format_float @6105 DATA
    __WGLEW_ATI_render_texture_rectangle @6106 DATA
    __WGLEW_EXT_create_context_es2_profile @6107 DATA
    __WGLEW_EXT_depth_float @6108 DATA
    __WGLEW_EXT_display_color_table @6109 DATA
    __WGLEW_EXT_extensions_string @6110 DATA
    __WGLEW_EXT_framebuffer_sRGB @6111 DATA
    __WGLEW_EXT_make_current_read @6112 DATA
    __WGLEW_EXT_multisample @6113 DATA
    __WGLEW_EXT_pbuffer @6114 DATA
    __WGLEW_EXT_pixel_format @6115 DATA
    __WGLEW_EXT_pixel_format_packed_float @6116 DATA
    __WGLEW_EXT_swap_control @6117 DATA
    __WGLEW_I3D_digital_video_control @6118 DATA
    __WGLEW_I3D_gamma @6119 DATA
    __WGLEW_I3D_genlock @6120 DATA
    __WGLEW_I3D_image_buffer @6121 DATA
    __WGLEW_I3D_swap_frame_lock @6122 DATA
    __WGLEW_I3D_swap_frame_usage @6123 DATA
    __WGLEW_NV_DX_interop @6124 DATA
    __WGLEW_NV_copy_image @6125 DATA
    __WGLEW_NV_float_buffer @6126 DATA
    __WGLEW_NV_gpu_affinity @6127 DATA
    __WGLEW_NV_multisample_coverage @6128 DATA
    __WGLEW_NV_present_video @6129 DATA
    __WGLEW_NV_render_depth_texture @6130 DATA
    __WGLEW_NV_render_texture_rectangle @6131 DATA
    __WGLEW_NV_swap_group @6132 DATA
    __WGLEW_NV_vertex_array_range @6133 DATA
    __WGLEW_NV_video_capture @6134 DATA
    __WGLEW_NV_video_output @6135 DATA
    __WGLEW_OML_sync_control @6136 DATA
    __glewActiveProgramEXT @6137 DATA
    __glewActiveShaderProgram @6138 DATA
    __glewActiveStencilFaceEXT @6139 DATA
    __glewActiveTexture @6140 DATA
    __glewActiveTextureARB @6141 DATA
    __glewActiveVaryingNV @6142 DATA
    __glewAddSwapHintRectWIN @6143 DATA
    __glewAlphaFragmentOp1ATI @6144 DATA
    __glewAlphaFragmentOp2ATI @6145 DATA
    __glewAlphaFragmentOp3ATI @6146 DATA
    __glewApplyTextureEXT @6147 DATA
    __glewAreProgramsResidentNV @6148 DATA
    __glewAreTexturesResidentEXT @6149 DATA
    __glewArrayElementEXT @6150 DATA
    __glewArrayObjectATI @6151 DATA
    __glewAsyncMarkerSGIX @6152 DATA
    __glewAttachObjectARB @6153 DATA
    __glewAttachShader @6154 DATA
    __glewBeginConditionalRender @6155 DATA
    __glewBeginConditionalRenderNV @6156 DATA
    __glewBeginFragmentShaderATI @6157 DATA
    __glewBeginOcclusionQueryNV @6158 DATA
    __glewBeginPerfMonitorAMD @6159 DATA
    __glewBeginQuery @6160 DATA
    __glewBeginQueryARB @6161 DATA
    __glewBeginQueryIndexed @6162 DATA
    __glewBeginSceneEXT @6163 DATA
    __glewBeginTransformFeedback @6164 DATA
    __glewBeginTransformFeedbackEXT @6165 DATA
    __glewBeginTransformFeedbackNV @6166 DATA
    __glewBeginVertexShaderEXT @6167 DATA
    __glewBeginVideoCaptureNV @6168 DATA
    __glewBindAttribLocation @6169 DATA
    __glewBindAttribLocationARB @6170 DATA
    __glewBindBuffer @6171 DATA
    __glewBindBufferARB @6172 DATA
    __glewBindBufferBase @6173 DATA
    __glewBindBufferBaseEXT @6174 DATA
    __glewBindBufferBaseNV @6175 DATA
    __glewBindBufferOffsetEXT @6176 DATA
    __glewBindBufferOffsetNV @6177 DATA
    __glewBindBufferRange @6178 DATA
    __glewBindBufferRangeEXT @6179 DATA
    __glewBindBufferRangeNV @6180 DATA
    __glewBindFragDataLocation @6181 DATA
    __glewBindFragDataLocationEXT @6182 DATA
    __glewBindFragDataLocationIndexed @6183 DATA
    __glewBindFragmentShaderATI @6184 DATA
    __glewBindFramebuffer @6185 DATA
    __glewBindFramebufferEXT @6186 DATA
    __glewBindImageTextureEXT @6187 DATA
    __glewBindLightParameterEXT @6188 DATA
    __glewBindMaterialParameterEXT @6189 DATA
    __glewBindMultiTextureEXT @6190 DATA
    __glewBindParameterEXT @6191 DATA
    __glewBindProgramARB @6192 DATA
    __glewBindProgramNV @6193 DATA
    __glewBindProgramPipeline @6194 DATA
    __glewBindRenderbuffer @6195 DATA
    __glewBindRenderbufferEXT @6196 DATA
    __glewBindSampler @6197 DATA
    __glewBindTexGenParameterEXT @6198 DATA
    __glewBindTextureEXT @6199 DATA
    __glewBindTextureUnitParameterEXT @6200 DATA
    __glewBindTransformFeedback @6201 DATA
    __glewBindTransformFeedbackNV @6202 DATA
    __glewBindVertexArray @6203 DATA
    __glewBindVertexArrayAPPLE @6204 DATA
    __glewBindVertexShaderEXT @6205 DATA
    __glewBindVideoCaptureStreamBufferNV @6206 DATA
    __glewBindVideoCaptureStreamTextureNV @6207 DATA
    __glewBinormalPointerEXT @6208 DATA
    __glewBlendColor @6209 DATA
    __glewBlendColorEXT @6210 DATA
    __glewBlendEquation @6211 DATA
    __glewBlendEquationEXT @6212 DATA
    __glewBlendEquationIndexedAMD @6213 DATA
    __glewBlendEquationSeparate @6214 DATA
    __glewBlendEquationSeparateEXT @6215 DATA
    __glewBlendEquationSeparateIndexedAMD @6216 DATA
    __glewBlendEquationSeparatei @6217 DATA
    __glewBlendEquationSeparateiARB @6218 DATA
    __glewBlendEquationi @6219 DATA
    __glewBlendEquationiARB @6220 DATA
    __glewBlendFuncIndexedAMD @6221 DATA
    __glewBlendFuncSeparate @6222 DATA
    __glewBlendFuncSeparateEXT @6223 DATA
    __glewBlendFuncSeparateIndexedAMD @6224 DATA
    __glewBlendFuncSeparatei @6225 DATA
    __glewBlendFuncSeparateiARB @6226 DATA
    __glewBlendFunci @6227 DATA
    __glewBlendFunciARB @6228 DATA
    __glewBlitFramebuffer @6229 DATA
    __glewBlitFramebufferEXT @6230 DATA
    __glewBufferAddressRangeNV @6231 DATA
    __glewBufferData @6232 DATA
    __glewBufferDataARB @6233 DATA
    __glewBufferParameteriAPPLE @6234 DATA
    __glewBufferRegionEnabledEXT @6235 DATA
    __glewBufferSubData @6236 DATA
    __glewBufferSubDataARB @6237 DATA
    __glewCheckFramebufferStatus @6238 DATA
    __glewCheckFramebufferStatusEXT @6239 DATA
    __glewCheckNamedFramebufferStatusEXT @6240 DATA
    __glewClampColor @6241 DATA
    __glewClampColorARB @6242 DATA
    __glewClearBufferfi @6243 DATA
    __glewClearBufferfv @6244 DATA
    __glewClearBufferiv @6245 DATA
    __glewClearBufferuiv @6246 DATA
    __glewClearColorIiEXT @6247 DATA
    __glewClearColorIuiEXT @6248 DATA
    __glewClearDepthdNV @6249 DATA
    __glewClearDepthf @6250 DATA
    __glewClearDepthfOES @6251 DATA
    __glewClientActiveTexture @6252 DATA
    __glewClientActiveTextureARB @6253 DATA
    __glewClientActiveVertexStreamATI @6254 DATA
    __glewClientAttribDefaultEXT @6255 DATA
    __glewClientWaitSync @6256 DATA
    __glewClipPlanefOES @6257 DATA
    __glewColor3fVertex3fSUN @6258 DATA
    __glewColor3fVertex3fvSUN @6259 DATA
    __glewColor3hNV @6260 DATA
    __glewColor3hvNV @6261 DATA
    __glewColor4fNormal3fVertex3fSUN @6262 DATA
    __glewColor4fNormal3fVertex3fvSUN @6263 DATA
    __glewColor4hNV @6264 DATA
    __glewColor4hvNV @6265 DATA
    __glewColor4ubVertex2fSUN @6266 DATA
    __glewColor4ubVertex2fvSUN @6267 DATA
    __glewColor4ubVertex3fSUN @6268 DATA
    __glewColor4ubVertex3fvSUN @6269 DATA
    __glewColorFormatNV @6270 DATA
    __glewColorFragmentOp1ATI @6271 DATA
    __glewColorFragmentOp2ATI @6272 DATA
    __glewColorFragmentOp3ATI @6273 DATA
    __glewColorMaskIndexedEXT @6274 DATA
    __glewColorMaski @6275 DATA
    __glewColorP3ui @6276 DATA
    __glewColorP3uiv @6277 DATA
    __glewColorP4ui @6278 DATA
    __glewColorP4uiv @6279 DATA
    __glewColorPointerEXT @6280 DATA
    __glewColorPointerListIBM @6281 DATA
    __glewColorPointervINTEL @6282 DATA
    __glewColorSubTable @6283 DATA
    __glewColorSubTableEXT @6284 DATA
    __glewColorTable @6285 DATA
    __glewColorTableEXT @6286 DATA
    __glewColorTableParameterfv @6287 DATA
    __glewColorTableParameterfvSGI @6288 DATA
    __glewColorTableParameteriv @6289 DATA
    __glewColorTableParameterivSGI @6290 DATA
    __glewColorTableSGI @6291 DATA
    __glewCombinerInputNV @6292 DATA
    __glewCombinerOutputNV @6293 DATA
    __glewCombinerParameterfNV @6294 DATA
    __glewCombinerParameterfvNV @6295 DATA
    __glewCombinerParameteriNV @6296 DATA
    __glewCombinerParameterivNV @6297 DATA
    __glewCombinerStageParameterfvNV @6298 DATA
    __glewCompileShader @6299 DATA
    __glewCompileShaderARB @6300 DATA
    __glewCompileShaderIncludeARB @6301 DATA
    __glewCompressedMultiTexImage1DEXT @6302 DATA
    __glewCompressedMultiTexImage2DEXT @6303 DATA
    __glewCompressedMultiTexImage3DEXT @6304 DATA
    __glewCompressedMultiTexSubImage1DEXT @6305 DATA
    __glewCompressedMultiTexSubImage2DEXT @6306 DATA
    __glewCompressedMultiTexSubImage3DEXT @6307 DATA
    __glewCompressedTexImage1D @6308 DATA
    __glewCompressedTexImage1DARB @6309 DATA
    __glewCompressedTexImage2D @6310 DATA
    __glewCompressedTexImage2DARB @6311 DATA
    __glewCompressedTexImage3D @6312 DATA
    __glewCompressedTexImage3DARB @6313 DATA
    __glewCompressedTexSubImage1D @6314 DATA
    __glewCompressedTexSubImage1DARB @6315 DATA
    __glewCompressedTexSubImage2D @6316 DATA
    __glewCompressedTexSubImage2DARB @6317 DATA
    __glewCompressedTexSubImage3D @6318 DATA
    __glewCompressedTexSubImage3DARB @6319 DATA
    __glewCompressedTextureImage1DEXT @6320 DATA
    __glewCompressedTextureImage2DEXT @6321 DATA
    __glewCompressedTextureImage3DEXT @6322 DATA
    __glewCompressedTextureSubImage1DEXT @6323 DATA
    __glewCompressedTextureSubImage2DEXT @6324 DATA
    __glewCompressedTextureSubImage3DEXT @6325 DATA
    __glewConvolutionFilter1D @6326 DATA
    __glewConvolutionFilter1DEXT @6327 DATA
    __glewConvolutionFilter2D @6328 DATA
    __glewConvolutionFilter2DEXT @6329 DATA
    __glewConvolutionParameterf @6330 DATA
    __glewConvolutionParameterfEXT @6331 DATA
    __glewConvolutionParameterfv @6332 DATA
    __glewConvolutionParameterfvEXT @6333 DATA
    __glewConvolutionParameteri @6334 DATA
    __glewConvolutionParameteriEXT @6335 DATA
    __glewConvolutionParameteriv @6336 DATA
    __glewConvolutionParameterivEXT @6337 DATA
    __glewCopyBufferSubData @6338 DATA
    __glewCopyColorSubTable @6339 DATA
    __glewCopyColorSubTableEXT @6340 DATA
    __glewCopyColorTable @6341 DATA
    __glewCopyColorTableSGI @6342 DATA
    __glewCopyConvolutionFilter1D @6343 DATA
    __glewCopyConvolutionFilter1DEXT @6344 DATA
    __glewCopyConvolutionFilter2D @6345 DATA
    __glewCopyConvolutionFilter2DEXT @6346 DATA
    __glewCopyImageSubDataNV @6347 DATA
    __glewCopyMultiTexImage1DEXT @6348 DATA
    __glewCopyMultiTexImage2DEXT @6349 DATA
    __glewCopyMultiTexSubImage1DEXT @6350 DATA
    __glewCopyMultiTexSubImage2DEXT @6351 DATA
    __glewCopyMultiTexSubImage3DEXT @6352 DATA
    __glewCopyTexImage1DEXT @6353 DATA
    __glewCopyTexImage2DEXT @6354 DATA
    __glewCopyTexSubImage1DEXT @6355 DATA
    __glewCopyTexSubImage2DEXT @6356 DATA
    __glewCopyTexSubImage3D @6357 DATA
    __glewCopyTexSubImage3DEXT @6358 DATA
    __glewCopyTextureImage1DEXT @6359 DATA
    __glewCopyTextureImage2DEXT @6360 DATA
    __glewCopyTextureSubImage1DEXT @6361 DATA
    __glewCopyTextureSubImage2DEXT @6362 DATA
    __glewCopyTextureSubImage3DEXT @6363 DATA
    __glewCreateProgram @6364 DATA
    __glewCreateProgramObjectARB @6365 DATA
    __glewCreateShader @6366 DATA
    __glewCreateShaderObjectARB @6367 DATA
    __glewCreateShaderProgramEXT @6368 DATA
    __glewCreateShaderProgramv @6369 DATA
    __glewCreateSyncFromCLeventARB @6370 DATA
    __glewCullParameterdvEXT @6371 DATA
    __glewCullParameterfvEXT @6372 DATA
    __glewCurrentPaletteMatrixARB @6373 DATA
    __glewDebugMessageCallbackAMD @6374 DATA
    __glewDebugMessageCallbackARB @6375 DATA
    __glewDebugMessageControlARB @6376 DATA
    __glewDebugMessageEnableAMD @6377 DATA
    __glewDebugMessageInsertAMD @6378 DATA
    __glewDebugMessageInsertARB @6379 DATA
    __glewDeleteAsyncMarkersSGIX @6380 DATA
    __glewDeleteBufferRegionEXT @6381 DATA
    __glewDeleteBuffers @6382 DATA
    __glewDeleteBuffersARB @6383 DATA
    __glewDeleteFencesAPPLE @6384 DATA
    __glewDeleteFencesNV @6385 DATA
    __glewDeleteFragmentShaderATI @6386 DATA
    __glewDeleteFramebuffers @6387 DATA
    __glewDeleteFramebuffersEXT @6388 DATA
    __glewDeleteNamedStringARB @6389 DATA
    __glewDeleteNamesAMD @6390 DATA
    __glewDeleteObjectARB @6391 DATA
    __glewDeleteOcclusionQueriesNV @6392 DATA
    __glewDeletePerfMonitorsAMD @6393 DATA
    __glewDeleteProgram @6394 DATA
    __glewDeleteProgramPipelines @6395 DATA
    __glewDeleteProgramsARB @6396 DATA
    __glewDeleteProgramsNV @6397 DATA
    __glewDeleteQueries @6398 DATA
    __glewDeleteQueriesARB @6399 DATA
    __glewDeleteRenderbuffers @6400 DATA
    __glewDeleteRenderbuffersEXT @6401 DATA
    __glewDeleteSamplers @6402 DATA
    __glewDeleteShader @6403 DATA
    __glewDeleteSync @6404 DATA
    __glewDeleteTexturesEXT @6405 DATA
    __glewDeleteTransformFeedbacks @6406 DATA
    __glewDeleteTransformFeedbacksNV @6407 DATA
    __glewDeleteVertexArrays @6408 DATA
    __glewDeleteVertexArraysAPPLE @6409 DATA
    __glewDeleteVertexShaderEXT @6410 DATA
    __glewDepthBoundsEXT @6411 DATA
    __glewDepthBoundsdNV @6412 DATA
    __glewDepthRangeArrayv @6413 DATA
    __glewDepthRangeIndexed @6414 DATA
    __glewDepthRangedNV @6415 DATA
    __glewDepthRangef @6416 DATA
    __glewDepthRangefOES @6417 DATA
    __glewDetachObjectARB @6418 DATA
    __glewDetachShader @6419 DATA
    __glewDetailTexFuncSGIS @6420 DATA
    __glewDisableClientStateIndexedEXT @6421 DATA
    __glewDisableClientStateiEXT @6422 DATA
    __glewDisableIndexedEXT @6423 DATA
    __glewDisableVariantClientStateEXT @6424 DATA
    __glewDisableVertexArrayAttribEXT @6425 DATA
    __glewDisableVertexArrayEXT @6426 DATA
    __glewDisableVertexAttribAPPLE @6427 DATA
    __glewDisableVertexAttribArray @6428 DATA
    __glewDisableVertexAttribArrayARB @6429 DATA
    __glewDisablei @6430 DATA
    __glewDrawArraysEXT @6431 DATA
    __glewDrawArraysIndirect @6432 DATA
    __glewDrawArraysInstanced @6433 DATA
    __glewDrawArraysInstancedARB @6434 DATA
    __glewDrawArraysInstancedEXT @6435 DATA
    __glewDrawBufferRegionEXT @6436 DATA
    __glewDrawBuffers @6437 DATA
    __glewDrawBuffersARB @6438 DATA
    __glewDrawBuffersATI @6439 DATA
    __glewDrawElementArrayAPPLE @6440 DATA
    __glewDrawElementArrayATI @6441 DATA
    __glewDrawElementsBaseVertex @6442 DATA
    __glewDrawElementsIndirect @6443 DATA
    __glewDrawElementsInstanced @6444 DATA
    __glewDrawElementsInstancedARB @6445 DATA
    __glewDrawElementsInstancedBaseVertex @6446 DATA
    __glewDrawElementsInstancedEXT @6447 DATA
    __glewDrawRangeElementArrayAPPLE @6448 DATA
    __glewDrawRangeElementArrayATI @6449 DATA
    __glewDrawRangeElements @6450 DATA
    __glewDrawRangeElementsBaseVertex @6451 DATA
    __glewDrawRangeElementsEXT @6452 DATA
    __glewDrawTransformFeedback @6453 DATA
    __glewDrawTransformFeedbackNV @6454 DATA
    __glewDrawTransformFeedbackStream @6455 DATA
    __glewEdgeFlagFormatNV @6456 DATA
    __glewEdgeFlagPointerEXT @6457 DATA
    __glewEdgeFlagPointerListIBM @6458 DATA
    __glewElementPointerAPPLE @6459 DATA
    __glewElementPointerATI @6460 DATA
    __glewEnableClientStateIndexedEXT @6461 DATA
    __glewEnableClientStateiEXT @6462 DATA
    __glewEnableIndexedEXT @6463 DATA
    __glewEnableVariantClientStateEXT @6464 DATA
    __glewEnableVertexArrayAttribEXT @6465 DATA
    __glewEnableVertexArrayEXT @6466 DATA
    __glewEnableVertexAttribAPPLE @6467 DATA
    __glewEnableVertexAttribArray @6468 DATA
    __glewEnableVertexAttribArrayARB @6469 DATA
    __glewEnablei @6470 DATA
    __glewEndConditionalRender @6471 DATA
    __glewEndConditionalRenderNV @6472 DATA
    __glewEndFragmentShaderATI @6473 DATA
    __glewEndOcclusionQueryNV @6474 DATA
    __glewEndPerfMonitorAMD @6475 DATA
    __glewEndQuery @6476 DATA
    __glewEndQueryARB @6477 DATA
    __glewEndQueryIndexed @6478 DATA
    __glewEndSceneEXT @6479 DATA
    __glewEndTransformFeedback @6480 DATA
    __glewEndTransformFeedbackEXT @6481 DATA
    __glewEndTransformFeedbackNV @6482 DATA
    __glewEndVertexShaderEXT @6483 DATA
    __glewEndVideoCaptureNV @6484 DATA
    __glewEvalMapsNV @6485 DATA
    __glewExecuteProgramNV @6486 DATA
    __glewExtractComponentEXT @6487 DATA
    __glewFenceSync @6488 DATA
    __glewFinalCombinerInputNV @6489 DATA
    __glewFinishAsyncSGIX @6490 DATA
    __glewFinishFenceAPPLE @6491 DATA
    __glewFinishFenceNV @6492 DATA
    __glewFinishObjectAPPLE @6493 DATA
    __glewFinishTextureSUNX @6494 DATA
    __glewFlushMappedBufferRange @6495 DATA
    __glewFlushMappedBufferRangeAPPLE @6496 DATA
    __glewFlushMappedNamedBufferRangeEXT @6497 DATA
    __glewFlushPixelDataRangeNV @6498 DATA
    __glewFlushRasterSGIX @6499 DATA
    __glewFlushVertexArrayRangeAPPLE @6500 DATA
    __glewFlushVertexArrayRangeNV @6501 DATA
    __glewFogCoordFormatNV @6502 DATA
    __glewFogCoordPointer @6503 DATA
    __glewFogCoordPointerEXT @6504 DATA
    __glewFogCoordPointerListIBM @6505 DATA
    __glewFogCoordd @6506 DATA
    __glewFogCoorddEXT @6507 DATA
    __glewFogCoorddv @6508 DATA
    __glewFogCoorddvEXT @6509 DATA
    __glewFogCoordf @6510 DATA
    __glewFogCoordfEXT @6511 DATA
    __glewFogCoordfv @6512 DATA
    __glewFogCoordfvEXT @6513 DATA
    __glewFogCoordhNV @6514 DATA
    __glewFogCoordhvNV @6515 DATA
    __glewFogFuncSGIS @6516 DATA
    __glewFragmentColorMaterialEXT @6517 DATA
    __glewFragmentColorMaterialSGIX @6518 DATA
    __glewFragmentLightModelfEXT @6519 DATA
    __glewFragmentLightModelfSGIX @6520 DATA
    __glewFragmentLightModelfvEXT @6521 DATA
    __glewFragmentLightModelfvSGIX @6522 DATA
    __glewFragmentLightModeliEXT @6523 DATA
    __glewFragmentLightModeliSGIX @6524 DATA
    __glewFragmentLightModelivEXT @6525 DATA
    __glewFragmentLightModelivSGIX @6526 DATA
    __glewFragmentLightfEXT @6527 DATA
    __glewFragmentLightfSGIX @6528 DATA
    __glewFragmentLightfvEXT @6529 DATA
    __glewFragmentLightfvSGIX @6530 DATA
    __glewFragmentLightiEXT @6531 DATA
    __glewFragmentLightiSGIX @6532 DATA
    __glewFragmentLightivEXT @6533 DATA
    __glewFragmentLightivSGIX @6534 DATA
    __glewFragmentMaterialfEXT @6535 DATA
    __glewFragmentMaterialfSGIX @6536 DATA
    __glewFragmentMaterialfvEXT @6537 DATA
    __glewFragmentMaterialfvSGIX @6538 DATA
    __glewFragmentMaterialiEXT @6539 DATA
    __glewFragmentMaterialiSGIX @6540 DATA
    __glewFragmentMaterialivEXT @6541 DATA
    __glewFragmentMaterialivSGIX @6542 DATA
    __glewFrameTerminatorGREMEDY @6543 DATA
    __glewFrameZoomSGIX @6544 DATA
    __glewFramebufferDrawBufferEXT @6545 DATA
    __glewFramebufferDrawBuffersEXT @6546 DATA
    __glewFramebufferReadBufferEXT @6547 DATA
    __glewFramebufferRenderbuffer @6548 DATA
    __glewFramebufferRenderbufferEXT @6549 DATA
    __glewFramebufferTexture @6550 DATA
    __glewFramebufferTexture1D @6551 DATA
    __glewFramebufferTexture1DEXT @6552 DATA
    __glewFramebufferTexture2D @6553 DATA
    __glewFramebufferTexture2DEXT @6554 DATA
    __glewFramebufferTexture3D @6555 DATA
    __glewFramebufferTexture3DEXT @6556 DATA
    __glewFramebufferTextureARB @6557 DATA
    __glewFramebufferTextureEXT @6558 DATA
    __glewFramebufferTextureFaceARB @6559 DATA
    __glewFramebufferTextureFaceEXT @6560 DATA
    __glewFramebufferTextureLayer @6561 DATA
    __glewFramebufferTextureLayerARB @6562 DATA
    __glewFramebufferTextureLayerEXT @6563 DATA
    __glewFreeObjectBufferATI @6564 DATA
    __glewFrustumfOES @6565 DATA
    __glewGenAsyncMarkersSGIX @6566 DATA
    __glewGenBuffers @6567 DATA
    __glewGenBuffersARB @6568 DATA
    __glewGenFencesAPPLE @6569 DATA
    __glewGenFencesNV @6570 DATA
    __glewGenFragmentShadersATI @6571 DATA
    __glewGenFramebuffers @6572 DATA
    __glewGenFramebuffersEXT @6573 DATA
    __glewGenNamesAMD @6574 DATA
    __glewGenOcclusionQueriesNV @6575 DATA
    __glewGenPerfMonitorsAMD @6576 DATA
    __glewGenProgramPipelines @6577 DATA
    __glewGenProgramsARB @6578 DATA
    __glewGenProgramsNV @6579 DATA
    __glewGenQueries @6580 DATA
    __glewGenQueriesARB @6581 DATA
    __glewGenRenderbuffers @6582 DATA
    __glewGenRenderbuffersEXT @6583 DATA
    __glewGenSamplers @6584 DATA
    __glewGenSymbolsEXT @6585 DATA
    __glewGenTexturesEXT @6586 DATA
    __glewGenTransformFeedbacks @6587 DATA
    __glewGenTransformFeedbacksNV @6588 DATA
    __glewGenVertexArrays @6589 DATA
    __glewGenVertexArraysAPPLE @6590 DATA
    __glewGenVertexShadersEXT @6591 DATA
    __glewGenerateMipmap @6592 DATA
    __glewGenerateMipmapEXT @6593 DATA
    __glewGenerateMultiTexMipmapEXT @6594 DATA
    __glewGenerateTextureMipmapEXT @6595 DATA
    __glewGetActiveAttrib @6596 DATA
    __glewGetActiveAttribARB @6597 DATA
    __glewGetActiveSubroutineName @6598 DATA
    __glewGetActiveSubroutineUniformName @6599 DATA
    __glewGetActiveSubroutineUniformiv @6600 DATA
    __glewGetActiveUniform @6601 DATA
    __glewGetActiveUniformARB @6602 DATA
    __glewGetActiveUniformBlockName @6603 DATA
    __glewGetActiveUniformBlockiv @6604 DATA
    __glewGetActiveUniformName @6605 DATA
    __glewGetActiveUniformsiv @6606 DATA
    __glewGetActiveVaryingNV @6607 DATA
    __glewGetArrayObjectfvATI @6608 DATA
    __glewGetArrayObjectivATI @6609 DATA
    __glewGetAttachedObjectsARB @6610 DATA
    __glewGetAttachedShaders @6611 DATA
    __glewGetAttribLocation @6612 DATA
    __glewGetAttribLocationARB @6613 DATA
    __glewGetBooleanIndexedvEXT @6614 DATA
    __glewGetBooleani_v @6615 DATA
    __glewGetBufferParameteri64v @6616 DATA
    __glewGetBufferParameteriv @6617 DATA
    __glewGetBufferParameterivARB @6618 DATA
    __glewGetBufferParameterui64vNV @6619 DATA
    __glewGetBufferPointerv @6620 DATA
    __glewGetBufferPointervARB @6621 DATA
    __glewGetBufferSubData @6622 DATA
    __glewGetBufferSubDataARB @6623 DATA
    __glewGetClipPlanefOES @6624 DATA
    __glewGetColorTable @6625 DATA
    __glewGetColorTableEXT @6626 DATA
    __glewGetColorTableParameterfv @6627 DATA
    __glewGetColorTableParameterfvEXT @6628 DATA
    __glewGetColorTableParameterfvSGI @6629 DATA
    __glewGetColorTableParameteriv @6630 DATA
    __glewGetColorTableParameterivEXT @6631 DATA
    __glewGetColorTableParameterivSGI @6632 DATA
    __glewGetColorTableSGI @6633 DATA
    __glewGetCombinerInputParameterfvNV @6634 DATA
    __glewGetCombinerInputParameterivNV @6635 DATA
    __glewGetCombinerOutputParameterfvNV @6636 DATA
    __glewGetCombinerOutputParameterivNV @6637 DATA
    __glewGetCombinerStageParameterfvNV @6638 DATA
    __glewGetCompressedMultiTexImageEXT @6639 DATA
    __glewGetCompressedTexImage @6640 DATA
    __glewGetCompressedTexImageARB @6641 DATA
    __glewGetCompressedTextureImageEXT @6642 DATA
    __glewGetConvolutionFilter @6643 DATA
    __glewGetConvolutionFilterEXT @6644 DATA
    __glewGetConvolutionParameterfv @6645 DATA
    __glewGetConvolutionParameterfvEXT @6646 DATA
    __glewGetConvolutionParameteriv @6647 DATA
    __glewGetConvolutionParameterivEXT @6648 DATA
    __glewGetDebugMessageLogAMD @6649 DATA
    __glewGetDebugMessageLogARB @6650 DATA
    __glewGetDetailTexFuncSGIS @6651 DATA
    __glewGetDoubleIndexedvEXT @6652 DATA
    __glewGetDoublei_v @6653 DATA
    __glewGetDoublei_vEXT @6654 DATA
    __glewGetFenceivNV @6655 DATA
    __glewGetFinalCombinerInputParameterfvNV @6656 DATA
    __glewGetFinalCombinerInputParameterivNV @6657 DATA
    __glewGetFloatIndexedvEXT @6658 DATA
    __glewGetFloati_v @6659 DATA
    __glewGetFloati_vEXT @6660 DATA
    __glewGetFogFuncSGIS @6661 DATA
    __glewGetFragDataIndex @6662 DATA
    __glewGetFragDataLocation @6663 DATA
    __glewGetFragDataLocationEXT @6664 DATA
    __glewGetFragmentLightfvEXT @6665 DATA
    __glewGetFragmentLightfvSGIX @6666 DATA
    __glewGetFragmentLightivEXT @6667 DATA
    __glewGetFragmentLightivSGIX @6668 DATA
    __glewGetFragmentMaterialfvEXT @6669 DATA
    __glewGetFragmentMaterialfvSGIX @6670 DATA
    __glewGetFragmentMaterialivEXT @6671 DATA
    __glewGetFragmentMaterialivSGIX @6672 DATA
    __glewGetFramebufferAttachmentParameteriv @6673 DATA
    __glewGetFramebufferAttachmentParameterivEXT @6674 DATA
    __glewGetFramebufferParameterivEXT @6675 DATA
    __glewGetHandleARB @6676 DATA
    __glewGetHistogram @6677 DATA
    __glewGetHistogramEXT @6678 DATA
    __glewGetHistogramParameterfv @6679 DATA
    __glewGetHistogramParameterfvEXT @6680 DATA
    __glewGetHistogramParameteriv @6681 DATA
    __glewGetHistogramParameterivEXT @6682 DATA
    __glewGetImageTransformParameterfvHP @6683 DATA
    __glewGetImageTransformParameterivHP @6684 DATA
    __glewGetInfoLogARB @6685 DATA
    __glewGetInteger64i_v @6686 DATA
    __glewGetInteger64v @6687 DATA
    __glewGetIntegerIndexedvEXT @6688 DATA
    __glewGetIntegeri_v @6689 DATA
    __glewGetIntegerui64i_vNV @6690 DATA
    __glewGetIntegerui64vNV @6691 DATA
    __glewGetInvariantBooleanvEXT @6692 DATA
    __glewGetInvariantFloatvEXT @6693 DATA
    __glewGetInvariantIntegervEXT @6694 DATA
    __glewGetLocalConstantBooleanvEXT @6695 DATA
    __glewGetLocalConstantFloatvEXT @6696 DATA
    __glewGetLocalConstantIntegervEXT @6697 DATA
    __glewGetMapAttribParameterfvNV @6698 DATA
    __glewGetMapAttribParameterivNV @6699 DATA
    __glewGetMapControlPointsNV @6700 DATA
    __glewGetMapParameterfvNV @6701 DATA
    __glewGetMapParameterivNV @6702 DATA
    __glewGetMinmax @6703 DATA
    __glewGetMinmaxEXT @6704 DATA
    __glewGetMinmaxParameterfv @6705 DATA
    __glewGetMinmaxParameterfvEXT @6706 DATA
    __glewGetMinmaxParameteriv @6707 DATA
    __glewGetMinmaxParameterivEXT @6708 DATA
    __glewGetMultiTexEnvfvEXT @6709 DATA
    __glewGetMultiTexEnvivEXT @6710 DATA
    __glewGetMultiTexGendvEXT @6711 DATA
    __glewGetMultiTexGenfvEXT @6712 DATA
    __glewGetMultiTexGenivEXT @6713 DATA
    __glewGetMultiTexImageEXT @6714 DATA
    __glewGetMultiTexLevelParameterfvEXT @6715 DATA
    __glewGetMultiTexLevelParameterivEXT @6716 DATA
    __glewGetMultiTexParameterIivEXT @6717 DATA
    __glewGetMultiTexParameterIuivEXT @6718 DATA
    __glewGetMultiTexParameterfvEXT @6719 DATA
    __glewGetMultiTexParameterivEXT @6720 DATA
    __glewGetMultisamplefv @6721 DATA
    __glewGetMultisamplefvNV @6722 DATA
    __glewGetNamedBufferParameterivEXT @6723 DATA
    __glewGetNamedBufferParameterui64vNV @6724 DATA
    __glewGetNamedBufferPointervEXT @6725 DATA
    __glewGetNamedBufferSubDataEXT @6726 DATA
    __glewGetNamedFramebufferAttachmentParameterivEXT @6727 DATA
    __glewGetNamedProgramLocalParameterIivEXT @6728 DATA
    __glewGetNamedProgramLocalParameterIuivEXT @6729 DATA
    __glewGetNamedProgramLocalParameterdvEXT @6730 DATA
    __glewGetNamedProgramLocalParameterfvEXT @6731 DATA
    __glewGetNamedProgramStringEXT @6732 DATA
    __glewGetNamedProgramivEXT @6733 DATA
    __glewGetNamedRenderbufferParameterivEXT @6734 DATA
    __glewGetNamedStringARB @6735 DATA
    __glewGetNamedStringivARB @6736 DATA
    __glewGetObjectBufferfvATI @6737 DATA
    __glewGetObjectBufferivATI @6738 DATA
    __glewGetObjectParameterfvARB @6739 DATA
    __glewGetObjectParameterivAPPLE @6740 DATA
    __glewGetObjectParameterivARB @6741 DATA
    __glewGetOcclusionQueryivNV @6742 DATA
    __glewGetOcclusionQueryuivNV @6743 DATA
    __glewGetPerfMonitorCounterDataAMD @6744 DATA
    __glewGetPerfMonitorCounterInfoAMD @6745 DATA
    __glewGetPerfMonitorCounterStringAMD @6746 DATA
    __glewGetPerfMonitorCountersAMD @6747 DATA
    __glewGetPerfMonitorGroupStringAMD @6748 DATA
    __glewGetPerfMonitorGroupsAMD @6749 DATA
    __glewGetPixelTransformParameterfvEXT @6750 DATA
    __glewGetPixelTransformParameterivEXT @6751 DATA
    __glewGetPointerIndexedvEXT @6752 DATA
    __glewGetPointeri_vEXT @6753 DATA
    __glewGetProgramBinary @6754 DATA
    __glewGetProgramEnvParameterdvARB @6755 DATA
    __glewGetProgramEnvParameterfvARB @6756 DATA
    __glewGetProgramInfoLog @6757 DATA
    __glewGetProgramLocalParameterdvARB @6758 DATA
    __glewGetProgramLocalParameterfvARB @6759 DATA
    __glewGetProgramNamedParameterdvNV @6760 DATA
    __glewGetProgramNamedParameterfvNV @6761 DATA
    __glewGetProgramParameterdvNV @6762 DATA
    __glewGetProgramParameterfvNV @6763 DATA
    __glewGetProgramPipelineInfoLog @6764 DATA
    __glewGetProgramPipelineiv @6765 DATA
    __glewGetProgramStageiv @6766 DATA
    __glewGetProgramStringARB @6767 DATA
    __glewGetProgramStringNV @6768 DATA
    __glewGetProgramiv @6769 DATA
    __glewGetProgramivARB @6770 DATA
    __glewGetProgramivNV @6771 DATA
    __glewGetQueryIndexediv @6772 DATA
    __glewGetQueryObjecti64v @6773 DATA
    __glewGetQueryObjecti64vEXT @6774 DATA
    __glewGetQueryObjectiv @6775 DATA
    __glewGetQueryObjectivARB @6776 DATA
    __glewGetQueryObjectui64v @6777 DATA
    __glewGetQueryObjectui64vEXT @6778 DATA
    __glewGetQueryObjectuiv @6779 DATA
    __glewGetQueryObjectuivARB @6780 DATA
    __glewGetQueryiv @6781 DATA
    __glewGetQueryivARB @6782 DATA
    __glewGetRenderbufferParameteriv @6783 DATA
    __glewGetRenderbufferParameterivEXT @6784 DATA
    __glewGetSamplerParameterIiv @6785 DATA
    __glewGetSamplerParameterIuiv @6786 DATA
    __glewGetSamplerParameterfv @6787 DATA
    __glewGetSamplerParameteriv @6788 DATA
    __glewGetSeparableFilter @6789 DATA
    __glewGetSeparableFilterEXT @6790 DATA
    __glewGetShaderInfoLog @6791 DATA
    __glewGetShaderPrecisionFormat @6792 DATA
    __glewGetShaderSource @6793 DATA
    __glewGetShaderSourceARB @6794 DATA
    __glewGetShaderiv @6795 DATA
    __glewGetSharpenTexFuncSGIS @6796 DATA
    __glewGetStringi @6797 DATA
    __glewGetSubroutineIndex @6798 DATA
    __glewGetSubroutineUniformLocation @6799 DATA
    __glewGetSynciv @6800 DATA
    __glewGetTexBumpParameterfvATI @6801 DATA
    __glewGetTexBumpParameterivATI @6802 DATA
    __glewGetTexFilterFuncSGIS @6803 DATA
    __glewGetTexParameterIiv @6804 DATA
    __glewGetTexParameterIivEXT @6805 DATA
    __glewGetTexParameterIuiv @6806 DATA
    __glewGetTexParameterIuivEXT @6807 DATA
    __glewGetTexParameterPointervAPPLE @6808 DATA
    __glewGetTextureImageEXT @6809 DATA
    __glewGetTextureLevelParameterfvEXT @6810 DATA
    __glewGetTextureLevelParameterivEXT @6811 DATA
    __glewGetTextureParameterIivEXT @6812 DATA
    __glewGetTextureParameterIuivEXT @6813 DATA
    __glewGetTextureParameterfvEXT @6814 DATA
    __glewGetTextureParameterivEXT @6815 DATA
    __glewGetTrackMatrixivNV @6816 DATA
    __glewGetTransformFeedbackVarying @6817 DATA
    __glewGetTransformFeedbackVaryingEXT @6818 DATA
    __glewGetTransformFeedbackVaryingNV @6819 DATA
    __glewGetUniformBlockIndex @6820 DATA
    __glewGetUniformBufferSizeEXT @6821 DATA
    __glewGetUniformIndices @6822 DATA
    __glewGetUniformLocation @6823 DATA
    __glewGetUniformLocationARB @6824 DATA
    __glewGetUniformOffsetEXT @6825 DATA
    __glewGetUniformSubroutineuiv @6826 DATA
    __glewGetUniformdv @6827 DATA
    __glewGetUniformfv @6828 DATA
    __glewGetUniformfvARB @6829 DATA
    __glewGetUniformi64vNV @6830 DATA
    __glewGetUniformiv @6831 DATA
    __glewGetUniformivARB @6832 DATA
    __glewGetUniformui64vNV @6833 DATA
    __glewGetUniformuiv @6834 DATA
    __glewGetUniformuivEXT @6835 DATA
    __glewGetVariantArrayObjectfvATI @6836 DATA
    __glewGetVariantArrayObjectivATI @6837 DATA
    __glewGetVariantBooleanvEXT @6838 DATA
    __glewGetVariantFloatvEXT @6839 DATA
    __glewGetVariantIntegervEXT @6840 DATA
    __glewGetVariantPointervEXT @6841 DATA
    __glewGetVaryingLocationNV @6842 DATA
    __glewGetVertexArrayIntegeri_vEXT @6843 DATA
    __glewGetVertexArrayIntegervEXT @6844 DATA
    __glewGetVertexArrayPointeri_vEXT @6845 DATA
    __glewGetVertexArrayPointervEXT @6846 DATA
    __glewGetVertexAttribArrayObjectfvATI @6847 DATA
    __glewGetVertexAttribArrayObjectivATI @6848 DATA
    __glewGetVertexAttribIiv @6849 DATA
    __glewGetVertexAttribIivEXT @6850 DATA
    __glewGetVertexAttribIuiv @6851 DATA
    __glewGetVertexAttribIuivEXT @6852 DATA
    __glewGetVertexAttribLdv @6853 DATA
    __glewGetVertexAttribLdvEXT @6854 DATA
    __glewGetVertexAttribLi64vNV @6855 DATA
    __glewGetVertexAttribLui64vNV @6856 DATA
    __glewGetVertexAttribPointerv @6857 DATA
    __glewGetVertexAttribPointervARB @6858 DATA
    __glewGetVertexAttribPointervNV @6859 DATA
    __glewGetVertexAttribdv @6860 DATA
    __glewGetVertexAttribdvARB @6861 DATA
    __glewGetVertexAttribdvNV @6862 DATA
    __glewGetVertexAttribfv @6863 DATA
    __glewGetVertexAttribfvARB @6864 DATA
    __glewGetVertexAttribfvNV @6865 DATA
    __glewGetVertexAttribiv @6866 DATA
    __glewGetVertexAttribivARB @6867 DATA
    __glewGetVertexAttribivNV @6868 DATA
    __glewGetVideoCaptureStreamdvNV @6869 DATA
    __glewGetVideoCaptureStreamfvNV @6870 DATA
    __glewGetVideoCaptureStreamivNV @6871 DATA
    __glewGetVideoCaptureivNV @6872 DATA
    __glewGetVideoi64vNV @6873 DATA
    __glewGetVideoivNV @6874 DATA
    __glewGetVideoui64vNV @6875 DATA
    __glewGetVideouivNV @6876 DATA
    __glewGetnColorTableARB @6877 DATA
    __glewGetnCompressedTexImageARB @6878 DATA
    __glewGetnConvolutionFilterARB @6879 DATA
    __glewGetnHistogramARB @6880 DATA
    __glewGetnMapdvARB @6881 DATA
    __glewGetnMapfvARB @6882 DATA
    __glewGetnMapivARB @6883 DATA
    __glewGetnMinmaxARB @6884 DATA
    __glewGetnPixelMapfvARB @6885 DATA
    __glewGetnPixelMapuivARB @6886 DATA
    __glewGetnPixelMapusvARB @6887 DATA
    __glewGetnPolygonStippleARB @6888 DATA
    __glewGetnSeparableFilterARB @6889 DATA
    __glewGetnTexImageARB @6890 DATA
    __glewGetnUniformdvARB @6891 DATA
    __glewGetnUniformfvARB @6892 DATA
    __glewGetnUniformivARB @6893 DATA
    __glewGetnUniformuivARB @6894 DATA
    __glewGlobalAlphaFactorbSUN @6895 DATA
    __glewGlobalAlphaFactordSUN @6896 DATA
    __glewGlobalAlphaFactorfSUN @6897 DATA
    __glewGlobalAlphaFactoriSUN @6898 DATA
    __glewGlobalAlphaFactorsSUN @6899 DATA
    __glewGlobalAlphaFactorubSUN @6900 DATA
    __glewGlobalAlphaFactoruiSUN @6901 DATA
    __glewGlobalAlphaFactorusSUN @6902 DATA
    __glewHistogram @6903 DATA
    __glewHistogramEXT @6904 DATA
    __glewImageTransformParameterfHP @6905 DATA
    __glewImageTransformParameterfvHP @6906 DATA
    __glewImageTransformParameteriHP @6907 DATA
    __glewImageTransformParameterivHP @6908 DATA
    __glewImportSyncEXT @6909 DATA
    __glewIndexFormatNV @6910 DATA
    __glewIndexFuncEXT @6911 DATA
    __glewIndexMaterialEXT @6912 DATA
    __glewIndexPointerEXT @6913 DATA
    __glewIndexPointerListIBM @6914 DATA
    __glewInsertComponentEXT @6915 DATA
    __glewIsAsyncMarkerSGIX @6916 DATA
    __glewIsBuffer @6917 DATA
    __glewIsBufferARB @6918 DATA
    __glewIsBufferResidentNV @6919 DATA
    __glewIsEnabledIndexedEXT @6920 DATA
    __glewIsEnabledi @6921 DATA
    __glewIsFenceAPPLE @6922 DATA
    __glewIsFenceNV @6923 DATA
    __glewIsFramebuffer @6924 DATA
    __glewIsFramebufferEXT @6925 DATA
    __glewIsNameAMD @6926 DATA
    __glewIsNamedBufferResidentNV @6927 DATA
    __glewIsNamedStringARB @6928 DATA
    __glewIsObjectBufferATI @6929 DATA
    __glewIsOcclusionQueryNV @6930 DATA
    __glewIsProgram @6931 DATA
    __glewIsProgramARB @6932 DATA
    __glewIsProgramNV @6933 DATA
    __glewIsProgramPipeline @6934 DATA
    __glewIsQuery @6935 DATA
    __glewIsQueryARB @6936 DATA
    __glewIsRenderbuffer @6937 DATA
    __glewIsRenderbufferEXT @6938 DATA
    __glewIsSampler @6939 DATA
    __glewIsShader @6940 DATA
    __glewIsSync @6941 DATA
    __glewIsTextureEXT @6942 DATA
    __glewIsTransformFeedback @6943 DATA
    __glewIsTransformFeedbackNV @6944 DATA
    __glewIsVariantEnabledEXT @6945 DATA
    __glewIsVertexArray @6946 DATA
    __glewIsVertexArrayAPPLE @6947 DATA
    __glewIsVertexAttribEnabledAPPLE @6948 DATA
    __glewLightEnviEXT @6949 DATA
    __glewLinkProgram @6950 DATA
    __glewLinkProgramARB @6951 DATA
    __glewLoadProgramNV @6952 DATA
    __glewLoadTransposeMatrixd @6953 DATA
    __glewLoadTransposeMatrixdARB @6954 DATA
    __glewLoadTransposeMatrixf @6955 DATA
    __glewLoadTransposeMatrixfARB @6956 DATA
    __glewLockArraysEXT @6957 DATA
    __glewMakeBufferNonResidentNV @6958 DATA
    __glewMakeBufferResidentNV @6959 DATA
    __glewMakeNamedBufferNonResidentNV @6960 DATA
    __glewMakeNamedBufferResidentNV @6961 DATA
    __glewMapBuffer @6962 DATA
    __glewMapBufferARB @6963 DATA
    __glewMapBufferRange @6964 DATA
    __glewMapControlPointsNV @6965 DATA
    __glewMapNamedBufferEXT @6966 DATA
    __glewMapNamedBufferRangeEXT @6967 DATA
    __glewMapObjectBufferATI @6968 DATA
    __glewMapParameterfvNV @6969 DATA
    __glewMapParameterivNV @6970 DATA
    __glewMapVertexAttrib1dAPPLE @6971 DATA
    __glewMapVertexAttrib1fAPPLE @6972 DATA
    __glewMapVertexAttrib2dAPPLE @6973 DATA
    __glewMapVertexAttrib2fAPPLE @6974 DATA
    __glewMatrixFrustumEXT @6975 DATA
    __glewMatrixIndexPointerARB @6976 DATA
    __glewMatrixIndexubvARB @6977 DATA
    __glewMatrixIndexuivARB @6978 DATA
    __glewMatrixIndexusvARB @6979 DATA
    __glewMatrixLoadIdentityEXT @6980 DATA
    __glewMatrixLoadTransposedEXT @6981 DATA
    __glewMatrixLoadTransposefEXT @6982 DATA
    __glewMatrixLoaddEXT @6983 DATA
    __glewMatrixLoadfEXT @6984 DATA
    __glewMatrixMultTransposedEXT @6985 DATA
    __glewMatrixMultTransposefEXT @6986 DATA
    __glewMatrixMultdEXT @6987 DATA
    __glewMatrixMultfEXT @6988 DATA
    __glewMatrixOrthoEXT @6989 DATA
    __glewMatrixPopEXT @6990 DATA
    __glewMatrixPushEXT @6991 DATA
    __glewMatrixRotatedEXT @6992 DATA
    __glewMatrixRotatefEXT @6993 DATA
    __glewMatrixScaledEXT @6994 DATA
    __glewMatrixScalefEXT @6995 DATA
    __glewMatrixTranslatedEXT @6996 DATA
    __glewMatrixTranslatefEXT @6997 DATA
    __glewMemoryBarrierEXT @6998 DATA
    __glewMinSampleShading @6999 DATA
    __glewMinSampleShadingARB @7000 DATA
    __glewMinmax @7001 DATA
    __glewMinmaxEXT @7002 DATA
    __glewMultTransposeMatrixd @7003 DATA
    __glewMultTransposeMatrixdARB @7004 DATA
    __glewMultTransposeMatrixf @7005 DATA
    __glewMultTransposeMatrixfARB @7006 DATA
    __glewMultiDrawArrays @7007 DATA
    __glewMultiDrawArraysEXT @7008 DATA
    __glewMultiDrawElementArrayAPPLE @7009 DATA
    __glewMultiDrawElements @7010 DATA
    __glewMultiDrawElementsBaseVertex @7011 DATA
    __glewMultiDrawElementsEXT @7012 DATA
    __glewMultiDrawRangeElementArrayAPPLE @7013 DATA
    __glewMultiModeDrawArraysIBM @7014 DATA
    __glewMultiModeDrawElementsIBM @7015 DATA
    __glewMultiTexBufferEXT @7016 DATA
    __glewMultiTexCoord1d @7017 DATA
    __glewMultiTexCoord1dARB @7018 DATA
    __glewMultiTexCoord1dv @7019 DATA
    __glewMultiTexCoord1dvARB @7020 DATA
    __glewMultiTexCoord1f @7021 DATA
    __glewMultiTexCoord1fARB @7022 DATA
    __glewMultiTexCoord1fv @7023 DATA
    __glewMultiTexCoord1fvARB @7024 DATA
    __glewMultiTexCoord1hNV @7025 DATA
    __glewMultiTexCoord1hvNV @7026 DATA
    __glewMultiTexCoord1i @7027 DATA
    __glewMultiTexCoord1iARB @7028 DATA
    __glewMultiTexCoord1iv @7029 DATA
    __glewMultiTexCoord1ivARB @7030 DATA
    __glewMultiTexCoord1s @7031 DATA
    __glewMultiTexCoord1sARB @7032 DATA
    __glewMultiTexCoord1sv @7033 DATA
    __glewMultiTexCoord1svARB @7034 DATA
    __glewMultiTexCoord2d @7035 DATA
    __glewMultiTexCoord2dARB @7036 DATA
    __glewMultiTexCoord2dv @7037 DATA
    __glewMultiTexCoord2dvARB @7038 DATA
    __glewMultiTexCoord2f @7039 DATA
    __glewMultiTexCoord2fARB @7040 DATA
    __glewMultiTexCoord2fv @7041 DATA
    __glewMultiTexCoord2fvARB @7042 DATA
    __glewMultiTexCoord2hNV @7043 DATA
    __glewMultiTexCoord2hvNV @7044 DATA
    __glewMultiTexCoord2i @7045 DATA
    __glewMultiTexCoord2iARB @7046 DATA
    __glewMultiTexCoord2iv @7047 DATA
    __glewMultiTexCoord2ivARB @7048 DATA
    __glewMultiTexCoord2s @7049 DATA
    __glewMultiTexCoord2sARB @7050 DATA
    __glewMultiTexCoord2sv @7051 DATA
    __glewMultiTexCoord2svARB @7052 DATA
    __glewMultiTexCoord3d @7053 DATA
    __glewMultiTexCoord3dARB @7054 DATA
    __glewMultiTexCoord3dv @7055 DATA
    __glewMultiTexCoord3dvARB @7056 DATA
    __glewMultiTexCoord3f @7057 DATA
    __glewMultiTexCoord3fARB @7058 DATA
    __glewMultiTexCoord3fv @7059 DATA
    __glewMultiTexCoord3fvARB @7060 DATA
    __glewMultiTexCoord3hNV @7061 DATA
    __glewMultiTexCoord3hvNV @7062 DATA
    __glewMultiTexCoord3i @7063 DATA
    __glewMultiTexCoord3iARB @7064 DATA
    __glewMultiTexCoord3iv @7065 DATA
    __glewMultiTexCoord3ivARB @7066 DATA
    __glewMultiTexCoord3s @7067 DATA
    __glewMultiTexCoord3sARB @7068 DATA
    __glewMultiTexCoord3sv @7069 DATA
    __glewMultiTexCoord3svARB @7070 DATA
    __glewMultiTexCoord4d @7071 DATA
    __glewMultiTexCoord4dARB @7072 DATA
    __glewMultiTexCoord4dv @7073 DATA
    __glewMultiTexCoord4dvARB @7074 DATA
    __glewMultiTexCoord4f @7075 DATA
    __glewMultiTexCoord4fARB @7076 DATA
    __glewMultiTexCoord4fv @7077 DATA
    __glewMultiTexCoord4fvARB @7078 DATA
    __glewMultiTexCoord4hNV @7079 DATA
    __glewMultiTexCoord4hvNV @7080 DATA
    __glewMultiTexCoord4i @7081 DATA
    __glewMultiTexCoord4iARB @7082 DATA
    __glewMultiTexCoord4iv @7083 DATA
    __glewMultiTexCoord4ivARB @7084 DATA
    __glewMultiTexCoord4s @7085 DATA
    __glewMultiTexCoord4sARB @7086 DATA
    __glewMultiTexCoord4sv @7087 DATA
    __glewMultiTexCoord4svARB @7088 DATA
    __glewMultiTexCoordP1ui @7089 DATA
    __glewMultiTexCoordP1uiv @7090 DATA
    __glewMultiTexCoordP2ui @7091 DATA
    __glewMultiTexCoordP2uiv @7092 DATA
    __glewMultiTexCoordP3ui @7093 DATA
    __glewMultiTexCoordP3uiv @7094 DATA
    __glewMultiTexCoordP4ui @7095 DATA
    __glewMultiTexCoordP4uiv @7096 DATA
    __glewMultiTexCoordPointerEXT @7097 DATA
    __glewMultiTexEnvfEXT @7098 DATA
    __glewMultiTexEnvfvEXT @7099 DATA
    __glewMultiTexEnviEXT @7100 DATA
    __glewMultiTexEnvivEXT @7101 DATA
    __glewMultiTexGendEXT @7102 DATA
    __glewMultiTexGendvEXT @7103 DATA
    __glewMultiTexGenfEXT @7104 DATA
    __glewMultiTexGenfvEXT @7105 DATA
    __glewMultiTexGeniEXT @7106 DATA
    __glewMultiTexGenivEXT @7107 DATA
    __glewMultiTexImage1DEXT @7108 DATA
    __glewMultiTexImage2DEXT @7109 DATA
    __glewMultiTexImage3DEXT @7110 DATA
    __glewMultiTexParameterIivEXT @7111 DATA
    __glewMultiTexParameterIuivEXT @7112 DATA
    __glewMultiTexParameterfEXT @7113 DATA
    __glewMultiTexParameterfvEXT @7114 DATA
    __glewMultiTexParameteriEXT @7115 DATA
    __glewMultiTexParameterivEXT @7116 DATA
    __glewMultiTexRenderbufferEXT @7117 DATA
    __glewMultiTexSubImage1DEXT @7118 DATA
    __glewMultiTexSubImage2DEXT @7119 DATA
    __glewMultiTexSubImage3DEXT @7120 DATA
    __glewNamedBufferDataEXT @7121 DATA
    __glewNamedBufferSubDataEXT @7122 DATA
    __glewNamedCopyBufferSubDataEXT @7123 DATA
    __glewNamedFramebufferRenderbufferEXT @7124 DATA
    __glewNamedFramebufferTexture1DEXT @7125 DATA
    __glewNamedFramebufferTexture2DEXT @7126 DATA
    __glewNamedFramebufferTexture3DEXT @7127 DATA
    __glewNamedFramebufferTextureEXT @7128 DATA
    __glewNamedFramebufferTextureFaceEXT @7129 DATA
    __glewNamedFramebufferTextureLayerEXT @7130 DATA
    __glewNamedProgramLocalParameter4dEXT @7131 DATA
    __glewNamedProgramLocalParameter4dvEXT @7132 DATA
    __glewNamedProgramLocalParameter4fEXT @7133 DATA
    __glewNamedProgramLocalParameter4fvEXT @7134 DATA
    __glewNamedProgramLocalParameterI4iEXT @7135 DATA
    __glewNamedProgramLocalParameterI4ivEXT @7136 DATA
    __glewNamedProgramLocalParameterI4uiEXT @7137 DATA
    __glewNamedProgramLocalParameterI4uivEXT @7138 DATA
    __glewNamedProgramLocalParameters4fvEXT @7139 DATA
    __glewNamedProgramLocalParametersI4ivEXT @7140 DATA
    __glewNamedProgramLocalParametersI4uivEXT @7141 DATA
    __glewNamedProgramStringEXT @7142 DATA
    __glewNamedRenderbufferStorageEXT @7143 DATA
    __glewNamedRenderbufferStorageMultisampleCoverageEXT @7144 DATA
    __glewNamedRenderbufferStorageMultisampleEXT @7145 DATA
    __glewNamedStringARB @7146 DATA
    __glewNewBufferRegionEXT @7147 DATA
    __glewNewObjectBufferATI @7148 DATA
    __glewNormal3fVertex3fSUN @7149 DATA
    __glewNormal3fVertex3fvSUN @7150 DATA
    __glewNormal3hNV @7151 DATA
    __glewNormal3hvNV @7152 DATA
    __glewNormalFormatNV @7153 DATA
    __glewNormalP3ui @7154 DATA
    __glewNormalP3uiv @7155 DATA
    __glewNormalPointerEXT @7156 DATA
    __glewNormalPointerListIBM @7157 DATA
    __glewNormalPointervINTEL @7158 DATA
    __glewNormalStream3bATI @7159 DATA
    __glewNormalStream3bvATI @7160 DATA
    __glewNormalStream3dATI @7161 DATA
    __glewNormalStream3dvATI @7162 DATA
    __glewNormalStream3fATI @7163 DATA
    __glewNormalStream3fvATI @7164 DATA
    __glewNormalStream3iATI @7165 DATA
    __glewNormalStream3ivATI @7166 DATA
    __glewNormalStream3sATI @7167 DATA
    __glewNormalStream3svATI @7168 DATA
    __glewObjectPurgeableAPPLE @7169 DATA
    __glewObjectUnpurgeableAPPLE @7170 DATA
    __glewOrthofOES @7171 DATA
    __glewPNTrianglesfATI @7172 DATA
    __glewPNTrianglesiATI @7173 DATA
    __glewPassTexCoordATI @7174 DATA
    __glewPatchParameterfv @7175 DATA
    __glewPatchParameteri @7176 DATA
    __glewPauseTransformFeedback @7177 DATA
    __glewPauseTransformFeedbackNV @7178 DATA
    __glewPixelDataRangeNV @7179 DATA
    __glewPixelTexGenSGIX @7180 DATA
    __glewPixelTransformParameterfEXT @7181 DATA
    __glewPixelTransformParameterfvEXT @7182 DATA
    __glewPixelTransformParameteriEXT @7183 DATA
    __glewPixelTransformParameterivEXT @7184 DATA
    __glewPointParameterf @7185 DATA
    __glewPointParameterfARB @7186 DATA
    __glewPointParameterfEXT @7187 DATA
    __glewPointParameterfv @7188 DATA
    __glewPointParameterfvARB @7189 DATA
    __glewPointParameterfvEXT @7190 DATA
    __glewPointParameteri @7191 DATA
    __glewPointParameteriNV @7192 DATA
    __glewPointParameteriv @7193 DATA
    __glewPointParameterivNV @7194 DATA
    __glewPollAsyncSGIX @7195 DATA
    __glewPolygonOffsetEXT @7196 DATA
    __glewPresentFrameDualFillNV @7197 DATA
    __glewPresentFrameKeyedNV @7198 DATA
    __glewPrimitiveRestartIndex @7199 DATA
    __glewPrimitiveRestartIndexNV @7200 DATA
    __glewPrimitiveRestartNV @7201 DATA
    __glewPrioritizeTexturesEXT @7202 DATA
    __glewProgramBinary @7203 DATA
    __glewProgramBufferParametersIivNV @7204 DATA
    __glewProgramBufferParametersIuivNV @7205 DATA
    __glewProgramBufferParametersfvNV @7206 DATA
    __glewProgramEnvParameter4dARB @7207 DATA
    __glewProgramEnvParameter4dvARB @7208 DATA
    __glewProgramEnvParameter4fARB @7209 DATA
    __glewProgramEnvParameter4fvARB @7210 DATA
    __glewProgramEnvParameterI4iNV @7211 DATA
    __glewProgramEnvParameterI4ivNV @7212 DATA
    __glewProgramEnvParameterI4uiNV @7213 DATA
    __glewProgramEnvParameterI4uivNV @7214 DATA
    __glewProgramEnvParameters4fvEXT @7215 DATA
    __glewProgramEnvParametersI4ivNV @7216 DATA
    __glewProgramEnvParametersI4uivNV @7217 DATA
    __glewProgramLocalParameter4dARB @7218 DATA
    __glewProgramLocalParameter4dvARB @7219 DATA
    __glewProgramLocalParameter4fARB @7220 DATA
    __glewProgramLocalParameter4fvARB @7221 DATA
    __glewProgramLocalParameterI4iNV @7222 DATA
    __glewProgramLocalParameterI4ivNV @7223 DATA
    __glewProgramLocalParameterI4uiNV @7224 DATA
    __glewProgramLocalParameterI4uivNV @7225 DATA
    __glewProgramLocalParameters4fvEXT @7226 DATA
    __glewProgramLocalParametersI4ivNV @7227 DATA
    __glewProgramLocalParametersI4uivNV @7228 DATA
    __glewProgramNamedParameter4dNV @7229 DATA
    __glewProgramNamedParameter4dvNV @7230 DATA
    __glewProgramNamedParameter4fNV @7231 DATA
    __glewProgramNamedParameter4fvNV @7232 DATA
    __glewProgramParameter4dNV @7233 DATA
    __glewProgramParameter4dvNV @7234 DATA
    __glewProgramParameter4fNV @7235 DATA
    __glewProgramParameter4fvNV @7236 DATA
    __glewProgramParameteri @7237 DATA
    __glewProgramParameteriARB @7238 DATA
    __glewProgramParameteriEXT @7239 DATA
    __glewProgramParameters4dvNV @7240 DATA
    __glewProgramParameters4fvNV @7241 DATA
    __glewProgramStringARB @7242 DATA
    __glewProgramUniform1d @7243 DATA
    __glewProgramUniform1dEXT @7244 DATA
    __glewProgramUniform1dv @7245 DATA
    __glewProgramUniform1dvEXT @7246 DATA
    __glewProgramUniform1f @7247 DATA
    __glewProgramUniform1fEXT @7248 DATA
    __glewProgramUniform1fv @7249 DATA
    __glewProgramUniform1fvEXT @7250 DATA
    __glewProgramUniform1i @7251 DATA
    __glewProgramUniform1i64NV @7252 DATA
    __glewProgramUniform1i64vNV @7253 DATA
    __glewProgramUniform1iEXT @7254 DATA
    __glewProgramUniform1iv @7255 DATA
    __glewProgramUniform1ivEXT @7256 DATA
    __glewProgramUniform1ui @7257 DATA
    __glewProgramUniform1ui64NV @7258 DATA
    __glewProgramUniform1ui64vNV @7259 DATA
    __glewProgramUniform1uiEXT @7260 DATA
    __glewProgramUniform1uiv @7261 DATA
    __glewProgramUniform1uivEXT @7262 DATA
    __glewProgramUniform2d @7263 DATA
    __glewProgramUniform2dEXT @7264 DATA
    __glewProgramUniform2dv @7265 DATA
    __glewProgramUniform2dvEXT @7266 DATA
    __glewProgramUniform2f @7267 DATA
    __glewProgramUniform2fEXT @7268 DATA
    __glewProgramUniform2fv @7269 DATA
    __glewProgramUniform2fvEXT @7270 DATA
    __glewProgramUniform2i @7271 DATA
    __glewProgramUniform2i64NV @7272 DATA
    __glewProgramUniform2i64vNV @7273 DATA
    __glewProgramUniform2iEXT @7274 DATA
    __glewProgramUniform2iv @7275 DATA
    __glewProgramUniform2ivEXT @7276 DATA
    __glewProgramUniform2ui @7277 DATA
    __glewProgramUniform2ui64NV @7278 DATA
    __glewProgramUniform2ui64vNV @7279 DATA
    __glewProgramUniform2uiEXT @7280 DATA
    __glewProgramUniform2uiv @7281 DATA
    __glewProgramUniform2uivEXT @7282 DATA
    __glewProgramUniform3d @7283 DATA
    __glewProgramUniform3dEXT @7284 DATA
    __glewProgramUniform3dv @7285 DATA
    __glewProgramUniform3dvEXT @7286 DATA
    __glewProgramUniform3f @7287 DATA
    __glewProgramUniform3fEXT @7288 DATA
    __glewProgramUniform3fv @7289 DATA
    __glewProgramUniform3fvEXT @7290 DATA
    __glewProgramUniform3i @7291 DATA
    __glewProgramUniform3i64NV @7292 DATA
    __glewProgramUniform3i64vNV @7293 DATA
    __glewProgramUniform3iEXT @7294 DATA
    __glewProgramUniform3iv @7295 DATA
    __glewProgramUniform3ivEXT @7296 DATA
    __glewProgramUniform3ui @7297 DATA
    __glewProgramUniform3ui64NV @7298 DATA
    __glewProgramUniform3ui64vNV @7299 DATA
    __glewProgramUniform3uiEXT @7300 DATA
    __glewProgramUniform3uiv @7301 DATA
    __glewProgramUniform3uivEXT @7302 DATA
    __glewProgramUniform4d @7303 DATA
    __glewProgramUniform4dEXT @7304 DATA
    __glewProgramUniform4dv @7305 DATA
    __glewProgramUniform4dvEXT @7306 DATA
    __glewProgramUniform4f @7307 DATA
    __glewProgramUniform4fEXT @7308 DATA
    __glewProgramUniform4fv @7309 DATA
    __glewProgramUniform4fvEXT @7310 DATA
    __glewProgramUniform4i @7311 DATA
    __glewProgramUniform4i64NV @7312 DATA
    __glewProgramUniform4i64vNV @7313 DATA
    __glewProgramUniform4iEXT @7314 DATA
    __glewProgramUniform4iv @7315 DATA
    __glewProgramUniform4ivEXT @7316 DATA
    __glewProgramUniform4ui @7317 DATA
    __glewProgramUniform4ui64NV @7318 DATA
    __glewProgramUniform4ui64vNV @7319 DATA
    __glewProgramUniform4uiEXT @7320 DATA
    __glewProgramUniform4uiv @7321 DATA
    __glewProgramUniform4uivEXT @7322 DATA
    __glewProgramUniformMatrix2dv @7323 DATA
    __glewProgramUniformMatrix2dvEXT @7324 DATA
    __glewProgramUniformMatrix2fv @7325 DATA
    __glewProgramUniformMatrix2fvEXT @7326 DATA
    __glewProgramUniformMatrix2x3dv @7327 DATA
    __glewProgramUniformMatrix2x3dvEXT @7328 DATA
    __glewProgramUniformMatrix2x3fv @7329 DATA
    __glewProgramUniformMatrix2x3fvEXT @7330 DATA
    __glewProgramUniformMatrix2x4dv @7331 DATA
    __glewProgramUniformMatrix2x4dvEXT @7332 DATA
    __glewProgramUniformMatrix2x4fv @7333 DATA
    __glewProgramUniformMatrix2x4fvEXT @7334 DATA
    __glewProgramUniformMatrix3dv @7335 DATA
    __glewProgramUniformMatrix3dvEXT @7336 DATA
    __glewProgramUniformMatrix3fv @7337 DATA
    __glewProgramUniformMatrix3fvEXT @7338 DATA
    __glewProgramUniformMatrix3x2dv @7339 DATA
    __glewProgramUniformMatrix3x2dvEXT @7340 DATA
    __glewProgramUniformMatrix3x2fv @7341 DATA
    __glewProgramUniformMatrix3x2fvEXT @7342 DATA
    __glewProgramUniformMatrix3x4dv @7343 DATA
    __glewProgramUniformMatrix3x4dvEXT @7344 DATA
    __glewProgramUniformMatrix3x4fv @7345 DATA
    __glewProgramUniformMatrix3x4fvEXT @7346 DATA
    __glewProgramUniformMatrix4dv @7347 DATA
    __glewProgramUniformMatrix4dvEXT @7348 DATA
    __glewProgramUniformMatrix4fv @7349 DATA
    __glewProgramUniformMatrix4fvEXT @7350 DATA
    __glewProgramUniformMatrix4x2dv @7351 DATA
    __glewProgramUniformMatrix4x2dvEXT @7352 DATA
    __glewProgramUniformMatrix4x2fv @7353 DATA
    __glewProgramUniformMatrix4x2fvEXT @7354 DATA
    __glewProgramUniformMatrix4x3dv @7355 DATA
    __glewProgramUniformMatrix4x3dvEXT @7356 DATA
    __glewProgramUniformMatrix4x3fv @7357 DATA
    __glewProgramUniformMatrix4x3fvEXT @7358 DATA
    __glewProgramUniformui64NV @7359 DATA
    __glewProgramUniformui64vNV @7360 DATA
    __glewProgramVertexLimitNV @7361 DATA
    __glewProvokingVertex @7362 DATA
    __glewProvokingVertexEXT @7363 DATA
    __glewPushClientAttribDefaultEXT @7364 DATA
    __glewQueryCounter @7365 DATA
    __glewReadBufferRegionEXT @7366 DATA
    __glewReadVideoPixelsSUN @7367 DATA
    __glewReadnPixelsARB @7368 DATA
    __glewReferencePlaneSGIX @7369 DATA
    __glewReleaseShaderCompiler @7370 DATA
    __glewRenderbufferStorage @7371 DATA
    __glewRenderbufferStorageEXT @7372 DATA
    __glewRenderbufferStorageMultisample @7373 DATA
    __glewRenderbufferStorageMultisampleCoverageNV @7374 DATA
    __glewRenderbufferStorageMultisampleEXT @7375 DATA
    __glewReplacementCodePointerSUN @7376 DATA
    __glewReplacementCodeubSUN @7377 DATA
    __glewReplacementCodeubvSUN @7378 DATA
    __glewReplacementCodeuiColor3fVertex3fSUN @7379 DATA
    __glewReplacementCodeuiColor3fVertex3fvSUN @7380 DATA
    __glewReplacementCodeuiColor4fNormal3fVertex3fSUN @7381 DATA
    __glewReplacementCodeuiColor4fNormal3fVertex3fvSUN @7382 DATA
    __glewReplacementCodeuiColor4ubVertex3fSUN @7383 DATA
    __glewReplacementCodeuiColor4ubVertex3fvSUN @7384 DATA
    __glewReplacementCodeuiNormal3fVertex3fSUN @7385 DATA
    __glewReplacementCodeuiNormal3fVertex3fvSUN @7386 DATA
    __glewReplacementCodeuiSUN @7387 DATA
    __glewReplacementCodeuiTexCoord2fColor4fNormal3fVertex3fSUN @7388 DATA
    __glewReplacementCodeuiTexCoord2fColor4fNormal3fVertex3fvSUN @7389 DATA
    __glewReplacementCodeuiTexCoord2fNormal3fVertex3fSUN @7390 DATA
    __glewReplacementCodeuiTexCoord2fNormal3fVertex3fvSUN @7391 DATA
    __glewReplacementCodeuiTexCoord2fVertex3fSUN @7392 DATA
    __glewReplacementCodeuiTexCoord2fVertex3fvSUN @7393 DATA
    __glewReplacementCodeuiVertex3fSUN @7394 DATA
    __glewReplacementCodeuiVertex3fvSUN @7395 DATA
    __glewReplacementCodeuivSUN @7396 DATA
    __glewReplacementCodeusSUN @7397 DATA
    __glewReplacementCodeusvSUN @7398 DATA
    __glewRequestResidentProgramsNV @7399 DATA
    __glewResetHistogram @7400 DATA
    __glewResetHistogramEXT @7401 DATA
    __glewResetMinmax @7402 DATA
    __glewResetMinmaxEXT @7403 DATA
    __glewResizeBuffersMESA @7404 DATA
    __glewResumeTransformFeedback @7405 DATA
    __glewResumeTransformFeedbackNV @7406 DATA
    __glewSampleCoverage @7407 DATA
    __glewSampleCoverageARB @7408 DATA
    __glewSampleMapATI @7409 DATA
    __glewSampleMaskEXT @7410 DATA
    __glewSampleMaskIndexedNV @7411 DATA
    __glewSampleMaskSGIS @7412 DATA
    __glewSampleMaski @7413 DATA
    __glewSamplePatternEXT @7414 DATA
    __glewSamplePatternSGIS @7415 DATA
    __glewSamplerParameterIiv @7416 DATA
    __glewSamplerParameterIuiv @7417 DATA
    __glewSamplerParameterf @7418 DATA
    __glewSamplerParameterfv @7419 DATA
    __glewSamplerParameteri @7420 DATA
    __glewSamplerParameteriv @7421 DATA
    __glewScissorArrayv @7422 DATA
    __glewScissorIndexed @7423 DATA
    __glewScissorIndexedv @7424 DATA
    __glewSecondaryColor3b @7425 DATA
    __glewSecondaryColor3bEXT @7426 DATA
    __glewSecondaryColor3bv @7427 DATA
    __glewSecondaryColor3bvEXT @7428 DATA
    __glewSecondaryColor3d @7429 DATA
    __glewSecondaryColor3dEXT @7430 DATA
    __glewSecondaryColor3dv @7431 DATA
    __glewSecondaryColor3dvEXT @7432 DATA
    __glewSecondaryColor3f @7433 DATA
    __glewSecondaryColor3fEXT @7434 DATA
    __glewSecondaryColor3fv @7435 DATA
    __glewSecondaryColor3fvEXT @7436 DATA
    __glewSecondaryColor3hNV @7437 DATA
    __glewSecondaryColor3hvNV @7438 DATA
    __glewSecondaryColor3i @7439 DATA
    __glewSecondaryColor3iEXT @7440 DATA
    __glewSecondaryColor3iv @7441 DATA
    __glewSecondaryColor3ivEXT @7442 DATA
    __glewSecondaryColor3s @7443 DATA
    __glewSecondaryColor3sEXT @7444 DATA
    __glewSecondaryColor3sv @7445 DATA
    __glewSecondaryColor3svEXT @7446 DATA
    __glewSecondaryColor3ub @7447 DATA
    __glewSecondaryColor3ubEXT @7448 DATA
    __glewSecondaryColor3ubv @7449 DATA
    __glewSecondaryColor3ubvEXT @7450 DATA
    __glewSecondaryColor3ui @7451 DATA
    __glewSecondaryColor3uiEXT @7452 DATA
    __glewSecondaryColor3uiv @7453 DATA
    __glewSecondaryColor3uivEXT @7454 DATA
    __glewSecondaryColor3us @7455 DATA
    __glewSecondaryColor3usEXT @7456 DATA
    __glewSecondaryColor3usv @7457 DATA
    __glewSecondaryColor3usvEXT @7458 DATA
    __glewSecondaryColorFormatNV @7459 DATA
    __glewSecondaryColorP3ui @7460 DATA
    __glewSecondaryColorP3uiv @7461 DATA
    __glewSecondaryColorPointer @7462 DATA
    __glewSecondaryColorPointerEXT @7463 DATA
    __glewSecondaryColorPointerListIBM @7464 DATA
    __glewSelectPerfMonitorCountersAMD @7465 DATA
    __glewSeparableFilter2D @7466 DATA
    __glewSeparableFilter2DEXT @7467 DATA
    __glewSetFenceAPPLE @7468 DATA
    __glewSetFenceNV @7469 DATA
    __glewSetFragmentShaderConstantATI @7470 DATA
    __glewSetInvariantEXT @7471 DATA
    __glewSetLocalConstantEXT @7472 DATA
    __glewSetMultisamplefvAMD @7473 DATA
    __glewShaderBinary @7474 DATA
    __glewShaderOp1EXT @7475 DATA
    __glewShaderOp2EXT @7476 DATA
    __glewShaderOp3EXT @7477 DATA
    __glewShaderSource @7478 DATA
    __glewShaderSourceARB @7479 DATA
    __glewSharpenTexFuncSGIS @7480 DATA
    __glewSpriteParameterfSGIX @7481 DATA
    __glewSpriteParameterfvSGIX @7482 DATA
    __glewSpriteParameteriSGIX @7483 DATA
    __glewSpriteParameterivSGIX @7484 DATA
    __glewStencilFuncSeparate @7485 DATA
    __glewStencilFuncSeparateATI @7486 DATA
    __glewStencilMaskSeparate @7487 DATA
    __glewStencilOpSeparate @7488 DATA
    __glewStencilOpSeparateATI @7489 DATA
    __glewStringMarkerGREMEDY @7490 DATA
    __glewSwizzleEXT @7491 DATA
    __glewTagSampleBufferSGIX @7492 DATA
    __glewTangentPointerEXT @7493 DATA
    __glewTbufferMask3DFX @7494 DATA
    __glewTessellationFactorAMD @7495 DATA
    __glewTessellationModeAMD @7496 DATA
    __glewTestFenceAPPLE @7497 DATA
    __glewTestFenceNV @7498 DATA
    __glewTestObjectAPPLE @7499 DATA
    __glewTexBuffer @7500 DATA
    __glewTexBufferARB @7501 DATA
    __glewTexBufferEXT @7502 DATA
    __glewTexBumpParameterfvATI @7503 DATA
    __glewTexBumpParameterivATI @7504 DATA
    __glewTexCoord1hNV @7505 DATA
    __glewTexCoord1hvNV @7506 DATA
    __glewTexCoord2fColor3fVertex3fSUN @7507 DATA
    __glewTexCoord2fColor3fVertex3fvSUN @7508 DATA
    __glewTexCoord2fColor4fNormal3fVertex3fSUN @7509 DATA
    __glewTexCoord2fColor4fNormal3fVertex3fvSUN @7510 DATA
    __glewTexCoord2fColor4ubVertex3fSUN @7511 DATA
    __glewTexCoord2fColor4ubVertex3fvSUN @7512 DATA
    __glewTexCoord2fNormal3fVertex3fSUN @7513 DATA
    __glewTexCoord2fNormal3fVertex3fvSUN @7514 DATA
    __glewTexCoord2fVertex3fSUN @7515 DATA
    __glewTexCoord2fVertex3fvSUN @7516 DATA
    __glewTexCoord2hNV @7517 DATA
    __glewTexCoord2hvNV @7518 DATA
    __glewTexCoord3hNV @7519 DATA
    __glewTexCoord3hvNV @7520 DATA
    __glewTexCoord4fColor4fNormal3fVertex4fSUN @7521 DATA
    __glewTexCoord4fColor4fNormal3fVertex4fvSUN @7522 DATA
    __glewTexCoord4fVertex4fSUN @7523 DATA
    __glewTexCoord4fVertex4fvSUN @7524 DATA
    __glewTexCoord4hNV @7525 DATA
    __glewTexCoord4hvNV @7526 DATA
    __glewTexCoordFormatNV @7527 DATA
    __glewTexCoordP1ui @7528 DATA
    __glewTexCoordP1uiv @7529 DATA
    __glewTexCoordP2ui @7530 DATA
    __glewTexCoordP2uiv @7531 DATA
    __glewTexCoordP3ui @7532 DATA
    __glewTexCoordP3uiv @7533 DATA
    __glewTexCoordP4ui @7534 DATA
    __glewTexCoordP4uiv @7535 DATA
    __glewTexCoordPointerEXT @7536 DATA
    __glewTexCoordPointerListIBM @7537 DATA
    __glewTexCoordPointervINTEL @7538 DATA
    __glewTexFilterFuncSGIS @7539 DATA
    __glewTexImage2DMultisample @7540 DATA
    __glewTexImage2DMultisampleCoverageNV @7541 DATA
    __glewTexImage3D @7542 DATA
    __glewTexImage3DEXT @7543 DATA
    __glewTexImage3DMultisample @7544 DATA
    __glewTexImage3DMultisampleCoverageNV @7545 DATA
    __glewTexImage4DSGIS @7546 DATA
    __glewTexParameterIiv @7547 DATA
    __glewTexParameterIivEXT @7548 DATA
    __glewTexParameterIuiv @7549 DATA
    __glewTexParameterIuivEXT @7550 DATA
    __glewTexRenderbufferNV @7551 DATA
    __glewTexScissorFuncINTEL @7552 DATA
    __glewTexScissorINTEL @7553 DATA
    __glewTexSubImage1DEXT @7554 DATA
    __glewTexSubImage2DEXT @7555 DATA
    __glewTexSubImage3D @7556 DATA
    __glewTexSubImage3DEXT @7557 DATA
    __glewTexSubImage4DSGIS @7558 DATA
    __glewTextureBarrierNV @7559 DATA
    __glewTextureBufferEXT @7560 DATA
    __glewTextureFogSGIX @7561 DATA
    __glewTextureImage1DEXT @7562 DATA
    __glewTextureImage2DEXT @7563 DATA
    __glewTextureImage2DMultisampleCoverageNV @7564 DATA
    __glewTextureImage2DMultisampleNV @7565 DATA
    __glewTextureImage3DEXT @7566 DATA
    __glewTextureImage3DMultisampleCoverageNV @7567 DATA
    __glewTextureImage3DMultisampleNV @7568 DATA
    __glewTextureLightEXT @7569 DATA
    __glewTextureMaterialEXT @7570 DATA
    __glewTextureNormalEXT @7571 DATA
    __glewTextureParameterIivEXT @7572 DATA
    __glewTextureParameterIuivEXT @7573 DATA
    __glewTextureParameterfEXT @7574 DATA
    __glewTextureParameterfvEXT @7575 DATA
    __glewTextureParameteriEXT @7576 DATA
    __glewTextureParameterivEXT @7577 DATA
    __glewTextureRangeAPPLE @7578 DATA
    __glewTextureRenderbufferEXT @7579 DATA
    __glewTextureSubImage1DEXT @7580 DATA
    __glewTextureSubImage2DEXT @7581 DATA
    __glewTextureSubImage3DEXT @7582 DATA
    __glewTrackMatrixNV @7583 DATA
    __glewTransformFeedbackAttribsNV @7584 DATA
    __glewTransformFeedbackVaryings @7585 DATA
    __glewTransformFeedbackVaryingsEXT @7586 DATA
    __glewTransformFeedbackVaryingsNV @7587 DATA
    __glewUniform1d @7588 DATA
    __glewUniform1dv @7589 DATA
    __glewUniform1f @7590 DATA
    __glewUniform1fARB @7591 DATA
    __glewUniform1fv @7592 DATA
    __glewUniform1fvARB @7593 DATA
    __glewUniform1i @7594 DATA
    __glewUniform1i64NV @7595 DATA
    __glewUniform1i64vNV @7596 DATA
    __glewUniform1iARB @7597 DATA
    __glewUniform1iv @7598 DATA
    __glewUniform1ivARB @7599 DATA
    __glewUniform1ui @7600 DATA
    __glewUniform1ui64NV @7601 DATA
    __glewUniform1ui64vNV @7602 DATA
    __glewUniform1uiEXT @7603 DATA
    __glewUniform1uiv @7604 DATA
    __glewUniform1uivEXT @7605 DATA
    __glewUniform2d @7606 DATA
    __glewUniform2dv @7607 DATA
    __glewUniform2f @7608 DATA
    __glewUniform2fARB @7609 DATA
    __glewUniform2fv @7610 DATA
    __glewUniform2fvARB @7611 DATA
    __glewUniform2i @7612 DATA
    __glewUniform2i64NV @7613 DATA
    __glewUniform2i64vNV @7614 DATA
    __glewUniform2iARB @7615 DATA
    __glewUniform2iv @7616 DATA
    __glewUniform2ivARB @7617 DATA
    __glewUniform2ui @7618 DATA
    __glewUniform2ui64NV @7619 DATA
    __glewUniform2ui64vNV @7620 DATA
    __glewUniform2uiEXT @7621 DATA
    __glewUniform2uiv @7622 DATA
    __glewUniform2uivEXT @7623 DATA
    __glewUniform3d @7624 DATA
    __glewUniform3dv @7625 DATA
    __glewUniform3f @7626 DATA
    __glewUniform3fARB @7627 DATA
    __glewUniform3fv @7628 DATA
    __glewUniform3fvARB @7629 DATA
    __glewUniform3i @7630 DATA
    __glewUniform3i64NV @7631 DATA
    __glewUniform3i64vNV @7632 DATA
    __glewUniform3iARB @7633 DATA
    __glewUniform3iv @7634 DATA
    __glewUniform3ivARB @7635 DATA
    __glewUniform3ui @7636 DATA
    __glewUniform3ui64NV @7637 DATA
    __glewUniform3ui64vNV @7638 DATA
    __glewUniform3uiEXT @7639 DATA
    __glewUniform3uiv @7640 DATA
    __glewUniform3uivEXT @7641 DATA
    __glewUniform4d @7642 DATA
    __glewUniform4dv @7643 DATA
    __glewUniform4f @7644 DATA
    __glewUniform4fARB @7645 DATA
    __glewUniform4fv @7646 DATA
    __glewUniform4fvARB @7647 DATA
    __glewUniform4i @7648 DATA
    __glewUniform4i64NV @7649 DATA
    __glewUniform4i64vNV @7650 DATA
    __glewUniform4iARB @7651 DATA
    __glewUniform4iv @7652 DATA
    __glewUniform4ivARB @7653 DATA
    __glewUniform4ui @7654 DATA
    __glewUniform4ui64NV @7655 DATA
    __glewUniform4ui64vNV @7656 DATA
    __glewUniform4uiEXT @7657 DATA
    __glewUniform4uiv @7658 DATA
    __glewUniform4uivEXT @7659 DATA
    __glewUniformBlockBinding @7660 DATA
    __glewUniformBufferEXT @7661 DATA
    __glewUniformMatrix2dv @7662 DATA
    __glewUniformMatrix2fv @7663 DATA
    __glewUniformMatrix2fvARB @7664 DATA
    __glewUniformMatrix2x3dv @7665 DATA
    __glewUniformMatrix2x3fv @7666 DATA
    __glewUniformMatrix2x4dv @7667 DATA
    __glewUniformMatrix2x4fv @7668 DATA
    __glewUniformMatrix3dv @7669 DATA
    __glewUniformMatrix3fv @7670 DATA
    __glewUniformMatrix3fvARB @7671 DATA
    __glewUniformMatrix3x2dv @7672 DATA
    __glewUniformMatrix3x2fv @7673 DATA
    __glewUniformMatrix3x4dv @7674 DATA
    __glewUniformMatrix3x4fv @7675 DATA
    __glewUniformMatrix4dv @7676 DATA
    __glewUniformMatrix4fv @7677 DATA
    __glewUniformMatrix4fvARB @7678 DATA
    __glewUniformMatrix4x2dv @7679 DATA
    __glewUniformMatrix4x2fv @7680 DATA
    __glewUniformMatrix4x3dv @7681 DATA
    __glewUniformMatrix4x3fv @7682 DATA
    __glewUniformSubroutinesuiv @7683 DATA
    __glewUniformui64NV @7684 DATA
    __glewUniformui64vNV @7685 DATA
    __glewUnlockArraysEXT @7686 DATA
    __glewUnmapBuffer @7687 DATA
    __glewUnmapBufferARB @7688 DATA
    __glewUnmapNamedBufferEXT @7689 DATA
    __glewUnmapObjectBufferATI @7690 DATA
    __glewUpdateObjectBufferATI @7691 DATA
    __glewUseProgram @7692 DATA
    __glewUseProgramObjectARB @7693 DATA
    __glewUseProgramStages @7694 DATA
    __glewUseShaderProgramEXT @7695 DATA
    __glewVDPAUFiniNV @7696 DATA
    __glewVDPAUGetSurfaceivNV @7697 DATA
    __glewVDPAUInitNV @7698 DATA
    __glewVDPAUIsSurfaceNV @7699 DATA
    __glewVDPAUMapSurfacesNV @7700 DATA
    __glewVDPAURegisterOutputSurfaceNV @7701 DATA
    __glewVDPAURegisterVideoSurfaceNV @7702 DATA
    __glewVDPAUSurfaceAccessNV @7703 DATA
    __glewVDPAUUnmapSurfacesNV @7704 DATA
    __glewVDPAUUnregisterSurfaceNV @7705 DATA
    __glewValidateProgram @7706 DATA
    __glewValidateProgramARB @7707 DATA
    __glewValidateProgramPipeline @7708 DATA
    __glewVariantArrayObjectATI @7709 DATA
    __glewVariantPointerEXT @7710 DATA
    __glewVariantbvEXT @7711 DATA
    __glewVariantdvEXT @7712 DATA
    __glewVariantfvEXT @7713 DATA
    __glewVariantivEXT @7714 DATA
    __glewVariantsvEXT @7715 DATA
    __glewVariantubvEXT @7716 DATA
    __glewVariantuivEXT @7717 DATA
    __glewVariantusvEXT @7718 DATA
    __glewVertex2hNV @7719 DATA
    __glewVertex2hvNV @7720 DATA
    __glewVertex3hNV @7721 DATA
    __glewVertex3hvNV @7722 DATA
    __glewVertex4hNV @7723 DATA
    __glewVertex4hvNV @7724 DATA
    __glewVertexArrayColorOffsetEXT @7725 DATA
    __glewVertexArrayEdgeFlagOffsetEXT @7726 DATA
    __glewVertexArrayFogCoordOffsetEXT @7727 DATA
    __glewVertexArrayIndexOffsetEXT @7728 DATA
    __glewVertexArrayMultiTexCoordOffsetEXT @7729 DATA
    __glewVertexArrayNormalOffsetEXT @7730 DATA
    __glewVertexArrayParameteriAPPLE @7731 DATA
    __glewVertexArrayRangeAPPLE @7732 DATA
    __glewVertexArrayRangeNV @7733 DATA
    __glewVertexArraySecondaryColorOffsetEXT @7734 DATA
    __glewVertexArrayTexCoordOffsetEXT @7735 DATA
    __glewVertexArrayVertexAttribIOffsetEXT @7736 DATA
    __glewVertexArrayVertexAttribLOffsetEXT @7737 DATA
    __glewVertexArrayVertexAttribOffsetEXT @7738 DATA
    __glewVertexArrayVertexOffsetEXT @7739 DATA
    __glewVertexAttrib1d @7740 DATA
    __glewVertexAttrib1dARB @7741 DATA
    __glewVertexAttrib1dNV @7742 DATA
    __glewVertexAttrib1dv @7743 DATA
    __glewVertexAttrib1dvARB @7744 DATA
    __glewVertexAttrib1dvNV @7745 DATA
    __glewVertexAttrib1f @7746 DATA
    __glewVertexAttrib1fARB @7747 DATA
    __glewVertexAttrib1fNV @7748 DATA
    __glewVertexAttrib1fv @7749 DATA
    __glewVertexAttrib1fvARB @7750 DATA
    __glewVertexAttrib1fvNV @7751 DATA
    __glewVertexAttrib1hNV @7752 DATA
    __glewVertexAttrib1hvNV @7753 DATA
    __glewVertexAttrib1s @7754 DATA
    __glewVertexAttrib1sARB @7755 DATA
    __glewVertexAttrib1sNV @7756 DATA
    __glewVertexAttrib1sv @7757 DATA
    __glewVertexAttrib1svARB @7758 DATA
    __glewVertexAttrib1svNV @7759 DATA
    __glewVertexAttrib2d @7760 DATA
    __glewVertexAttrib2dARB @7761 DATA
    __glewVertexAttrib2dNV @7762 DATA
    __glewVertexAttrib2dv @7763 DATA
    __glewVertexAttrib2dvARB @7764 DATA
    __glewVertexAttrib2dvNV @7765 DATA
    __glewVertexAttrib2f @7766 DATA
    __glewVertexAttrib2fARB @7767 DATA
    __glewVertexAttrib2fNV @7768 DATA
    __glewVertexAttrib2fv @7769 DATA
    __glewVertexAttrib2fvARB @7770 DATA
    __glewVertexAttrib2fvNV @7771 DATA
    __glewVertexAttrib2hNV @7772 DATA
    __glewVertexAttrib2hvNV @7773 DATA
    __glewVertexAttrib2s @7774 DATA
    __glewVertexAttrib2sARB @7775 DATA
    __glewVertexAttrib2sNV @7776 DATA
    __glewVertexAttrib2sv @7777 DATA
    __glewVertexAttrib2svARB @7778 DATA
    __glewVertexAttrib2svNV @7779 DATA
    __glewVertexAttrib3d @7780 DATA
    __glewVertexAttrib3dARB @7781 DATA
    __glewVertexAttrib3dNV @7782 DATA
    __glewVertexAttrib3dv @7783 DATA
    __glewVertexAttrib3dvARB @7784 DATA
    __glewVertexAttrib3dvNV @7785 DATA
    __glewVertexAttrib3f @7786 DATA
    __glewVertexAttrib3fARB @7787 DATA
    __glewVertexAttrib3fNV @7788 DATA
    __glewVertexAttrib3fv @7789 DATA
    __glewVertexAttrib3fvARB @7790 DATA
    __glewVertexAttrib3fvNV @7791 DATA
    __glewVertexAttrib3hNV @7792 DATA
    __glewVertexAttrib3hvNV @7793 DATA
    __glewVertexAttrib3s @7794 DATA
    __glewVertexAttrib3sARB @7795 DATA
    __glewVertexAttrib3sNV @7796 DATA
    __glewVertexAttrib3sv @7797 DATA
    __glewVertexAttrib3svARB @7798 DATA
    __glewVertexAttrib3svNV @7799 DATA
    __glewVertexAttrib4Nbv @7800 DATA
    __glewVertexAttrib4NbvARB @7801 DATA
    __glewVertexAttrib4Niv @7802 DATA
    __glewVertexAttrib4NivARB @7803 DATA
    __glewVertexAttrib4Nsv @7804 DATA
    __glewVertexAttrib4NsvARB @7805 DATA
    __glewVertexAttrib4Nub @7806 DATA
    __glewVertexAttrib4NubARB @7807 DATA
    __glewVertexAttrib4Nubv @7808 DATA
    __glewVertexAttrib4NubvARB @7809 DATA
    __glewVertexAttrib4Nuiv @7810 DATA
    __glewVertexAttrib4NuivARB @7811 DATA
    __glewVertexAttrib4Nusv @7812 DATA
    __glewVertexAttrib4NusvARB @7813 DATA
    __glewVertexAttrib4bv @7814 DATA
    __glewVertexAttrib4bvARB @7815 DATA
    __glewVertexAttrib4d @7816 DATA
    __glewVertexAttrib4dARB @7817 DATA
    __glewVertexAttrib4dNV @7818 DATA
    __glewVertexAttrib4dv @7819 DATA
    __glewVertexAttrib4dvARB @7820 DATA
    __glewVertexAttrib4dvNV @7821 DATA
    __glewVertexAttrib4f @7822 DATA
    __glewVertexAttrib4fARB @7823 DATA
    __glewVertexAttrib4fNV @7824 DATA
    __glewVertexAttrib4fv @7825 DATA
    __glewVertexAttrib4fvARB @7826 DATA
    __glewVertexAttrib4fvNV @7827 DATA
    __glewVertexAttrib4hNV @7828 DATA
    __glewVertexAttrib4hvNV @7829 DATA
    __glewVertexAttrib4iv @7830 DATA
    __glewVertexAttrib4ivARB @7831 DATA
    __glewVertexAttrib4s @7832 DATA
    __glewVertexAttrib4sARB @7833 DATA
    __glewVertexAttrib4sNV @7834 DATA
    __glewVertexAttrib4sv @7835 DATA
    __glewVertexAttrib4svARB @7836 DATA
    __glewVertexAttrib4svNV @7837 DATA
    __glewVertexAttrib4ubNV @7838 DATA
    __glewVertexAttrib4ubv @7839 DATA
    __glewVertexAttrib4ubvARB @7840 DATA
    __glewVertexAttrib4ubvNV @7841 DATA
    __glewVertexAttrib4uiv @7842 DATA
    __glewVertexAttrib4uivARB @7843 DATA
    __glewVertexAttrib4usv @7844 DATA
    __glewVertexAttrib4usvARB @7845 DATA
    __glewVertexAttribArrayObjectATI @7846 DATA
    __glewVertexAttribDivisor @7847 DATA
    __glewVertexAttribDivisorARB @7848 DATA
    __glewVertexAttribFormatNV @7849 DATA
    __glewVertexAttribI1i @7850 DATA
    __glewVertexAttribI1iEXT @7851 DATA
    __glewVertexAttribI1iv @7852 DATA
    __glewVertexAttribI1ivEXT @7853 DATA
    __glewVertexAttribI1ui @7854 DATA
    __glewVertexAttribI1uiEXT @7855 DATA
    __glewVertexAttribI1uiv @7856 DATA
    __glewVertexAttribI1uivEXT @7857 DATA
    __glewVertexAttribI2i @7858 DATA
    __glewVertexAttribI2iEXT @7859 DATA
    __glewVertexAttribI2iv @7860 DATA
    __glewVertexAttribI2ivEXT @7861 DATA
    __glewVertexAttribI2ui @7862 DATA
    __glewVertexAttribI2uiEXT @7863 DATA
    __glewVertexAttribI2uiv @7864 DATA
    __glewVertexAttribI2uivEXT @7865 DATA
    __glewVertexAttribI3i @7866 DATA
    __glewVertexAttribI3iEXT @7867 DATA
    __glewVertexAttribI3iv @7868 DATA
    __glewVertexAttribI3ivEXT @7869 DATA
    __glewVertexAttribI3ui @7870 DATA
    __glewVertexAttribI3uiEXT @7871 DATA
    __glewVertexAttribI3uiv @7872 DATA
    __glewVertexAttribI3uivEXT @7873 DATA
    __glewVertexAttribI4bv @7874 DATA
    __glewVertexAttribI4bvEXT @7875 DATA
    __glewVertexAttribI4i @7876 DATA
    __glewVertexAttribI4iEXT @7877 DATA
    __glewVertexAttribI4iv @7878 DATA
    __glewVertexAttribI4ivEXT @7879 DATA
    __glewVertexAttribI4sv @7880 DATA
    __glewVertexAttribI4svEXT @7881 DATA
    __glewVertexAttribI4ubv @7882 DATA
    __glewVertexAttribI4ubvEXT @7883 DATA
    __glewVertexAttribI4ui @7884 DATA
    __glewVertexAttribI4uiEXT @7885 DATA
    __glewVertexAttribI4uiv @7886 DATA
    __glewVertexAttribI4uivEXT @7887 DATA
    __glewVertexAttribI4usv @7888 DATA
    __glewVertexAttribI4usvEXT @7889 DATA
    __glewVertexAttribIFormatNV @7890 DATA
    __glewVertexAttribIPointer @7891 DATA
    __glewVertexAttribIPointerEXT @7892 DATA
    __glewVertexAttribL1d @7893 DATA
    __glewVertexAttribL1dEXT @7894 DATA
    __glewVertexAttribL1dv @7895 DATA
    __glewVertexAttribL1dvEXT @7896 DATA
    __glewVertexAttribL1i64NV @7897 DATA
    __glewVertexAttribL1i64vNV @7898 DATA
    __glewVertexAttribL1ui64NV @7899 DATA
    __glewVertexAttribL1ui64vNV @7900 DATA
    __glewVertexAttribL2d @7901 DATA
    __glewVertexAttribL2dEXT @7902 DATA
    __glewVertexAttribL2dv @7903 DATA
    __glewVertexAttribL2dvEXT @7904 DATA
    __glewVertexAttribL2i64NV @7905 DATA
    __glewVertexAttribL2i64vNV @7906 DATA
    __glewVertexAttribL2ui64NV @7907 DATA
    __glewVertexAttribL2ui64vNV @7908 DATA
    __glewVertexAttribL3d @7909 DATA
    __glewVertexAttribL3dEXT @7910 DATA
    __glewVertexAttribL3dv @7911 DATA
    __glewVertexAttribL3dvEXT @7912 DATA
    __glewVertexAttribL3i64NV @7913 DATA
    __glewVertexAttribL3i64vNV @7914 DATA
    __glewVertexAttribL3ui64NV @7915 DATA
    __glewVertexAttribL3ui64vNV @7916 DATA
    __glewVertexAttribL4d @7917 DATA
    __glewVertexAttribL4dEXT @7918 DATA
    __glewVertexAttribL4dv @7919 DATA
    __glewVertexAttribL4dvEXT @7920 DATA
    __glewVertexAttribL4i64NV @7921 DATA
    __glewVertexAttribL4i64vNV @7922 DATA
    __glewVertexAttribL4ui64NV @7923 DATA
    __glewVertexAttribL4ui64vNV @7924 DATA
    __glewVertexAttribLFormatNV @7925 DATA
    __glewVertexAttribLPointer @7926 DATA
    __glewVertexAttribLPointerEXT @7927 DATA
    __glewVertexAttribP1ui @7928 DATA
    __glewVertexAttribP1uiv @7929 DATA
    __glewVertexAttribP2ui @7930 DATA
    __glewVertexAttribP2uiv @7931 DATA
    __glewVertexAttribP3ui @7932 DATA
    __glewVertexAttribP3uiv @7933 DATA
    __glewVertexAttribP4ui @7934 DATA
    __glewVertexAttribP4uiv @7935 DATA
    __glewVertexAttribPointer @7936 DATA
    __glewVertexAttribPointerARB @7937 DATA
    __glewVertexAttribPointerNV @7938 DATA
    __glewVertexAttribs1dvNV @7939 DATA
    __glewVertexAttribs1fvNV @7940 DATA
    __glewVertexAttribs1hvNV @7941 DATA
    __glewVertexAttribs1svNV @7942 DATA
    __glewVertexAttribs2dvNV @7943 DATA
    __glewVertexAttribs2fvNV @7944 DATA
    __glewVertexAttribs2hvNV @7945 DATA
    __glewVertexAttribs2svNV @7946 DATA
    __glewVertexAttribs3dvNV @7947 DATA
    __glewVertexAttribs3fvNV @7948 DATA
    __glewVertexAttribs3hvNV @7949 DATA
    __glewVertexAttribs3svNV @7950 DATA
    __glewVertexAttribs4dvNV @7951 DATA
    __glewVertexAttribs4fvNV @7952 DATA
    __glewVertexAttribs4hvNV @7953 DATA
    __glewVertexAttribs4svNV @7954 DATA
    __glewVertexAttribs4ubvNV @7955 DATA
    __glewVertexBlendARB @7956 DATA
    __glewVertexBlendEnvfATI @7957 DATA
    __glewVertexBlendEnviATI @7958 DATA
    __glewVertexFormatNV @7959 DATA
    __glewVertexP2ui @7960 DATA
    __glewVertexP2uiv @7961 DATA
    __glewVertexP3ui @7962 DATA
    __glewVertexP3uiv @7963 DATA
    __glewVertexP4ui @7964 DATA
    __glewVertexP4uiv @7965 DATA
    __glewVertexPointerEXT @7966 DATA
    __glewVertexPointerListIBM @7967 DATA
    __glewVertexPointervINTEL @7968 DATA
    __glewVertexStream2dATI @7969 DATA
    __glewVertexStream2dvATI @7970 DATA
    __glewVertexStream2fATI @7971 DATA
    __glewVertexStream2fvATI @7972 DATA
    __glewVertexStream2iATI @7973 DATA
    __glewVertexStream2ivATI @7974 DATA
    __glewVertexStream2sATI @7975 DATA
    __glewVertexStream2svATI @7976 DATA
    __glewVertexStream3dATI @7977 DATA
    __glewVertexStream3dvATI @7978 DATA
    __glewVertexStream3fATI @7979 DATA
    __glewVertexStream3fvATI @7980 DATA
    __glewVertexStream3iATI @7981 DATA
    __glewVertexStream3ivATI @7982 DATA
    __glewVertexStream3sATI @7983 DATA
    __glewVertexStream3svATI @7984 DATA
    __glewVertexStream4dATI @7985 DATA
    __glewVertexStream4dvATI @7986 DATA
    __glewVertexStream4fATI @7987 DATA
    __glewVertexStream4fvATI @7988 DATA
    __glewVertexStream4iATI @7989 DATA
    __glewVertexStream4ivATI @7990 DATA
    __glewVertexStream4sATI @7991 DATA
    __glewVertexStream4svATI @7992 DATA
    __glewVertexWeightPointerEXT @7993 DATA
    __glewVertexWeightfEXT @7994 DATA
    __glewVertexWeightfvEXT @7995 DATA
    __glewVertexWeighthNV @7996 DATA
    __glewVertexWeighthvNV @7997 DATA
    __glewVideoCaptureNV @7998 DATA
    __glewVideoCaptureStreamParameterdvNV @7999 DATA
    __glewVideoCaptureStreamParameterfvNV @8000 DATA
    __glewVideoCaptureStreamParameterivNV @8001 DATA
    __glewViewportArrayv @8002 DATA
    __glewViewportIndexedf @8003 DATA
    __glewViewportIndexedfv @8004 DATA
    __glewWaitSync @8005 DATA
    __glewWeightPointerARB @8006 DATA
    __glewWeightbvARB @8007 DATA
    __glewWeightdvARB @8008 DATA
    __glewWeightfvARB @8009 DATA
    __glewWeightivARB @8010 DATA
    __glewWeightsvARB @8011 DATA
    __glewWeightubvARB @8012 DATA
    __glewWeightuivARB @8013 DATA
    __glewWeightusvARB @8014 DATA
    __glewWindowPos2d @8015 DATA
    __glewWindowPos2dARB @8016 DATA
    __glewWindowPos2dMESA @8017 DATA
    __glewWindowPos2dv @8018 DATA
    __glewWindowPos2dvARB @8019 DATA
    __glewWindowPos2dvMESA @8020 DATA
    __glewWindowPos2f @8021 DATA
    __glewWindowPos2fARB @8022 DATA
    __glewWindowPos2fMESA @8023 DATA
    __glewWindowPos2fv @8024 DATA
    __glewWindowPos2fvARB @8025 DATA
    __glewWindowPos2fvMESA @8026 DATA
    __glewWindowPos2i @8027 DATA
    __glewWindowPos2iARB @8028 DATA
    __glewWindowPos2iMESA @8029 DATA
    __glewWindowPos2iv @8030 DATA
    __glewWindowPos2ivARB @8031 DATA
    __glewWindowPos2ivMESA @8032 DATA
    __glewWindowPos2s @8033 DATA
    __glewWindowPos2sARB @8034 DATA
    __glewWindowPos2sMESA @8035 DATA
    __glewWindowPos2sv @8036 DATA
    __glewWindowPos2svARB @8037 DATA
    __glewWindowPos2svMESA @8038 DATA
    __glewWindowPos3d @8039 DATA
    __glewWindowPos3dARB @8040 DATA
    __glewWindowPos3dMESA @8041 DATA
    __glewWindowPos3dv @8042 DATA
    __glewWindowPos3dvARB @8043 DATA
    __glewWindowPos3dvMESA @8044 DATA
    __glewWindowPos3f @8045 DATA
    __glewWindowPos3fARB @8046 DATA
    __glewWindowPos3fMESA @8047 DATA
    __glewWindowPos3fv @8048 DATA
    __glewWindowPos3fvARB @8049 DATA
    __glewWindowPos3fvMESA @8050 DATA
    __glewWindowPos3i @8051 DATA
    __glewWindowPos3iARB @8052 DATA
    __glewWindowPos3iMESA @8053 DATA
    __glewWindowPos3iv @8054 DATA
    __glewWindowPos3ivARB @8055 DATA
    __glewWindowPos3ivMESA @8056 DATA
    __glewWindowPos3s @8057 DATA
    __glewWindowPos3sARB @8058 DATA
    __glewWindowPos3sMESA @8059 DATA
    __glewWindowPos3sv @8060 DATA
    __glewWindowPos3svARB @8061 DATA
    __glewWindowPos3svMESA @8062 DATA
    __glewWindowPos4dMESA @8063 DATA
    __glewWindowPos4dvMESA @8064 DATA
    __glewWindowPos4fMESA @8065 DATA
    __glewWindowPos4fvMESA @8066 DATA
    __glewWindowPos4iMESA @8067 DATA
    __glewWindowPos4ivMESA @8068 DATA
    __glewWindowPos4sMESA @8069 DATA
    __glewWindowPos4svMESA @8070 DATA
    __glewWriteMaskEXT @8071 DATA
    __wglewAllocateMemoryNV @8072 DATA
    __wglewAssociateImageBufferEventsI3D @8073 DATA
    __wglewBeginFrameTrackingI3D @8074 DATA
    __wglewBindDisplayColorTableEXT @8075 DATA
    __wglewBindSwapBarrierNV @8076 DATA
    __wglewBindTexImageARB @8077 DATA
    __wglewBindVideoCaptureDeviceNV @8078 DATA
    __wglewBindVideoDeviceNV @8079 DATA
    __wglewBindVideoImageNV @8080 DATA
    __wglewBlitContextFramebufferAMD @8081 DATA
    __wglewChoosePixelFormatARB @8082 DATA
    __wglewChoosePixelFormatEXT @8083 DATA
    __wglewCopyImageSubDataNV @8084 DATA
    __wglewCreateAffinityDCNV @8085 DATA
    __wglewCreateAssociatedContextAMD @8086 DATA
    __wglewCreateAssociatedContextAttribsAMD @8087 DATA
    __wglewCreateBufferRegionARB @8088 DATA
    __wglewCreateContextAttribsARB @8089 DATA
    __wglewCreateDisplayColorTableEXT @8090 DATA
    __wglewCreateImageBufferI3D @8091 DATA
    __wglewCreatePbufferARB @8092 DATA
    __wglewCreatePbufferEXT @8093 DATA
    __wglewDXCloseDeviceNV @8094 DATA
    __wglewDXLockObjectsNV @8095 DATA
    __wglewDXObjectAccessNV @8096 DATA
    __wglewDXOpenDeviceNV @8097 DATA
    __wglewDXRegisterObjectNV @8098 DATA
    __wglewDXSetResourceShareHandleNV @8099 DATA
    __wglewDXUnlockObjectsNV @8100 DATA
    __wglewDXUnregisterObjectNV @8101 DATA
    __wglewDeleteAssociatedContextAMD @8102 DATA
    __wglewDeleteBufferRegionARB @8103 DATA
    __wglewDeleteDCNV @8104 DATA
    __wglewDestroyDisplayColorTableEXT @8105 DATA
    __wglewDestroyImageBufferI3D @8106 DATA
    __wglewDestroyPbufferARB @8107 DATA
    __wglewDestroyPbufferEXT @8108 DATA
    __wglewDisableFrameLockI3D @8109 DATA
    __wglewDisableGenlockI3D @8110 DATA
    __wglewEnableFrameLockI3D @8111 DATA
    __wglewEnableGenlockI3D @8112 DATA
    __wglewEndFrameTrackingI3D @8113 DATA
    __wglewEnumGpuDevicesNV @8114 DATA
    __wglewEnumGpusFromAffinityDCNV @8115 DATA
    __wglewEnumGpusNV @8116 DATA
    __wglewEnumerateVideoCaptureDevicesNV @8117 DATA
    __wglewEnumerateVideoDevicesNV @8118 DATA
    __wglewFreeMemoryNV @8119 DATA
    __wglewGenlockSampleRateI3D @8120 DATA
    __wglewGenlockSourceDelayI3D @8121 DATA
    __wglewGenlockSourceEdgeI3D @8122 DATA
    __wglewGenlockSourceI3D @8123 DATA
    __wglewGetContextGPUIDAMD @8124 DATA
    __wglewGetCurrentAssociatedContextAMD @8125 DATA
    __wglewGetCurrentReadDCARB @8126 DATA
    __wglewGetCurrentReadDCEXT @8127 DATA
    __wglewGetDigitalVideoParametersI3D @8128 DATA
    __wglewGetExtensionsStringARB @8129 DATA
    __wglewGetExtensionsStringEXT @8130 DATA
    __wglewGetFrameUsageI3D @8131 DATA
    __wglewGetGPUIDsAMD @8132 DATA
    __wglewGetGPUInfoAMD @8133 DATA
    __wglewGetGammaTableI3D @8134 DATA
    __wglewGetGammaTableParametersI3D @8135 DATA
    __wglewGetGenlockSampleRateI3D @8136 DATA
    __wglewGetGenlockSourceDelayI3D @8137 DATA
    __wglewGetGenlockSourceEdgeI3D @8138 DATA
    __wglewGetGenlockSourceI3D @8139 DATA
    __wglewGetMscRateOML @8140 DATA
    __wglewGetPbufferDCARB @8141 DATA
    __wglewGetPbufferDCEXT @8142 DATA
    __wglewGetPixelFormatAttribfvARB @8143 DATA
    __wglewGetPixelFormatAttribfvEXT @8144 DATA
    __wglewGetPixelFormatAttribivARB @8145 DATA
    __wglewGetPixelFormatAttribivEXT @8146 DATA
    __wglewGetSwapIntervalEXT @8147 DATA
    __wglewGetSyncValuesOML @8148 DATA
    __wglewGetVideoDeviceNV @8149 DATA
    __wglewGetVideoInfoNV @8150 DATA
    __wglewIsEnabledFrameLockI3D @8151 DATA
    __wglewIsEnabledGenlockI3D @8152 DATA
    __wglewJoinSwapGroupNV @8153 DATA
    __wglewLoadDisplayColorTableEXT @8154 DATA
    __wglewLockVideoCaptureDeviceNV @8155 DATA
    __wglewMakeAssociatedContextCurrentAMD @8156 DATA
    __wglewMakeContextCurrentARB @8157 DATA
    __wglewMakeContextCurrentEXT @8158 DATA
    __wglewQueryCurrentContextNV @8159 DATA
    __wglewQueryFrameCountNV @8160 DATA
    __wglewQueryFrameLockMasterI3D @8161 DATA
    __wglewQueryFrameTrackingI3D @8162 DATA
    __wglewQueryGenlockMaxSourceDelayI3D @8163 DATA
    __wglewQueryMaxSwapGroupsNV @8164 DATA
    __wglewQueryPbufferARB @8165 DATA
    __wglewQueryPbufferEXT @8166 DATA
    __wglewQuerySwapGroupNV @8167 DATA
    __wglewQueryVideoCaptureDeviceNV @8168 DATA
    __wglewReleaseImageBufferEventsI3D @8169 DATA
    __wglewReleasePbufferDCARB @8170 DATA
    __wglewReleasePbufferDCEXT @8171 DATA
    __wglewReleaseTexImageARB @8172 DATA
    __wglewReleaseVideoCaptureDeviceNV @8173 DATA
    __wglewReleaseVideoDeviceNV @8174 DATA
    __wglewReleaseVideoImageNV @8175 DATA
    __wglewResetFrameCountNV @8176 DATA
    __wglewRestoreBufferRegionARB @8177 DATA
    __wglewSaveBufferRegionARB @8178 DATA
    __wglewSendPbufferToVideoNV @8179 DATA
    __wglewSetDigitalVideoParametersI3D @8180 DATA
    __wglewSetGammaTableI3D @8181 DATA
    __wglewSetGammaTableParametersI3D @8182 DATA
    __wglewSetPbufferAttribARB @8183 DATA
    __wglewSetStereoEmitterState3DL @8184 DATA
    __wglewSwapBuffersMscOML @8185 DATA
    __wglewSwapIntervalEXT @8186 DATA
    __wglewSwapLayerBuffersMscOML @8187 DATA
    __wglewWaitForMscOML @8188 DATA
    __wglewWaitForSbcOML @8189 DATA
    _get_output_format @8190
    af_autofitter_service @8191 DATA
    af_cjk_script_class @8192 DATA
    af_dummy_script_class @8193 DATA
    af_glyph_hints_dump_edges @8194
    af_glyph_hints_dump_points @8195
    af_glyph_hints_dump_segments @8196
    af_indic_script_class @8197 DATA
    af_latin_script_class @8198 DATA
    afm_parser_funcs @8199 DATA
    autofit_module_class @8200 DATA
    b2Vec2_zero @8201 DATA
    b2_defaultFilter @8202 DATA
    b2_defaultListener @8203 DATA
    b2_gjkCalls @8204 DATA
    b2_gjkIters @8205 DATA
    b2_gjkMaxIters @8206 DATA
    b2_toiCalls @8207 DATA
    b2_toiIters @8208 DATA
    b2_toiMaxIters @8209 DATA
    b2_toiMaxRootIters @8210 DATA
    b2_toiRootIters @8211 DATA
    b2_version @8212 DATA
    bdf_cmap_class @8213 DATA
    bdf_driver_class @8214 DATA
    cff_cmap_encoding_class_rec @8215 DATA
    cff_cmap_unicode_class_rec @8216 DATA
    cff_driver_class @8217 DATA
    feof @8218
    ft_bitmap_glyph_class @8219 DATA
    ft_corner_is_flat @8220
    ft_corner_orientation @8221
    ft_glyphslot_alloc_bitmap @8222
    ft_glyphslot_free_bitmap @8223
    ft_glyphslot_set_bitmap @8224
    ft_grays_raster @8225 DATA
    ft_highpow2 @8226
    ft_lzwstate_done @8227
    ft_lzwstate_init @8228
    ft_lzwstate_io @8229
    ft_lzwstate_reset @8230
    ft_mem_alloc @8231
    ft_mem_dup @8232
    ft_mem_free @8233
    ft_mem_qalloc @8234
    ft_mem_qrealloc @8235
    ft_mem_realloc @8236
    ft_mem_strcpyn @8237
    ft_mem_strdup @8238
    ft_module_get_service @8239
    ft_outline_glyph_class @8240 DATA
    ft_raster1_renderer_class @8241 DATA
    ft_raster5_renderer_class @8242 DATA
    ft_service_list_lookup @8243
    ft_smooth_lcd_renderer_class @8244 DATA
    ft_smooth_lcdv_renderer_class @8245 DATA
    ft_smooth_renderer_class @8246 DATA
    ft_standard_raster @8247 DATA
    ft_stub_set_char_sizes @8248
    ft_stub_set_pixel_sizes @8249
    ft_synthesize_vertical_metrics @8250
    ft_validator_error @8251
    ft_validator_init @8252
    ft_validator_run @8253
    glewExperimental @8254 DATA
    glewGetErrorString @8255
    glewGetExtension @8256
    glewGetString @8257
    glewInit @8258
    glewIsSupported @8259
    jcopy_block_row @8260
    jcopy_sample_rows @8261
    jdiv_round_up @8262
    jinit_arith_encoder @8263
    jinit_c_coef_controller @8264
    jinit_c_main_controller @8265
    jinit_c_master_control @8266
    jinit_c_prep_controller @8267
    jinit_color_converter @8268
    jinit_compress_master @8269
    jinit_downsampler @8270
    jinit_forward_dct @8271
    jinit_huff_encoder @8272
    jinit_marker_writer @8273
    jinit_memory_mgr @8274
    jpeg_CreateCompress @8275
    jpeg_abort @8276
    jpeg_abort_compress @8277
    jpeg_add_quant_table @8278
    jpeg_alloc_huff_table @8279
    jpeg_alloc_quant_table @8280
    jpeg_aritab @8281 DATA
    jpeg_calc_jpeg_dimensions @8282
    jpeg_default_colorspace @8283
    jpeg_default_qtables @8284
    jpeg_destroy @8285
    jpeg_destroy_compress @8286
    jpeg_fdct_10x10 @8287
    jpeg_fdct_10x5 @8288
    jpeg_fdct_11x11 @8289
    jpeg_fdct_12x12 @8290
    jpeg_fdct_12x6 @8291
    jpeg_fdct_13x13 @8292
    jpeg_fdct_14x14 @8293
    jpeg_fdct_14x7 @8294
    jpeg_fdct_15x15 @8295
    jpeg_fdct_16x16 @8296
    jpeg_fdct_16x8 @8297
    jpeg_fdct_1x1 @8298
    jpeg_fdct_1x2 @8299
    jpeg_fdct_2x1 @8300
    jpeg_fdct_2x2 @8301
    jpeg_fdct_2x4 @8302
    jpeg_fdct_3x3 @8303
    jpeg_fdct_3x6 @8304
    jpeg_fdct_4x2 @8305
    jpeg_fdct_4x4 @8306
    jpeg_fdct_4x8 @8307
    jpeg_fdct_5x10 @8308
    jpeg_fdct_5x5 @8309
    jpeg_fdct_6x12 @8310
    jpeg_fdct_6x3 @8311
    jpeg_fdct_6x6 @8312
    jpeg_fdct_7x14 @8313
    jpeg_fdct_7x7 @8314
    jpeg_fdct_8x16 @8315
    jpeg_fdct_8x4 @8316
    jpeg_fdct_9x9 @8317
    jpeg_fdct_float @8318
    jpeg_fdct_ifast @8319
    jpeg_fdct_islow @8320
    jpeg_finish_compress @8321
    jpeg_free_large @8322
    jpeg_free_small @8323
    jpeg_get_large @8324
    jpeg_get_small @8325
    jpeg_mem_available @8326
    jpeg_mem_dest @8327
    jpeg_mem_init @8328
    jpeg_mem_term @8329
    jpeg_natural_order @8330 DATA
    jpeg_natural_order2 @8331 DATA
    jpeg_natural_order3 @8332 DATA
    jpeg_natural_order4 @8333 DATA
    jpeg_natural_order5 @8334 DATA
    jpeg_natural_order6 @8335 DATA
    jpeg_natural_order7 @8336 DATA
    jpeg_open_backing_store @8337
    jpeg_quality_scaling @8338
    jpeg_set_colorspace @8339
    jpeg_set_defaults @8340
    jpeg_set_linear_quality @8341
    jpeg_set_quality @8342
    jpeg_simple_progression @8343
    jpeg_start_compress @8344
    jpeg_std_error @8345
    jpeg_std_message_table @8346 DATA
    jpeg_stdio_dest @8347
    jpeg_suppress_tables @8348
    jpeg_write_m_byte @8349
    jpeg_write_m_header @8350
    jpeg_write_marker @8351
    jpeg_write_raw_data @8352
    jpeg_write_scanlines @8353
    jpeg_write_tables @8354
    jround_up @8355
    jzero_far @8356
    pcf_cmap_class @8357 DATA
    pcf_driver_class @8358 DATA
    pfr_cmap_class_rec @8359 DATA
    pfr_driver_class @8360 DATA
    pfr_metrics_service_rec @8361 DATA
    ps_hints_apply @8362
    ps_parser_funcs @8363 DATA
    ps_table_funcs @8364 DATA
    psaux_module_class @8365 DATA
    pshinter_module_class @8366 DATA
    psnames_module_class @8367 DATA
    sfnt_module_class @8368 DATA
    stbi_convert_iphone_png_to_rgb @8369
    stbi_failure_reason @8370
    stbi_hdr_to_ldr_gamma @8371
    stbi_hdr_to_ldr_scale @8372
    stbi_image_free @8373
    stbi_info @8374
    stbi_info_from_callbacks @8375
    stbi_info_from_file @8376
    stbi_info_from_memory @8377
    stbi_is_hdr @8378
    stbi_is_hdr_from_callbacks @8379
    stbi_is_hdr_from_file @8380
    stbi_is_hdr_from_memory @8381
    stbi_ldr_to_hdr_gamma @8382
    stbi_ldr_to_hdr_scale @8383
    stbi_load @8384
    stbi_load_from_callbacks @8385
    stbi_load_from_file @8386
    stbi_load_from_memory @8387
    stbi_loadf @8388
    stbi_loadf_from_callbacks @8389
    stbi_loadf_from_file @8390
    stbi_loadf_from_memory @8391
    stbi_png_partial @8392 DATA
    stbi_set_unpremultiply_on_load @8393
    stbi_write_bmp @8394
    stbi_write_png @8395
    stbi_write_tga @8396
    stbi_zlib_decode_buffer @8397
    stbi_zlib_decode_malloc @8398
    stbi_zlib_decode_malloc_guesssize @8399
    stbi_zlib_decode_noheader_buffer @8400
    stbi_zlib_decode_noheader_malloc @8401
    t1_builder_funcs @8402 DATA
    t1_cmap_classes @8403 DATA
    t1_cmap_custom_class_rec @8404 DATA
    t1_cmap_expert_class_rec @8405 DATA
    t1_cmap_standard_class_rec @8406 DATA
    t1_cmap_unicode_class_rec @8407 DATA
    t1_decoder_funcs @8408 DATA
    t1_driver_class @8409 DATA
    t1cid_driver_class @8410 DATA
    t42_driver_class @8411 DATA
    tt_cmap0_class_rec @8412 DATA
    tt_cmap10_class_rec @8413 DATA
    tt_cmap12_class_rec @8414 DATA
    tt_cmap13_class_rec @8415 DATA
    tt_cmap14_class_rec @8416 DATA
    tt_cmap2_class_rec @8417 DATA
    tt_cmap4_class_rec @8418 DATA
    tt_cmap6_class_rec @8419 DATA
    tt_cmap8_class_rec @8420 DATA
    tt_default_graphics_state @8421 DATA
    tt_driver_class @8422 DATA
    wglewContextInit @8423
    wglewGetExtension @8424
    wglewIsSupported @8425
    winfnt_driver_class @8426 DATA
